	.section .mdebug.abi32
	.previous
	.gnu_attribute 4, 3
	.text
$Ltext0:
	.cfi_sections	.debug_frame
	.align	2
	.globl	fastpath_pppoe_single_open
$LFB3094 = .
	.file 1 "/home/extra_home/marklee/rtk_OpenWRT_BB/BB_v1407/0629_co_2.4_pre_release/svn_test/rtk_BarrierBreaker_v14.07.x/build_dir/target-mips_24kec_uClibc-0.9.33.2/linux-rtkmips_rtl8198c/fastpath-0.1/fast_pppoe_core.c"
	.loc 1 108 0
	.cfi_startproc
	.set	nomips16
	.ent	fastpath_pppoe_single_open
	.type	fastpath_pppoe_single_open, @function
fastpath_pppoe_single_open:
	.frame	$sp,0,$31		# vars= 0, regs= 0/0, args= 0, gp= 0
	.mask	0x00000000,0
	.fmask	0x00000000,0
	.set	noreorder
	.set	nomacro
	.loc 1 109 0
	move	$4,$5
	lui	$5,%hi(fast_pppoe_read_proc)
	move	$6,$0
	j	single_open
	addiu	$5,$5,%lo(fast_pppoe_read_proc)

	.set	macro
	.set	reorder
	.end	fastpath_pppoe_single_open
	.cfi_endproc
$LFE3094:
	.size	fastpath_pppoe_single_open, .-fastpath_pppoe_single_open
	.section	.rodata.str1.4,"aMS",@progbits,1
	.align	2
$LC0:
	.ascii	"fast pppoe enable:%c\012\000"
	.align	2
$LC1:
	.ascii	"[%d] null,null,0\012\000"
	.align	2
$LC2:
	.ascii	"[%d] %s,%s,%d,0x%x:%x:%x:%x:%x:%x\012\000"
	.text
	.align	2
$LFB3093 = .
	.loc 1 77 0
	.cfi_startproc
	.set	nomips16
	.ent	fast_pppoe_read_proc
	.type	fast_pppoe_read_proc, @function
fast_pppoe_read_proc:
	.frame	$sp,80,$31		# vars= 0, regs= 7/0, args= 48, gp= 0
	.mask	0x803f0000,-4
	.fmask	0x00000000,0
	.set	noreorder
	.set	nomacro
	.loc 1 80 0
	lui	$2,%hi(fast_pppoe_fw)
	lw	$6,%lo(fast_pppoe_fw)($2)
	.loc 1 77 0
	addiu	$sp,$sp,-80
	.cfi_def_cfa_offset 80
	.loc 1 80 0
	lui	$5,%hi($LC0)
	addiu	$5,$5,%lo($LC0)
	.loc 1 77 0
	sw	$21,72($sp)
	sw	$20,68($sp)
	sw	$16,52($sp)
	.loc 1 80 0
	addiu	$6,$6,48
	.cfi_offset 21, -8
	.cfi_offset 20, -12
	.cfi_offset 16, -28
	lui	$16,%hi(fast_pppoe_info)
	.loc 1 97 0
	lui	$21,%hi($LC2)
	.loc 1 87 0
	lui	$20,%hi($LC1)
	.loc 1 77 0
	sw	$19,64($sp)
	sw	$18,60($sp)
	sw	$17,56($sp)
	sw	$31,76($sp)
	.cfi_offset 19, -16
	.cfi_offset 18, -20
	.cfi_offset 17, -24
	.cfi_offset 31, -4
	.loc 1 77 0
	move	$18,$4
	.loc 1 80 0
	jal	seq_printf
	addiu	$16,$16,%lo(fast_pppoe_info)

	.loc 1 82 0
	move	$17,$0
	.loc 1 97 0
	addiu	$21,$21,%lo($LC2)
	.loc 1 87 0
	addiu	$20,$20,%lo($LC1)
	.loc 1 82 0
	li	$19,16			# 0x10
$L6:
	.loc 1 84 0
	lhu	$2,54($16)
	.loc 1 87 0
	move	$4,$18
	move	$5,$20
	move	$6,$17
	.loc 1 84 0
	bne	$2,$0,$L3
	addiu	$7,$16,16

	.loc 1 87 0
	jal	seq_printf
	addiu	$17,$17,1

	j	$L10
	addiu	$16,$16,88

$L3:
	.loc 1 97 0
	lbu	$5,40($16)
	lbu	$4,41($16)
	lhu	$10,52($16)
	lbu	$9,38($16)
	lbu	$8,39($16)
	lbu	$3,42($16)
	lbu	$2,43($16)
	sw	$5,32($sp)
	sw	$4,36($sp)
	sw	$16,16($sp)
	move	$6,$17
	sw	$10,20($sp)
	sw	$9,24($sp)
	sw	$8,28($sp)
	sw	$3,40($sp)
	sw	$2,44($sp)
	move	$4,$18
	jal	seq_printf
	move	$5,$21

	.loc 1 82 0
	addiu	$17,$17,1
	addiu	$16,$16,88
$L10:
	bne	$17,$19,$L6
	lw	$31,76($sp)

	.loc 1 105 0
	lw	$21,72($sp)
	lw	$20,68($sp)
	lw	$19,64($sp)
	lw	$18,60($sp)
	lw	$17,56($sp)
	lw	$16,52($sp)
	move	$2,$0
	j	$31
	addiu	$sp,$sp,80

	.cfi_def_cfa_offset 0
	.cfi_restore 16
	.cfi_restore 17
	.cfi_restore 18
	.cfi_restore 19
	.cfi_restore 20
	.cfi_restore 21
	.cfi_restore 31
	.set	macro
	.set	reorder
	.end	fast_pppoe_read_proc
	.cfi_endproc
$LFE3093:
	.size	fast_pppoe_read_proc, .-fast_pppoe_read_proc
	.section	.rodata.str1.4
	.align	2
$LC3:
	.ascii	"fast_pppoe\000"
	.section	.init.text,"ax",@progbits
	.align	2
	.globl	fast_pppoe_init
$LFB3096 = .
	.loc 1 188 0
	.cfi_startproc
	.set	nomips16
	.ent	fast_pppoe_init
	.type	fast_pppoe_init, @function
fast_pppoe_init:
	.frame	$sp,40,$31		# vars= 0, regs= 3/0, args= 24, gp= 0
	.mask	0x80030000,-4
	.fmask	0x00000000,0
	.set	noreorder
	.set	nomacro
	.loc 1 189 0
	lui	$3,%hi(clear_pppoe_info)
	addiu	$3,$3,%lo(clear_pppoe_info)
	lui	$2,%hi(clear_pppoe_info_fphook)
	sw	$3,%lo(clear_pppoe_info_fphook)($2)
	.loc 1 190 0
	lui	$3,%hi(set_pppoe_info)
	addiu	$3,$3,%lo(set_pppoe_info)
	lui	$2,%hi(set_pppoe_info_fphook)
	.loc 1 188 0
	addiu	$sp,$sp,-40
	.cfi_def_cfa_offset 40
	.loc 1 190 0
	sw	$3,%lo(set_pppoe_info_fphook)($2)
	.loc 1 196 0
	lui	$4,%hi($LC3)
	lui	$6,%hi(proc_root)
	lui	$7,%hi(fastpath_pppoe_proc_fops)
	.loc 1 191 0
	lui	$3,%hi(get_pppoe_last_rx_tx)
	addiu	$3,$3,%lo(get_pppoe_last_rx_tx)
	.loc 1 188 0
	sw	$17,32($sp)
	sw	$16,28($sp)
	.cfi_offset 17, -8
	.cfi_offset 16, -12
	.loc 1 192 0
	li	$17,1			# 0x1
	lui	$16,%hi(fast_pppoe_fw)
	.loc 1 196 0
	addiu	$4,$4,%lo($LC3)
	move	$5,$0
	addiu	$6,$6,%lo(proc_root)
	addiu	$7,$7,%lo(fastpath_pppoe_proc_fops)
	sw	$0,16($sp)
	.loc 1 191 0
	lui	$2,%hi(get_pppoe_last_rx_tx_fphook)
	.loc 1 188 0
	sw	$31,36($sp)
	.cfi_offset 31, -4
	.loc 1 192 0
	sw	$17,%lo(fast_pppoe_fw)($16)
	.loc 1 196 0
	jal	proc_create_data
	sw	$3,%lo(get_pppoe_last_rx_tx_fphook)($2)

$LBB41 = .
	.loc 1 207 0
	lui	$4,%hi(fast_pppoe_info)
$LBE41 = .
	.loc 1 196 0
	lui	$3,%hi(fast_pppoe_proc)
$LBB42 = .
	.loc 1 207 0
	addiu	$4,$4,%lo(fast_pppoe_info)
	move	$5,$0
	li	$6,1408			# 0x580
	jal	memset
	sw	$2,%lo(fast_pppoe_proc)($3)

$LBE42 = .
	.loc 1 211 0
	lw	$31,36($sp)
	.loc 1 208 0
	sw	$17,%lo(fast_pppoe_fw)($16)
	.loc 1 211 0
	move	$2,$0
	lw	$17,32($sp)
	lw	$16,28($sp)
	j	$31
	addiu	$sp,$sp,40

	.cfi_def_cfa_offset 0
	.cfi_restore 16
	.cfi_restore 17
	.cfi_restore 31
	.set	macro
	.set	reorder
	.end	fast_pppoe_init
	.cfi_endproc
$LFE3096:
	.size	fast_pppoe_init, .-fast_pppoe_init
	.section	.exit.text,"ax",@progbits
	.align	2
	.globl	fast_pppoe_exit
$LFB3097 = .
	.loc 1 215 0
	.cfi_startproc
	.set	nomips16
	.ent	fast_pppoe_exit
	.type	fast_pppoe_exit, @function
fast_pppoe_exit:
	.frame	$sp,24,$31		# vars= 0, regs= 2/0, args= 16, gp= 0
	.mask	0x80010000,-4
	.fmask	0x00000000,0
	.set	noreorder
	.set	nomacro
	addiu	$sp,$sp,-24
	.cfi_def_cfa_offset 24
	.loc 1 216 0
	lui	$3,%hi(clear_pppoe_info_fphook)
	.loc 1 215 0
	sw	$16,16($sp)
	.cfi_offset 16, -8
	.loc 1 221 0
	lui	$16,%hi(fast_pppoe_proc)
	.loc 1 216 0
	sw	$0,%lo(clear_pppoe_info_fphook)($3)
	.loc 1 221 0
	lw	$2,%lo(fast_pppoe_proc)($16)
	.loc 1 217 0
	lui	$3,%hi(set_pppoe_info_fphook)
	sw	$0,%lo(set_pppoe_info_fphook)($3)
	.loc 1 218 0
	lui	$3,%hi(get_pppoe_last_rx_tx_fphook)
	sw	$0,%lo(get_pppoe_last_rx_tx_fphook)($3)
	.loc 1 219 0
	lui	$3,%hi(fast_pppoe_fw)
	.loc 1 215 0
	sw	$31,20($sp)
	.cfi_offset 31, -4
	.loc 1 221 0
	beq	$2,$0,$L14
	sw	$0,%lo(fast_pppoe_fw)($3)

	.loc 1 223 0
	lui	$4,%hi($LC3)
	lui	$5,%hi(proc_root)
	addiu	$4,$4,%lo($LC3)
	jal	remove_proc_entry
	addiu	$5,$5,%lo(proc_root)

	.loc 1 227 0
	sw	$0,%lo(fast_pppoe_proc)($16)
$L14:
	.loc 1 232 0
	lw	$31,20($sp)
	lw	$16,16($sp)
	move	$2,$0
	j	$31
	addiu	$sp,$sp,24

	.cfi_def_cfa_offset 0
	.cfi_restore 16
	.cfi_restore 31
	.set	macro
	.set	reorder
	.end	fast_pppoe_exit
	.cfi_endproc
$LFE3097:
	.size	fast_pppoe_exit, .-fast_pppoe_exit
	.text
	.align	2
	.globl	clear_pppoe_info
$LFB3098 = .
	.loc 1 238 0
	.cfi_startproc
	.set	nomips16
	.ent	clear_pppoe_info
	.type	clear_pppoe_info, @function
clear_pppoe_info:
	.frame	$sp,48,$31		# vars= 0, regs= 8/0, args= 16, gp= 0
	.mask	0x807f0000,-4
	.fmask	0x00000000,0
	addiu	$sp,$sp,-48
	.cfi_def_cfa_offset 48
	sw	$21,36($sp)
	sw	$20,32($sp)
	sw	$16,16($sp)
	.cfi_offset 21, -12
	.cfi_offset 20, -16
	.cfi_offset 16, -32
	lw	$21,68($sp)
	lui	$16,%hi(fast_pppoe_info)
	lw	$20,72($sp)
	addiu	$16,$16,%lo(fast_pppoe_info)
	sw	$22,40($sp)
	sw	$19,28($sp)
	sw	$18,24($sp)
	sw	$17,20($sp)
	sw	$31,44($sp)
	.cfi_offset 22, -8
	.cfi_offset 19, -20
	.cfi_offset 18, -24
	.cfi_offset 17, -28
	.cfi_offset 31, -4
	.loc 1 238 0
	move	$19,$4
	move	$18,$5
	andi	$22,$6,0xffff
	addiu	$17,$16,1408
$L28:
	.loc 1 242 0
	lhu	$2,54($16)
	beq	$2,$0,$L21
	.loc 1 248 0
	.set	noreorder
	.set	nomacro
	beq	$19,$0,$L22
	addiu	$2,$16,16
	.set	macro
	.set	reorder

$LBB43 = .
$LBB44 = .
	.file 2 "/home/extra_home/marklee/rtk_OpenWRT_BB/BB_v1407/0629_co_2.4_pre_release/svn_test/rtk_BarrierBreaker_v14.07.x/build_dir/target-mips_24kec_uClibc-0.9.33.2/linux-rtkmips_rtl8198c/linux-3.10.49/arch/mips/include/asm/string.h"
	.loc 2 77 0 discriminator 1
	move	$3,$19
#APP
 # 77 "/home/extra_home/marklee/rtk_OpenWRT_BB/BB_v1407/0629_co_2.4_pre_release/svn_test/rtk_BarrierBreaker_v14.07.x/build_dir/target-mips_24kec_uClibc-0.9.33.2/linux-rtkmips_rtl8198c/linux-3.10.49/arch/mips/include/asm/string.h" 1
	.set	noreorder
	.set	noat
	lbu	$4,($2)
1:	lbu	$1,($3)
	addiu	$2,1
	bne	$1,$4,2f
	addiu	$3,1
	bnez	$4,1b
	lbu	$4,($2)
	move	$4,$1
2:	subu	$4,$1
3:	.set	at
	.set	reorder
 # 0 "" 2
#NO_APP
$LBE44 = .
$LBE43 = .
	.loc 1 248 0 discriminator 1
	.set	noreorder
	.set	nomacro
	bne	$4,$0,$L22
	move	$4,$16
	.set	macro
	.set	reorder

$LBB45 = .
	.loc 1 250 0
	move	$5,$0
	.set	noreorder
	.set	nomacro
	jal	memset
	li	$6,88			# 0x58
	.set	macro
	.set	reorder

$L22:
$LBE45 = .
	.loc 1 253 0
	.set	noreorder
	.set	nomacro
	beq	$18,$0,$L23
	move	$2,$16
	.set	macro
	.set	reorder

$LBB46 = .
$LBB47 = .
	.loc 2 77 0 discriminator 1
	move	$3,$18
#APP
 # 77 "/home/extra_home/marklee/rtk_OpenWRT_BB/BB_v1407/0629_co_2.4_pre_release/svn_test/rtk_BarrierBreaker_v14.07.x/build_dir/target-mips_24kec_uClibc-0.9.33.2/linux-rtkmips_rtl8198c/linux-3.10.49/arch/mips/include/asm/string.h" 1
	.set	noreorder
	.set	noat
	lbu	$4,($2)
1:	lbu	$1,($3)
	addiu	$2,1
	bne	$1,$4,2f
	addiu	$3,1
	bnez	$4,1b
	lbu	$4,($2)
	move	$4,$1
2:	subu	$4,$1
3:	.set	at
	.set	reorder
 # 0 "" 2
#NO_APP
$LBE47 = .
$LBE46 = .
	.loc 1 253 0 discriminator 1
	.set	noreorder
	.set	nomacro
	bne	$4,$0,$L23
	move	$4,$16
	.set	macro
	.set	reorder

$LBB48 = .
	.loc 1 255 0
	move	$5,$0
	.set	noreorder
	.set	nomacro
	jal	memset
	li	$6,88			# 0x58
	.set	macro
	.set	reorder

$L23:
$LBE48 = .
	.loc 1 258 0
	.set	noreorder
	.set	nomacro
	beq	$20,$0,$L24
	addiu	$4,$16,38
	.set	macro
	.set	reorder

	.loc 1 258 0 is_stmt 0 discriminator 1
	move	$5,$20
	.set	noreorder
	.set	nomacro
	jal	memcmp
	li	$6,6			# 0x6
	.set	macro
	.set	reorder

	.set	noreorder
	.set	nomacro
	bne	$2,$0,$L24
	move	$4,$16
	.set	macro
	.set	reorder

$LBB49 = .
	.loc 1 260 0 is_stmt 1
	move	$5,$0
	.set	noreorder
	.set	nomacro
	jal	memset
	li	$6,88			# 0x58
	.set	macro
	.set	reorder

$L24:
$LBE49 = .
	.loc 1 263 0
	.set	noreorder
	.set	nomacro
	beq	$21,$0,$L25
	addiu	$4,$16,32
	.set	macro
	.set	reorder

	.loc 1 263 0 is_stmt 0 discriminator 1
	move	$5,$21
	.set	noreorder
	.set	nomacro
	jal	memcmp
	li	$6,6			# 0x6
	.set	macro
	.set	reorder

	.set	noreorder
	.set	nomacro
	bne	$2,$0,$L25
	move	$4,$16
	.set	macro
	.set	reorder

$LBB50 = .
	.loc 1 265 0 is_stmt 1
	move	$5,$0
	.set	noreorder
	.set	nomacro
	jal	memset
	li	$6,88			# 0x58
	.set	macro
	.set	reorder

$L25:
$LBE50 = .
	.loc 1 268 0
	lhu	$2,52($16)
	.set	noreorder
	.set	nomacro
	bne	$2,$22,$L21
	move	$4,$16
	.set	macro
	.set	reorder

$LBB51 = .
	.loc 1 270 0
	move	$5,$0
	.set	noreorder
	.set	nomacro
	jal	memset
	li	$6,88			# 0x58
	.set	macro
	.set	reorder

$L21:
	addiu	$16,$16,88
$LBE51 = .
	.loc 1 240 0
	.set	noreorder
	.set	nomacro
	bne	$16,$17,$L28
	lw	$31,44($sp)
	.set	macro
	.set	reorder

	.loc 1 276 0
	lw	$22,40($sp)
	lw	$21,36($sp)
	lw	$20,32($sp)
	lw	$19,28($sp)
	lw	$18,24($sp)
	lw	$17,20($sp)
	lw	$16,16($sp)
	move	$2,$0
	.set	noreorder
	.set	nomacro
	j	$31
	addiu	$sp,$sp,48
	.set	macro
	.set	reorder

	.cfi_def_cfa_offset 0
	.cfi_restore 16
	.cfi_restore 17
	.cfi_restore 18
	.cfi_restore 19
	.cfi_restore 20
	.cfi_restore 21
	.cfi_restore 22
	.cfi_restore 31
	.end	clear_pppoe_info
	.cfi_endproc
$LFE3098:
	.size	clear_pppoe_info, .-clear_pppoe_info
	.align	2
$LFB3100 = .
	.loc 1 304 0
	.cfi_startproc
	.set	nomips16
	.ent	find_pppoe_info
	.type	find_pppoe_info, @function
find_pppoe_info:
	.frame	$sp,56,$31		# vars= 0, regs= 10/0, args= 16, gp= 0
	.mask	0xc0ff0000,-4
	.fmask	0x00000000,0
	addiu	$sp,$sp,-56
	.cfi_def_cfa_offset 56
	sw	$22,40($sp)
	sw	$21,36($sp)
	.cfi_offset 22, -16
	.cfi_offset 21, -20
	lw	$22,76($sp)
	lw	$21,80($sp)
	sw	$16,16($sp)
	.cfi_offset 16, -40
	lui	$16,%hi(fast_pppoe_info)
	sw	$fp,48($sp)
	sw	$23,44($sp)
	sw	$20,32($sp)
	sw	$19,28($sp)
	sw	$18,24($sp)
	sw	$17,20($sp)
	sw	$31,52($sp)
	.cfi_offset 30, -8
	.cfi_offset 23, -12
	.cfi_offset 20, -24
	.cfi_offset 19, -28
	.cfi_offset 18, -32
	.cfi_offset 17, -36
	.cfi_offset 31, -4
	.loc 1 304 0
	move	$19,$4
	move	$20,$5
	move	$23,$7
	move	$fp,$6
	addiu	$16,$16,%lo(fast_pppoe_info)
	.loc 1 308 0
	move	$17,$0
	li	$18,16			# 0x10
$L51:
	.loc 1 310 0
	lhu	$2,54($16)
	beq	$2,$0,$L43
	.loc 1 315 0
	.set	noreorder
	.set	nomacro
	beq	$19,$0,$L44
	addiu	$2,$16,16
	.set	macro
	.set	reorder

$LBB52 = .
$LBB53 = .
	.loc 2 77 0 discriminator 1
	move	$3,$19
#APP
 # 77 "/home/extra_home/marklee/rtk_OpenWRT_BB/BB_v1407/0629_co_2.4_pre_release/svn_test/rtk_BarrierBreaker_v14.07.x/build_dir/target-mips_24kec_uClibc-0.9.33.2/linux-rtkmips_rtl8198c/linux-3.10.49/arch/mips/include/asm/string.h" 1
	.set	noreorder
	.set	noat
	lbu	$4,($2)
1:	lbu	$1,($3)
	addiu	$2,1
	bne	$1,$4,2f
	addiu	$3,1
	bnez	$4,1b
	lbu	$4,($2)
	move	$4,$1
2:	subu	$4,$1
3:	.set	at
	.set	reorder
 # 0 "" 2
#NO_APP
$LBE53 = .
$LBE52 = .
	.loc 1 315 0 discriminator 1
	.set	noreorder
	.set	nomacro
	beq	$4,$0,$L81
	sll	$3,$17,4
	.set	macro
	.set	reorder

$L44:
	.loc 1 320 0
	.set	noreorder
	.set	nomacro
	beq	$20,$0,$L46
	move	$2,$16
	.set	macro
	.set	reorder

$LBB54 = .
$LBB55 = .
	.loc 2 77 0 discriminator 1
	move	$3,$20
#APP
 # 77 "/home/extra_home/marklee/rtk_OpenWRT_BB/BB_v1407/0629_co_2.4_pre_release/svn_test/rtk_BarrierBreaker_v14.07.x/build_dir/target-mips_24kec_uClibc-0.9.33.2/linux-rtkmips_rtl8198c/linux-3.10.49/arch/mips/include/asm/string.h" 1
	.set	noreorder
	.set	noat
	lbu	$4,($2)
1:	lbu	$1,($3)
	addiu	$2,1
	bne	$1,$4,2f
	addiu	$3,1
	bnez	$4,1b
	lbu	$4,($2)
	move	$4,$1
2:	subu	$4,$1
3:	.set	at
	.set	reorder
 # 0 "" 2
#NO_APP
$LBE55 = .
$LBE54 = .
	.loc 1 320 0 discriminator 1
	.set	noreorder
	.set	nomacro
	beq	$4,$0,$L45
	move	$2,$16
	.set	macro
	.set	reorder

$L46:
	.loc 1 326 0
	.set	noreorder
	.set	nomacro
	beq	$21,$0,$L47
	addiu	$4,$16,38
	.set	macro
	.set	reorder

	.loc 1 326 0 is_stmt 0 discriminator 1
	move	$5,$21
	.set	noreorder
	.set	nomacro
	jal	memcmp
	li	$6,6			# 0x6
	.set	macro
	.set	reorder

	.set	noreorder
	.set	nomacro
	beq	$2,$0,$L81
	sll	$3,$17,4
	.set	macro
	.set	reorder

$L47:
	.loc 1 331 0 is_stmt 1
	.set	noreorder
	.set	nomacro
	beq	$22,$0,$L48
	addiu	$4,$16,32
	.set	macro
	.set	reorder

	.loc 1 331 0 is_stmt 0 discriminator 1
	move	$5,$22
	.set	noreorder
	.set	nomacro
	jal	memcmp
	li	$6,6			# 0x6
	.set	macro
	.set	reorder

	.set	noreorder
	.set	nomacro
	beq	$2,$0,$L81
	sll	$3,$17,4
	.set	macro
	.set	reorder

$L48:
	.loc 1 337 0 is_stmt 1
	lw	$2,72($sp)
	.set	noreorder
	.set	nomacro
	beq	$2,$0,$L49
	lw	$3,72($sp)
	.set	macro
	.set	reorder

	.loc 1 337 0 is_stmt 0 discriminator 1
	lw	$2,48($16)
	.set	noreorder
	.set	nomacro
	beq	$2,$3,$L81
	sll	$3,$17,4
	.set	macro
	.set	reorder

$L49:
	.loc 1 342 0 is_stmt 1
	beq	$23,$0,$L50
	.loc 1 342 0 is_stmt 0 discriminator 1
	lw	$2,44($16)
	.set	noreorder
	.set	nomacro
	beq	$2,$23,$L81
	sll	$3,$17,4
	.set	macro
	.set	reorder

$L50:
	.loc 1 348 0 is_stmt 1
	beq	$fp,$0,$L43
	.loc 1 348 0 is_stmt 0 discriminator 1
	lhu	$2,52($16)
	.set	noreorder
	.set	nomacro
	bne	$2,$fp,$L82
	addiu	$17,$17,1
	.set	macro
	.set	reorder

	addiu	$17,$17,-1
	.loc 1 350 0 is_stmt 1
	sll	$3,$17,4
$L81:
	sll	$2,$17,2
	subu	$2,$3,$2
	subu	$2,$2,$17
	lui	$3,%hi(fast_pppoe_info)
	sll	$2,$2,3
	addiu	$3,$3,%lo(fast_pppoe_info)
	.set	noreorder
	.set	nomacro
	j	$L45
	addu	$2,$3,$2
	.set	macro
	.set	reorder

$L43:
	.loc 1 308 0
	addiu	$17,$17,1
$L82:
	.set	noreorder
	.set	nomacro
	bne	$17,$18,$L51
	addiu	$16,$16,88
	.set	macro
	.set	reorder

	.loc 1 354 0
	.set	noreorder
	.set	nomacro
	j	$L80
	move	$2,$0
	.set	macro
	.set	reorder

$L80:
$L45:
	.loc 1 355 0
	lw	$31,52($sp)
	lw	$fp,48($sp)
	lw	$23,44($sp)
	lw	$22,40($sp)
	lw	$21,36($sp)
	lw	$20,32($sp)
	lw	$19,28($sp)
	lw	$18,24($sp)
	lw	$17,20($sp)
	lw	$16,16($sp)
	.set	noreorder
	.set	nomacro
	j	$31
	addiu	$sp,$sp,56
	.set	macro
	.set	reorder

	.cfi_def_cfa_offset 0
	.cfi_restore 16
	.cfi_restore 17
	.cfi_restore 18
	.cfi_restore 19
	.cfi_restore 20
	.cfi_restore 21
	.cfi_restore 22
	.cfi_restore 23
	.cfi_restore 30
	.cfi_restore 31
	.end	find_pppoe_info
	.cfi_endproc
$LFE3100:
	.size	find_pppoe_info, .-find_pppoe_info
	.align	2
	.globl	get_pppoe_last_rx_tx
$LFB3103 = .
	.loc 1 439 0
	.cfi_startproc
	.set	nomips16
	.ent	get_pppoe_last_rx_tx
	.type	get_pppoe_last_rx_tx, @function
get_pppoe_last_rx_tx:
	.frame	$sp,40,$31		# vars= 0, regs= 1/0, args= 32, gp= 0
	.mask	0x80000000,-4
	.fmask	0x00000000,0
	.set	noreorder
	.set	nomacro
	addiu	$sp,$sp,-40
	.cfi_def_cfa_offset 40
	lw	$2,56($sp)
	.loc 1 442 0
	andi	$6,$6,0xffff
	.loc 1 439 0
	sw	$31,36($sp)
	.cfi_offset 31, -4
	.loc 1 442 0
	sw	$2,16($sp)
	lw	$2,60($sp)
	sw	$2,20($sp)
	lw	$2,64($sp)
	jal	find_pppoe_info
	sw	$2,24($sp)

	.loc 1 443 0
	beq	$2,$0,$L84
	lw	$3,68($sp)

	.loc 1 445 0
	lw	$4,56($2)
	sw	$4,0($3)
	.loc 1 446 0
	lw	$3,60($2)
	lw	$2,72($sp)
	sw	$3,0($2)
$L84:
	.loc 1 449 0
	lw	$31,36($sp)
	move	$2,$0
	j	$31
	addiu	$sp,$sp,40

	.cfi_def_cfa_offset 0
	.cfi_restore 31
	.set	macro
	.set	reorder
	.end	get_pppoe_last_rx_tx
	.cfi_endproc
$LFE3103:
	.size	get_pppoe_last_rx_tx, .-get_pppoe_last_rx_tx
	.align	2
	.globl	set_pppoe_info
$LFB3102 = .
	.loc 1 378 0
	.cfi_startproc
	.set	nomips16
	.ent	set_pppoe_info
	.type	set_pppoe_info, @function
set_pppoe_info:
	.frame	$sp,72,$31		# vars= 0, regs= 9/0, args= 32, gp= 0
	.mask	0x80ff0000,-4
	.fmask	0x00000000,0
	addiu	$sp,$sp,-72
	.cfi_def_cfa_offset 72
	sw	$18,44($sp)
	sw	$17,40($sp)
	sw	$16,36($sp)
	.cfi_offset 18, -28
	.cfi_offset 17, -32
	.cfi_offset 16, -36
	lw	$18,88($sp)
	lw	$16,92($sp)
	lw	$17,96($sp)
	sw	$22,60($sp)
	sw	$19,48($sp)
	.cfi_offset 22, -12
	.cfi_offset 19, -24
	andi	$22,$6,0xffff
	move	$19,$5
	.loc 1 381 0
	sw	$18,16($sp)
	sw	$16,20($sp)
	sw	$17,24($sp)
	move	$5,$0
	move	$6,$0
	.loc 1 378 0
	sw	$21,56($sp)
	sw	$20,52($sp)
	sw	$31,68($sp)
	sw	$23,64($sp)
	.cfi_offset 21, -16
	.cfi_offset 20, -20
	.cfi_offset 31, -4
	.cfi_offset 23, -8
	.loc 1 378 0
	move	$20,$4
	.loc 1 381 0
	.set	noreorder
	.set	nomacro
	jal	find_pppoe_info
	move	$21,$7
	.set	macro
	.set	reorder

	.loc 1 383 0
	.set	noreorder
	.set	nomacro
	bne	$2,$0,$L90
	lui	$3,%hi(fast_pppoe_info+54)
	.set	macro
	.set	reorder

	addiu	$3,$3,%lo(fast_pppoe_info+54)
$LBB65 = .
$LBB66 = .
	.loc 1 360 0
	li	$5,16			# 0x10
$L94:
	.loc 1 362 0
	lhu	$4,0($3)
	.set	noreorder
	.set	nomacro
	bne	$4,$0,$L91
	addiu	$3,$3,88
	.set	macro
	.set	reorder

	.loc 1 364 0
	sll	$3,$2,2
	sll	$4,$2,4
	subu	$3,$4,$3
	subu	$2,$3,$2
	lui	$3,%hi(fast_pppoe_info)
	sll	$2,$2,3
	addiu	$3,$3,%lo(fast_pppoe_info)
	addu	$2,$3,$2
$LBE66 = .
$LBE65 = .
	.loc 1 386 0
	.set	noreorder
	.set	nomacro
	bne	$2,$0,$L90
	lw	$31,68($sp)
	.set	macro
	.set	reorder

	.loc 1 433 0
	.set	noreorder
	.set	nomacro
	j	$L129
	lw	$23,64($sp)
	.set	macro
	.set	reorder

$L91:
$LBB69 = .
$LBB68 = .
	.loc 1 360 0
	addiu	$2,$2,1
	.set	noreorder
	.set	nomacro
	bne	$2,$5,$L94
	lui	$23,%hi(fast_pppoe_info)
	.set	macro
	.set	reorder

$LBB67 = .
	.loc 1 369 0
	addiu	$4,$23,%lo(fast_pppoe_info)
	move	$5,$0
	.set	noreorder
	.set	nomacro
	jal	memset
	li	$6,1408			# 0x580
	.set	macro
	.set	reorder

$LBE67 = .
	.loc 1 371 0
	addiu	$2,$23,%lo(fast_pppoe_info)
$L90:
$LBE68 = .
$LBE69 = .
	.loc 1 392 0
	beq	$22,$0,$L96
	.loc 1 394 0
	sh	$22,52($2)
$L96:
	.loc 1 397 0
	beq	$21,$0,$L97
	.loc 1 399 0
	sw	$21,44($2)
$L97:
	.loc 1 403 0
	beq	$18,$0,$L98
	.loc 1 405 0
	sw	$18,48($2)
$L98:
	.loc 1 408 0
	.set	noreorder
	.set	nomacro
	beq	$20,$0,$L99
	addiu	$3,$2,16
	.set	macro
	.set	reorder

$LBB70 = .
$LBB71 = .
	.loc 2 27 0
	move	$4,$20
#APP
 # 27 "/home/extra_home/marklee/rtk_OpenWRT_BB/BB_v1407/0629_co_2.4_pre_release/svn_test/rtk_BarrierBreaker_v14.07.x/build_dir/target-mips_24kec_uClibc-0.9.33.2/linux-rtkmips_rtl8198c/linux-3.10.49/arch/mips/include/asm/string.h" 1
	.set	noreorder
	.set	noat
1:	lbu	$1,($4)
	addiu	$4,1
	sb	$1,($3)
	bnez	$1,1b
	addiu	$3,1
	.set	at
	.set	reorder
 # 0 "" 2
#NO_APP
$L99:
$LBE71 = .
$LBE70 = .
	.loc 1 413 0
	.set	noreorder
	.set	nomacro
	beq	$19,$0,$L100
	move	$3,$2
	.set	macro
	.set	reorder

$LBB72 = .
$LBB73 = .
	.loc 2 27 0
	move	$5,$19
#APP
 # 27 "/home/extra_home/marklee/rtk_OpenWRT_BB/BB_v1407/0629_co_2.4_pre_release/svn_test/rtk_BarrierBreaker_v14.07.x/build_dir/target-mips_24kec_uClibc-0.9.33.2/linux-rtkmips_rtl8198c/linux-3.10.49/arch/mips/include/asm/string.h" 1
	.set	noreorder
	.set	noat
1:	lbu	$1,($5)
	addiu	$5,1
	sb	$1,($3)
	bnez	$1,1b
	addiu	$3,1
	.set	at
	.set	reorder
 # 0 "" 2
#NO_APP
$L100:
$LBE73 = .
$LBE72 = .
	.loc 1 419 0
	.set	noreorder
	.set	nomacro
	beq	$17,$0,$L101
	addiu	$3,$2,38
	.set	macro
	.set	reorder

$LBB74 = .
	.loc 1 421 0
	lwl	$4,0($17)
	lwr	$4,3($17)
	swl	$4,38($2)
	swr	$4,3($3)
	lbu	$4,4($17)
	sb	$4,4($3)
	lbu	$4,5($17)
	sb	$4,5($3)
$L101:
$LBE74 = .
	.loc 1 424 0
	.set	noreorder
	.set	nomacro
	beq	$16,$0,$L102
	addiu	$3,$2,32
	.set	macro
	.set	reorder

$LBB75 = .
	.loc 1 426 0
	lwl	$4,0($16)
	lwr	$4,3($16)
	swl	$4,32($2)
	swr	$4,3($3)
	lbu	$4,4($16)
	sb	$4,4($3)
	lbu	$4,5($16)
	sb	$4,5($3)
$L102:
$LBE75 = .
	.loc 1 429 0
	li	$3,1			# 0x1
	sh	$3,54($2)
	.loc 1 433 0
	lw	$31,68($sp)
	lw	$23,64($sp)
$L129:
	lw	$22,60($sp)
	lw	$21,56($sp)
	lw	$20,52($sp)
	lw	$19,48($sp)
	lw	$18,44($sp)
	lw	$17,40($sp)
	lw	$16,36($sp)
	move	$2,$0
	.set	noreorder
	.set	nomacro
	j	$31
	addiu	$sp,$sp,72
	.set	macro
	.set	reorder

	.cfi_def_cfa_offset 0
	.cfi_restore 16
	.cfi_restore 17
	.cfi_restore 18
	.cfi_restore 19
	.cfi_restore 20
	.cfi_restore 21
	.cfi_restore 22
	.cfi_restore 23
	.cfi_restore 31
	.end	set_pppoe_info
	.cfi_endproc
$LFE3102:
	.size	set_pppoe_info, .-set_pppoe_info
	.align	2
$LFB3095 = .
	.loc 1 114 0
	.cfi_startproc
	.set	nomips16
	.ent	fastpath_pppoe_single_write
	.type	fastpath_pppoe_single_write, @function
fastpath_pppoe_single_write:
	.frame	$sp,16,$31		# vars= 8, regs= 1/0, args= 0, gp= 0
	.mask	0x80000000,-4
	.fmask	0x00000000,0
$LBB83 = .
$LBB84 = .
	.loc 1 63 0
	sltu	$4,$6,2
	.set	noreorder
	.set	nomacro
	beq	$4,$0,$L131
	move	$2,$6
	.set	macro
	.set	reorder

$LBE84 = .
$LBE83 = .
	.loc 1 64 0
	.set	noreorder
	.set	nomacro
	j	$31
	li	$2,-14			# 0xfffffffffffffff2
	.set	macro
	.set	reorder

$L133:
	.cfi_def_cfa_offset 16
	.cfi_offset 31, -4
	.set	noreorder
	.set	nomacro
	j	$L132
	li	$2,-14			# 0xfffffffffffffff2
	.set	macro
	.set	reorder

$L131:
	.cfi_def_cfa_offset 0
	.cfi_restore 31
$LBB91 = .
$LBB88 = .
	.loc 1 66 0
	.set	noreorder
	.set	nomacro
	beq	$5,$0,$L138
	addiu	$4,$5,1
	.set	macro
	.set	reorder

$LBE88 = .
$LBE91 = .
	.loc 1 114 0
	addiu	$sp,$sp,-16
	.cfi_def_cfa_offset 16
	sw	$31,12($sp)
	.cfi_offset 31, -4
$LBB92 = .
$LBB89 = .
$LBB85 = .
$LBB86 = .
	.loc 1 66 0
	or	$3,$4,$5
	lw	$4,24($28)
	and	$3,$3,$4
$LBE86 = .
	.set	noreorder
	.set	nomacro
	bne	$3,$0,$L133
	move	$4,$sp
	.set	macro
	.set	reorder

$LBB87 = .
	li	$6,1			# 0x1
#APP
 # 66 "/home/extra_home/marklee/rtk_OpenWRT_BB/BB_v1407/0629_co_2.4_pre_release/svn_test/rtk_BarrierBreaker_v14.07.x/build_dir/target-mips_24kec_uClibc-0.9.33.2/linux-rtkmips_rtl8198c/fastpath-0.1/fast_pppoe_core.c" 1
	.set	noreorder
	.set	noat
	la	$1, __copy_user
	jalr	$1
	.set	at
	.set	noat
	addu	$1, $5, $6
	.set	at
	.set	reorder
 # 0 "" 2
#NO_APP
$LBE87 = .
$LBE85 = .
	.set	noreorder
	.set	nomacro
	bne	$6,$0,$L133
	lb	$4,0($sp)
	.set	macro
	.set	reorder

	.loc 1 68 0
	lui	$3,%hi(fast_pppoe_fw)
	addiu	$4,$4,-48
	sw	$4,%lo(fast_pppoe_fw)($3)
$L132:
$LBE89 = .
$LBE92 = .
	.loc 1 116 0
	lw	$31,12($sp)
	.set	noreorder
	.set	nomacro
	j	$31
	addiu	$sp,$sp,16
	.set	macro
	.set	reorder

	.cfi_def_cfa_offset 0
	.cfi_restore 31
$L138:
$LBB93 = .
$LBB90 = .
	.loc 1 64 0
	li	$2,-14			# 0xfffffffffffffff2
$LBE90 = .
$LBE93 = .
	.loc 1 116 0
	j	$31
	.end	fastpath_pppoe_single_write
	.cfi_endproc
$LFE3095:
	.size	fastpath_pppoe_single_write, .-fastpath_pppoe_single_write
	.align	2
	.globl	check_and_pull_pppoe_hdr
$LFB3104 = .
	.loc 1 453 0
	.cfi_startproc
	.set	nomips16
	.ent	check_and_pull_pppoe_hdr
	.type	check_and_pull_pppoe_hdr, @function
check_and_pull_pppoe_hdr:
	.frame	$sp,48,$31		# vars= 0, regs= 8/0, args= 16, gp= 0
	.mask	0x807f0000,-4
	.fmask	0x00000000,0
	.set	noreorder
	.set	nomacro
	.loc 1 460 0
	lui	$2,%hi(fast_pppoe_fw)
	lw	$3,%lo(fast_pppoe_fw)($2)
	beq	$3,$0,$L162
	move	$2,$0

	.loc 1 453 0
	addiu	$sp,$sp,-48
	.cfi_def_cfa_offset 48
$LBB98 = .
$LBB99 = .
	.loc 1 466 0
	move	$5,$0
$LBE99 = .
$LBE98 = .
	.loc 1 453 0
	sw	$18,24($sp)
	.cfi_offset 18, -24
	move	$18,$4
	sw	$31,44($sp)
	sw	$19,28($sp)
	sw	$22,40($sp)
	sw	$21,36($sp)
	sw	$20,32($sp)
	sw	$17,20($sp)
	.cfi_offset 31, -4
	.cfi_offset 19, -20
	.cfi_offset 22, -8
	.cfi_offset 21, -12
	.cfi_offset 20, -16
	.cfi_offset 17, -28
	.cfi_offset 16, -32
$LBB107 = .
$LBB104 = .
	.loc 1 466 0
	jal	rtl_set_skb_pppoe_flag
	sw	$16,16($sp)

	.loc 1 468 0
	jal	rtl_skb_mac_header
	move	$4,$18

	.loc 1 469 0
	bne	$2,$0,$L142
	move	$19,$2

$L144:
$LBE104 = .
$LBE107 = .
	.loc 1 471 0
	j	$L141
	move	$2,$0

$L142:
$LBB108 = .
$LBB105 = .
	.loc 1 474 0
	lhu	$3,12($2)
	li	$2,34916			# 0x8864
	bne	$3,$2,$L141
	move	$2,$0

	.loc 1 475 0
	lhu	$3,20($19)
	li	$2,33			# 0x21
	bne	$3,$2,$L141
	move	$2,$0

	.loc 1 482 0
	lhu	$21,16($19)
	lui	$16,%hi(fast_pppoe_info+38)
	.loc 1 484 0
	addiu	$22,$19,6
	addiu	$16,$16,%lo(fast_pppoe_info+38)
$LBB100 = .
$LBB101 = .
	.loc 1 283 0
	move	$17,$0
	li	$20,16			# 0x10
$L147:
	.loc 1 285 0
	lhu	$3,16($16)
	beq	$3,$0,$L145
	nop

	.loc 1 290 0
	lhu	$2,14($16)
	bne	$2,$21,$L145
	move	$4,$16

	move	$5,$22
	jal	memcmp
	li	$6,6			# 0x6

	bne	$2,$0,$L163
	addiu	$17,$17,1

	addiu	$17,$17,-1
	.loc 1 292 0
	sll	$2,$17,2
	sll	$3,$17,4
	subu	$2,$3,$2
	subu	$2,$2,$17
	lui	$17,%hi(fast_pppoe_info)
	sll	$2,$2,3
	addiu	$17,$17,%lo(fast_pppoe_info)
	addu	$17,$17,$2
$LBE101 = .
$LBE100 = .
	.loc 1 485 0
	bne	$17,$0,$L159
	move	$2,$0

$LBE105 = .
$LBE108 = .
	.loc 1 516 0
	j	$L164
	lw	$31,44($sp)

$L145:
$LBB109 = .
$LBB106 = .
$LBB103 = .
$LBB102 = .
	.loc 1 283 0
	addiu	$17,$17,1
$L163:
	bne	$17,$20,$L147
	addiu	$16,$16,88

	j	$L141
	move	$2,$0

$L159:
$LBE102 = .
$LBE103 = .
	.loc 1 491 0
	jal	rtl_get_dev_by_name
	addiu	$4,$17,16

	.loc 1 492 0
	beq	$2,$0,$L144
	move	$16,$2

	.loc 1 498 0
	addiu	$19,$19,22
	move	$5,$19
	jal	rtl_set_skb_network_header
	move	$4,$18

	.loc 1 499 0
	move	$5,$19
	jal	rtl_set_skb_transport_header
	move	$4,$18

	.loc 1 500 0
	li	$5,8			# 0x8
	jal	rtl_skb_pull
	move	$4,$18

	.loc 1 501 0
	jal	rtl_get_skb_dev
	move	$4,$18

	move	$5,$2
	jal	rtl_set_skb_rx_dev
	move	$4,$18

	.loc 1 502 0
	move	$4,$18
	jal	rtl_set_skb_protocol
	li	$5,2048			# 0x800

	.loc 1 503 0
	move	$5,$16
	jal	rtl_set_skb_dev
	move	$4,$18

	.loc 1 504 0
	jal	rtl_get_skb_dev
	move	$4,$18

	lw	$3,128($2)
	.loc 1 505 0
	move	$4,$18
	.loc 1 504 0
	addiu	$3,$3,1
	.loc 1 505 0
	jal	rtl_get_skb_dev
	sw	$3,128($2)

	lw	$19,136($2)
	move	$4,$18
	jal	rtl_get_skb_len
	move	$16,$2

	addu	$2,$2,$19
	sw	$2,136($16)
	.loc 1 506 0
	move	$4,$18
	jal	rtl_set_skb_pppoe_flag
	li	$5,1			# 0x1

	.loc 1 507 0
	lui	$2,%hi(jiffies)
	lw	$3,%lo(jiffies)($2)
	.loc 1 514 0
	li	$2,1			# 0x1
	.loc 1 507 0
	sw	$3,56($17)
$L141:
$LBE106 = .
$LBE109 = .
	.loc 1 516 0
	lw	$31,44($sp)
$L164:
	lw	$22,40($sp)
	lw	$21,36($sp)
	lw	$20,32($sp)
	lw	$19,28($sp)
	lw	$18,24($sp)
	lw	$17,20($sp)
	lw	$16,16($sp)
	addiu	$sp,$sp,48
	.cfi_restore 16
	.cfi_restore 17
	.cfi_restore 18
	.cfi_restore 19
	.cfi_restore 20
	.cfi_restore 21
	.cfi_restore 22
	.cfi_restore 31
	.cfi_def_cfa_offset 0
$L162:
	j	$31
	nop

	.set	macro
	.set	reorder
	.end	check_and_pull_pppoe_hdr
	.cfi_endproc
$LFE3104:
	.size	check_and_pull_pppoe_hdr, .-check_and_pull_pppoe_hdr
	.align	2
	.globl	check_and_restore_pppoe_hdr
$LFB3105 = .
	.loc 1 521 0
	.cfi_startproc
	.set	nomips16
	.ent	check_and_restore_pppoe_hdr
	.type	check_and_restore_pppoe_hdr, @function
check_and_restore_pppoe_hdr:
	.frame	$sp,32,$31		# vars= 0, regs= 4/0, args= 16, gp= 0
	.mask	0x80070000,-4
	.fmask	0x00000000,0
	.set	noreorder
	.set	nomacro
	.loc 1 527 0
	lui	$2,%hi(fast_pppoe_fw)
	lw	$2,%lo(fast_pppoe_fw)($2)
	beq	$2,$0,$L174
	nop

	.loc 1 521 0
	addiu	$sp,$sp,-32
	.cfi_def_cfa_offset 32
	sw	$16,16($sp)
	sw	$31,28($sp)
	sw	$18,24($sp)
	sw	$17,20($sp)
	.cfi_offset 16, -16
	.cfi_offset 31, -4
	.cfi_offset 18, -8
	.cfi_offset 17, -12
	.loc 1 532 0
	jal	rtl_get_skb_pppoe_flag
	move	$16,$4

	beq	$2,$0,$L165
	lw	$31,28($sp)

$LBB112 = .
$LBB113 = .
	.loc 1 534 0
	move	$4,$16
	jal	rtl_skb_push
	li	$5,8			# 0x8

	.loc 1 535 0
	jal	rtl_get_skb_data
	move	$4,$16

	move	$5,$2
	jal	rtl_set_skb_network_header
	move	$4,$16

	.loc 1 536 0
	jal	rtl_get_skb_data
	move	$4,$16

	move	$5,$2
	jal	rtl_set_skb_transport_header
	move	$4,$16

	.loc 1 538 0
	jal	rtl_get_skb_dev
	move	$4,$16

	lw	$3,128($2)
	.loc 1 539 0
	move	$4,$16
	.loc 1 538 0
	addiu	$3,$3,-1
	.loc 1 539 0
	jal	rtl_get_skb_dev
	sw	$3,128($2)

	lw	$18,136($2)
	move	$4,$16
	jal	rtl_get_skb_len
	move	$17,$2

	subu	$2,$18,$2
	.loc 1 540 0
	move	$4,$16
	jal	rtl_get_skb_rx_dev
	sw	$2,136($17)

	move	$5,$2
	jal	rtl_set_skb_dev
	move	$4,$16

	.loc 1 541 0
	move	$4,$16
	jal	rtl_set_skb_protocol
	li	$5,34916			# 0x8864

$LBE113 = .
$LBE112 = .
	.loc 1 553 0
	lw	$31,28($sp)
	lw	$18,24($sp)
	lw	$17,20($sp)
$LBB116 = .
$LBB114 = .
	.loc 1 542 0
	move	$4,$16
$LBE114 = .
$LBE116 = .
	.loc 1 553 0
	lw	$16,16($sp)
$LBB117 = .
$LBB115 = .
	.loc 1 542 0
	move	$5,$0
	.cfi_remember_state
	.cfi_restore 16
	.cfi_restore 17
	.cfi_restore 18
	.cfi_restore 31
	j	rtl_set_skb_pppoe_flag
	addiu	$sp,$sp,32

	.cfi_def_cfa_offset 0
$L165:
	.cfi_restore_state
$LBE115 = .
$LBE117 = .
	.loc 1 553 0
	lw	$18,24($sp)
	lw	$17,20($sp)
	lw	$16,16($sp)
	addiu	$sp,$sp,32
	.cfi_restore 16
	.cfi_restore 17
	.cfi_restore 18
	.cfi_restore 31
	.cfi_def_cfa_offset 0
$L174:
	j	$31
	nop

	.set	macro
	.set	reorder
	.end	check_and_restore_pppoe_hdr
	.cfi_endproc
$LFE3105:
	.size	check_and_restore_pppoe_hdr, .-check_and_restore_pppoe_hdr
	.section	.rodata.str1.4
	.align	2
$LC4:
	.ascii	"ppp\000"
	.text
	.align	2
	.globl	fast_pppoe_xmit
$LFB3106 = .
	.loc 1 557 0
	.cfi_startproc
	.set	nomips16
	.ent	fast_pppoe_xmit
	.type	fast_pppoe_xmit, @function
fast_pppoe_xmit:
	.frame	$sp,56,$31		# vars= 0, regs= 5/0, args= 32, gp= 0
	.mask	0x800f0000,-4
	.fmask	0x00000000,0
	.loc 1 565 0
	lui	$2,%hi(fast_pppoe_fw)
	lw	$2,%lo(fast_pppoe_fw)($2)
	beq	$2,$0,$L201
	.loc 1 571 0
	lui	$2,%hi(gQosEnabled)
	lw	$2,%lo(gQosEnabled)($2)
	bne	$2,$0,$L201
	.loc 1 557 0
	addiu	$sp,$sp,-56
	.cfi_def_cfa_offset 56
	sw	$16,36($sp)
	sw	$31,52($sp)
	sw	$19,48($sp)
	sw	$18,44($sp)
	sw	$17,40($sp)
	.cfi_offset 16, -20
	.cfi_offset 31, -4
	.cfi_offset 19, -8
	.cfi_offset 18, -12
	.cfi_offset 17, -16
	.loc 1 577 0
	.set	noreorder
	.set	nomacro
	jal	rtl_get_skb_dev
	move	$16,$4
	.set	macro
	.set	reorder

	.set	noreorder
	.set	nomacro
	beq	$2,$0,$L177
	move	$2,$0
	.set	macro
	.set	reorder

	.loc 1 582 0
	.set	noreorder
	.set	nomacro
	jal	rtl_get_skb_dev
	move	$4,$16
	.set	macro
	.set	reorder

$LBB126 = .
$LBB127 = .
	.loc 2 108 0
	lui	$3,%hi($LC4)
	addiu	$3,$3,%lo($LC4)
	li	$4,3			# 0x3
#APP
 # 108 "/home/extra_home/marklee/rtk_OpenWRT_BB/BB_v1407/0629_co_2.4_pre_release/svn_test/rtk_BarrierBreaker_v14.07.x/build_dir/target-mips_24kec_uClibc-0.9.33.2/linux-rtkmips_rtl8198c/linux-3.10.49/arch/mips/include/asm/string.h" 1
	.set	noreorder
	.set	noat
1:	lbu	$5,($2)
	beqz	$4,2f
	lbu	$1,($3)
	subu	$4,1
	bne	$1,$5,3f
	addiu	$2,1
	bnez	$5,1b
	addiu	$3,1
2:
	move	$5,$1
3:	subu	$5,$1
	.set	at
	.set	reorder
 # 0 "" 2
#NO_APP
$LBE127 = .
$LBE126 = .
	.loc 1 582 0
	.set	noreorder
	.set	nomacro
	bne	$5,$0,$L177
	move	$2,$0
	.set	macro
	.set	reorder

$LBB128 = .
$LBB129 = .
	.loc 1 587 0
	.set	noreorder
	.set	nomacro
	jal	rtl_skb_headroom
	move	$4,$16
	.set	macro
	.set	reorder

	sltu	$2,$2,22
	beq	$2,$0,$L179
$L181:
$LBE129 = .
$LBE128 = .
	.loc 1 589 0
	.set	noreorder
	.set	nomacro
	j	$L177
	move	$2,$0
	.set	macro
	.set	reorder

$L179:
$LBB136 = .
$LBB135 = .
	.loc 1 587 0
	.set	noreorder
	.set	nomacro
	jal	rtl_skb_cloned
	move	$4,$16
	.set	macro
	.set	reorder

	.set	noreorder
	.set	nomacro
	bne	$2,$0,$L177
	move	$2,$0
	.set	macro
	.set	reorder

	.set	noreorder
	.set	nomacro
	jal	rtl_skb_shared
	move	$4,$16
	.set	macro
	.set	reorder

	.set	noreorder
	.set	nomacro
	bne	$2,$0,$L177
	move	$2,$0
	.set	macro
	.set	reorder

	.loc 1 592 0
	.set	noreorder
	.set	nomacro
	jal	rtl_get_skb_dev
	move	$4,$16
	.set	macro
	.set	reorder

	move	$4,$2
	sw	$0,16($sp)
	sw	$0,20($sp)
	sw	$0,24($sp)
	move	$5,$0
	move	$6,$0
	.set	noreorder
	.set	nomacro
	jal	find_pppoe_info
	move	$7,$0
	.set	macro
	.set	reorder

	.loc 1 594 0
	.set	noreorder
	.set	nomacro
	beq	$2,$0,$L181
	move	$17,$2
	.set	macro
	.set	reorder

	.loc 1 599 0
	lb	$2,16($2)
	.set	noreorder
	.set	nomacro
	beq	$2,$0,$L177
	move	$2,$0
	.set	macro
	.set	reorder

	lb	$2,0($17)
	.set	noreorder
	.set	nomacro
	beq	$2,$0,$L177
	move	$2,$0
	.set	macro
	.set	reorder

	.loc 1 600 0
	lhu	$2,52($17)
	.set	noreorder
	.set	nomacro
	beq	$2,$0,$L177
	move	$2,$0
	.set	macro
	.set	reorder

	.loc 1 607 0
	.set	noreorder
	.set	nomacro
	jal	rtl_get_skb_dev
	move	$4,$16
	.set	macro
	.set	reorder

	.loc 1 609 0
	.set	noreorder
	.set	nomacro
	jal	rtl_get_skb_len
	move	$4,$16
	.set	macro
	.set	reorder

	.loc 1 611 0
	move	$4,$17
	.set	noreorder
	.set	nomacro
	jal	rtl_get_dev_by_name
	move	$19,$2
	.set	macro
	.set	reorder

	.loc 1 612 0
	.set	noreorder
	.set	nomacro
	beq	$2,$0,$L181
	move	$18,$2
	.set	macro
	.set	reorder

	.loc 1 617 0
	li	$5,2			# 0x2
	.set	noreorder
	.set	nomacro
	jal	rtl_skb_push
	move	$4,$16
	.set	macro
	.set	reorder

	.loc 1 618 0
	.set	noreorder
	.set	nomacro
	jal	rtl_get_skb_data
	move	$4,$16
	.set	macro
	.set	reorder

	li	$3,33			# 0x21
	sh	$3,0($2)
	.loc 1 620 0
	li	$5,6			# 0x6
	.set	noreorder
	.set	nomacro
	jal	rtl_skb_push
	move	$4,$16
	.set	macro
	.set	reorder

	.loc 1 621 0
	.set	noreorder
	.set	nomacro
	jal	rtl_get_skb_data
	move	$4,$16
	.set	macro
	.set	reorder

	.loc 1 622 0
	lbu	$4,0($2)
	li	$5,1			# 0x1
	.loc 1 624 0
	sb	$0,1($2)
	.loc 1 622 0
	ins	$4,$5,4,4
	.loc 1 623 0
	ins	$4,$5,0,4
	sb	$4,0($2)
	.loc 1 625 0
	lhu	$4,52($17)
	.loc 1 621 0
	move	$3,$2
	.loc 1 626 0
	addiu	$2,$19,2
	andi	$2,$2,0xffff
	.loc 1 625 0
	srl	$7,$4,8
	.loc 1 626 0
	srl	$6,$2,8
	.loc 1 625 0
	sb	$7,2($3)
	.loc 1 626 0
	sb	$6,4($3)
	.loc 1 625 0
	sb	$4,3($3)
	.loc 1 626 0
	sb	$2,5($3)
	.loc 1 627 0
	move	$5,$18
	.set	noreorder
	.set	nomacro
	jal	rtl_set_skb_dev
	move	$4,$16
	.set	macro
	.set	reorder

	.loc 1 630 0
	li	$5,2			# 0x2
	.set	noreorder
	.set	nomacro
	jal	rtl_skb_push
	move	$4,$16
	.set	macro
	.set	reorder

	.loc 1 631 0
	.set	noreorder
	.set	nomacro
	jal	rtl_get_skb_data
	move	$4,$16
	.set	macro
	.set	reorder

	li	$3,-30620			# 0xffffffffffff8864
	sh	$3,0($2)
	.loc 1 633 0
	li	$5,12			# 0xc
	.set	noreorder
	.set	nomacro
	jal	rtl_skb_push
	move	$4,$16
	.set	macro
	.set	reorder

$LBB130 = .
	.loc 1 635 0
	.set	noreorder
	.set	nomacro
	jal	rtl_get_skb_data
	move	$4,$16
	.set	macro
	.set	reorder

	addiu	$3,$17,38
	lwl	$6,0($3)
$LBE130 = .
$LBB131 = .
	.loc 1 636 0
	move	$4,$16
$LBE131 = .
$LBB132 = .
	.loc 1 635 0
	lwr	$6,3($3)
	swl	$6,0($2)
	swr	$6,3($2)
	lbu	$5,4($3)
	sb	$5,4($2)
	lbu	$3,5($3)
$LBE132 = .
$LBB133 = .
	.loc 1 636 0
	.set	noreorder
	.set	nomacro
	jal	rtl_get_skb_data
	sb	$3,5($2)
	.set	macro
	.set	reorder

	lw	$3,400($18)
	addiu	$5,$2,6
$LBE133 = .
	.loc 1 638 0
	move	$4,$16
$LBB134 = .
	.loc 1 636 0
	lwl	$6,0($3)
	lwr	$6,3($3)
	swl	$6,6($2)
	swr	$6,3($5)
	lbu	$2,4($3)
	sb	$2,4($5)
	lbu	$2,5($3)
$LBE134 = .
	.loc 1 638 0
	.set	noreorder
	.set	nomacro
	jal	ip_finish_output4
	sb	$2,5($5)
	.set	macro
	.set	reorder

	.loc 1 639 0
	lui	$2,%hi(jiffies)
	lw	$3,%lo(jiffies)($2)
	.loc 1 644 0
	li	$2,1			# 0x1
	.loc 1 639 0
	sw	$3,60($17)
$L177:
$LBE135 = .
$LBE136 = .
	.loc 1 646 0
	lw	$31,52($sp)
	lw	$19,48($sp)
	lw	$18,44($sp)
	lw	$17,40($sp)
	lw	$16,36($sp)
	.set	noreorder
	.set	nomacro
	j	$31
	addiu	$sp,$sp,56
	.set	macro
	.set	reorder

	.cfi_def_cfa_offset 0
	.cfi_restore 16
	.cfi_restore 17
	.cfi_restore 18
	.cfi_restore 19
	.cfi_restore 31
$L201:
	.set	noreorder
	.set	nomacro
	j	$31
	move	$2,$0
	.set	macro
	.set	reorder

	.end	fast_pppoe_xmit
	.cfi_endproc
$LFE3106:
	.size	fast_pppoe_xmit, .-fast_pppoe_xmit
	.section	___ksymtab+fast_pppoe_xmit,"a",@progbits
	.align	2
	.type	__ksymtab_fast_pppoe_xmit, @object
	.size	__ksymtab_fast_pppoe_xmit, 8
__ksymtab_fast_pppoe_xmit:
	.word	fast_pppoe_xmit
	.word	__kstrtab_fast_pppoe_xmit
	.section	__ksymtab_strings,"a",@progbits
	.type	__kstrtab_fast_pppoe_xmit, @object
	.size	__kstrtab_fast_pppoe_xmit, 16
__kstrtab_fast_pppoe_xmit:
	.ascii	"fast_pppoe_xmit\000"
	.section	___ksymtab+check_and_restore_pppoe_hdr,"a",@progbits
	.align	2
	.type	__ksymtab_check_and_restore_pppoe_hdr, @object
	.size	__ksymtab_check_and_restore_pppoe_hdr, 8
__ksymtab_check_and_restore_pppoe_hdr:
	.word	check_and_restore_pppoe_hdr
	.word	__kstrtab_check_and_restore_pppoe_hdr
	.section	__ksymtab_strings
	.type	__kstrtab_check_and_restore_pppoe_hdr, @object
	.size	__kstrtab_check_and_restore_pppoe_hdr, 28
__kstrtab_check_and_restore_pppoe_hdr:
	.ascii	"check_and_restore_pppoe_hdr\000"
	.section	___ksymtab+check_and_pull_pppoe_hdr,"a",@progbits
	.align	2
	.type	__ksymtab_check_and_pull_pppoe_hdr, @object
	.size	__ksymtab_check_and_pull_pppoe_hdr, 8
__ksymtab_check_and_pull_pppoe_hdr:
	.word	check_and_pull_pppoe_hdr
	.word	__kstrtab_check_and_pull_pppoe_hdr
	.section	__ksymtab_strings
	.type	__kstrtab_check_and_pull_pppoe_hdr, @object
	.size	__kstrtab_check_and_pull_pppoe_hdr, 25
__kstrtab_check_and_pull_pppoe_hdr:
	.ascii	"check_and_pull_pppoe_hdr\000"
	.section	___ksymtab+fast_pppoe_exit,"a",@progbits
	.align	2
	.type	__ksymtab_fast_pppoe_exit, @object
	.size	__ksymtab_fast_pppoe_exit, 8
__ksymtab_fast_pppoe_exit:
	.word	fast_pppoe_exit
	.word	__kstrtab_fast_pppoe_exit
	.section	__ksymtab_strings
	.type	__kstrtab_fast_pppoe_exit, @object
	.size	__kstrtab_fast_pppoe_exit, 16
__kstrtab_fast_pppoe_exit:
	.ascii	"fast_pppoe_exit\000"
	.section	___ksymtab+fast_pppoe_init,"a",@progbits
	.align	2
	.type	__ksymtab_fast_pppoe_init, @object
	.size	__ksymtab_fast_pppoe_init, 8
__ksymtab_fast_pppoe_init:
	.word	fast_pppoe_init
	.word	__kstrtab_fast_pppoe_init
	.section	__ksymtab_strings
	.type	__kstrtab_fast_pppoe_init, @object
	.size	__kstrtab_fast_pppoe_init, 16
__kstrtab_fast_pppoe_init:
	.ascii	"fast_pppoe_init\000"
	.globl	fastpath_pppoe_proc_fops
	.data
	.align	2
	.type	fastpath_pppoe_proc_fops, @object
	.size	fastpath_pppoe_proc_fops, 108
fastpath_pppoe_proc_fops:
	.space	4
	.word	seq_lseek
	.word	seq_read
	.word	fastpath_pppoe_single_write
	.space	28
	.word	fastpath_pppoe_single_open
	.space	4
	.word	single_release
	.space	52
	.globl	fast_pppoe_proc
	.section	.bss,"aw",@nobits
	.align	2
	.type	fast_pppoe_proc, @object
	.size	fast_pppoe_proc, 4
fast_pppoe_proc:
	.space	4
	.globl	fast_pppoe_info
	.align	2
	.type	fast_pppoe_info, @object
	.size	fast_pppoe_info, 1408
fast_pppoe_info:
	.space	1408
	.text
$Letext0:
	.file 3 "include/uapi/asm-generic/int-ll64.h"
	.file 4 "include/asm-generic/int-ll64.h"
	.file 5 "/home/extra_home/marklee/rtk_OpenWRT_BB/BB_v1407/0629_co_2.4_pre_release/svn_test/rtk_BarrierBreaker_v14.07.x/build_dir/target-mips_24kec_uClibc-0.9.33.2/linux-rtkmips_rtl8198c/linux-3.10.49/include/uapi/asm-generic/posix_types.h"
	.file 6 "include/uapi/linux/types.h"
	.file 7 "include/linux/types.h"
	.file 8 "include/asm-generic/atomic-long.h"
	.file 9 "/home/extra_home/marklee/rtk_OpenWRT_BB/BB_v1407/0629_co_2.4_pre_release/svn_test/rtk_BarrierBreaker_v14.07.x/build_dir/target-mips_24kec_uClibc-0.9.33.2/linux-rtkmips_rtl8198c/linux-3.10.49/arch/mips/include/asm/page.h"
	.file 10 "include/uapi/linux/if_link.h"
	.file 11 "include/uapi/linux/rtnetlink.h"
	.file 12 "include/net/ndisc.h"
	.file 13 "/home/extra_home/marklee/rtk_OpenWRT_BB/BB_v1407/0629_co_2.4_pre_release/svn_test/rtk_BarrierBreaker_v14.07.x/build_dir/target-mips_24kec_uClibc-0.9.33.2/linux-rtkmips_rtl8198c/linux-3.10.49/arch/mips/include/asm/thread_info.h"
	.file 14 "include/net/inet_frag.h"
	.file 15 "include/linux/etherdevice.h"
	.file 16 "include/linux/export.h"
	.file 17 "/home/extra_home/marklee/rtk_OpenWRT_BB/BB_v1407/0629_co_2.4_pre_release/svn_test/rtk_BarrierBreaker_v14.07.x/build_dir/target-mips_24kec_uClibc-0.9.33.2/linux-rtkmips_rtl8198c/linux-3.10.49/arch/mips/include/asm/cpu-info.h"
	.file 18 "include/linux/printk.h"
	.file 19 "include/linux/kernel.h"
	.file 20 "include/linux/cpumask.h"
	.file 21 "include/linux/time.h"
	.file 22 "include/linux/highuid.h"
	.file 23 "include/linux/seq_file.h"
	.file 24 "/home/extra_home/marklee/rtk_OpenWRT_BB/BB_v1407/0629_co_2.4_pre_release/svn_test/rtk_BarrierBreaker_v14.07.x/build_dir/target-mips_24kec_uClibc-0.9.33.2/linux-rtkmips_rtl8198c/linux-3.10.49/arch/mips/include/asm/io.h"
	.file 25 "include/linux/mm.h"
	.file 26 "include/linux/mmzone.h"
	.file 27 "include/linux/jiffies.h"
	.file 28 "include/linux/workqueue.h"
	.file 29 "/home/extra_home/marklee/rtk_OpenWRT_BB/BB_v1407/0629_co_2.4_pre_release/svn_test/rtk_BarrierBreaker_v14.07.x/build_dir/target-mips_24kec_uClibc-0.9.33.2/linux-rtkmips_rtl8198c/linux-3.10.49/arch/mips/include/asm/smp.h"
	.file 30 "/home/extra_home/marklee/rtk_OpenWRT_BB/BB_v1407/0629_co_2.4_pre_release/svn_test/rtk_BarrierBreaker_v14.07.x/build_dir/target-mips_24kec_uClibc-0.9.33.2/linux-rtkmips_rtl8198c/linux-3.10.49/arch/mips/include/asm/smp-ops.h"
	.file 31 "include/asm-generic/percpu.h"
	.file 32 "include/linux/sched.h"
	.file 33 "include/linux/percpu_counter.h"
	.file 34 "include/linux/quota.h"
	.file 35 "include/linux/interrupt.h"
	.file 36 "include/linux/kernel_stat.h"
	.file 37 "include/linux/slab.h"
	.file 38 "include/linux/ioport.h"
	.file 39 "include/linux/debug_locks.h"
	.file 40 "/home/extra_home/marklee/rtk_OpenWRT_BB/BB_v1407/0629_co_2.4_pre_release/svn_test/rtk_BarrierBreaker_v14.07.x/build_dir/target-mips_24kec_uClibc-0.9.33.2/linux-rtkmips_rtl8198c/linux-3.10.49/arch/mips/include/asm/pgtable-32.h"
	.file 41 "/home/extra_home/marklee/rtk_OpenWRT_BB/BB_v1407/0629_co_2.4_pre_release/svn_test/rtk_BarrierBreaker_v14.07.x/build_dir/target-mips_24kec_uClibc-0.9.33.2/linux-rtkmips_rtl8198c/linux-3.10.49/arch/mips/include/asm/pgtable.h"
	.file 42 "include/asm-generic/pgtable.h"
	.file 43 "include/linux/vmstat.h"
	.file 44 "include/linux/netfilter.h"
	.file 45 "include/net/net_namespace.h"
	.file 46 "include/linux/netdevice.h"
	.file 47 "include/net/sock.h"
	.file 48 "include/net/inet_sock.h"
	.file 49 "include/net/ip.h"
	.file 50 "include/net/inet_connection_sock.h"
	.file 51 "include/net/route.h"
	.file 52 "include/net/arp.h"
	.file 53 "include/net/rtl/fastpath/fastpath_core.h"