	.section .mdebug.abi32
	.previous
	.gnu_attribute 4, 3
	.text
$Ltext0:
	.cfi_sections	.debug_frame
	.align	2
$LFB3191 = .
	.file 1 "/home/extra_home/marklee/rtk_OpenWRT_BB/BB_v1407/0629_co_2.4_pre_release/svn_test/rtk_BarrierBreaker_v14.07.x/build_dir/target-mips_24kec_uClibc-0.9.33.2/linux-rtkmips_rtl8198c/fastpath-0.1/fastpath_core.c"
	.loc 1 376 0
	.cfi_startproc
	.set	nomips16
	.ent	cache_timeout
	.type	cache_timeout, @function
cache_timeout:
	.frame	$sp,32,$31		# vars= 0, regs= 4/0, args= 16, gp= 0
	.mask	0x80070000,-4
	.fmask	0x00000000,0
	addiu	$sp,$sp,-32
	.cfi_def_cfa_offset 32
	sw	$16,16($sp)
	sw	$31,28($sp)
	sw	$18,24($sp)
	sw	$17,20($sp)
	.cfi_offset 16, -16
	.cfi_offset 31, -4
	.cfi_offset 18, -8
	.cfi_offset 17, -12
	.loc 1 379 0
	lbu	$2,0($4)
	.set	noreorder
	.set	nomacro
	beq	$2,$0,$L1
	move	$16,$4
	.set	macro
	.set	reorder

$LBB835 = .
$LBB836 = .
$LBB837 = .
$LBB838 = .
	.loc 1 353 0
	lw	$4,8($4)
	lw	$3,4($16)
	.loc 1 355 0
	lhu	$2,2($16)
	.loc 1 356 0
	lbu	$18,1($16)
	.loc 1 353 0
	xor	$3,$4,$3
	.loc 1 355 0
	srl	$4,$3,16
	xor	$2,$2,$3
	.loc 1 357 0
	lui	$3,%hi(max_udp_frag_entry)
	lw	$5,%lo(max_udp_frag_entry)($3)
$LBE838 = .
$LBE837 = .
	.loc 1 364 0
	lui	$17,%hi(udp_cache_table)
$LBB841 = .
$LBB839 = .
	.loc 1 355 0
	xor	$2,$2,$4
$LBE839 = .
$LBE841 = .
$LBB842 = .
$LBB843 = .
	.file 2 "include/linux/spinlock.h"
	.loc 2 293 0
	lw	$4,%lo(udp_cache_table)($17)
$LBE843 = .
$LBE842 = .
$LBB845 = .
$LBB840 = .
	.loc 1 356 0
	srl	$3,$2,8
	xor	$18,$2,$18
	xor	$18,$18,$3
	.loc 1 357 0
	addiu	$3,$5,-1
$LBE840 = .
$LBE845 = .
$LBB846 = .
$LBB844 = .
	.loc 2 293 0
	.set	noreorder
	.set	nomacro
	jal	_raw_spin_lock
	and	$18,$18,$3
	.set	macro
	.set	reorder

$LBE844 = .
$LBE846 = .
	.loc 1 368 0
	lw	$2,44($16)
	.set	noreorder
	.set	nomacro
	beq	$2,$0,$L3
	sb	$0,0($16)
	.set	macro
	.set	reorder

	lw	$4,48($16)
	sll	$3,$18,2
	sll	$18,$18,4
	sw	$4,48($2)
	.set	noreorder
	.set	nomacro
	j	$L4
	subu	$18,$18,$3
	.set	macro
	.set	reorder

$L3:
	lw	$2,%lo(udp_cache_table)($17)
	sll	$4,$18,2
	lw	$3,48($16)
	lw	$2,4($2)
	sll	$18,$18,4
	subu	$18,$18,$4
	addu	$2,$2,$18
	sw	$3,4($2)
$L4:
	lw	$3,48($16)
	lw	$4,44($16)
	.loc 1 369 0
	lui	$2,%hi(udp_cache_list_free)
	addiu	$2,$2,%lo(udp_cache_list_free)
	.loc 1 368 0
	sw	$4,0($3)
	lw	$4,%lo(udp_cache_table)($17)
	.loc 1 369 0
	lw	$3,4($2)
	addiu	$5,$16,52
	.loc 1 368 0
	lw	$4,4($4)
	addu	$18,$4,$18
	lw	$4,8($18)
	addiu	$4,$4,-1
	sw	$4,8($18)
	.loc 1 369 0
	sw	$3,56($16)
	sw	$0,52($16)
	sw	$16,0($3)
	lw	$4,8($2)
	.loc 1 371 0
	lw	$3,%lo(udp_cache_table)($17)
	.loc 1 369 0
	sw	$5,4($2)
	addiu	$4,$4,1
	sw	$4,8($2)
$LBB847 = .
$LBB848 = .
$LBB849 = .
$LBB850 = .
$LBB851 = .
$LBB852 = .
	.file 3 "/home/extra_home/marklee/rtk_OpenWRT_BB/BB_v1407/0629_co_2.4_pre_release/svn_test/rtk_BarrierBreaker_v14.07.x/build_dir/target-mips_24kec_uClibc-0.9.33.2/linux-rtkmips_rtl8198c/linux-3.10.49/arch/mips/include/asm/spinlock.h"
	.loc 3 136 0
	lhu	$2,2($3)
	addiu	$2,$2,1
	.loc 3 137 0
#APP
 # 137 "/home/extra_home/marklee/rtk_OpenWRT_BB/BB_v1407/0629_co_2.4_pre_release/svn_test/rtk_BarrierBreaker_v14.07.x/build_dir/target-mips_24kec_uClibc-0.9.33.2/linux-rtkmips_rtl8198c/linux-3.10.49/arch/mips/include/asm/spinlock.h" 1
	.set	push
	.set	noreorder
	.set	mips2
	sync
	.set	pop
 # 0 "" 2
	.loc 3 138 0
#NO_APP
	sh	$2,2($3)
	.loc 3 139 0
#APP
 # 139 "/home/extra_home/marklee/rtk_OpenWRT_BB/BB_v1407/0629_co_2.4_pre_release/svn_test/rtk_BarrierBreaker_v14.07.x/build_dir/target-mips_24kec_uClibc-0.9.33.2/linux-rtkmips_rtl8198c/linux-3.10.49/arch/mips/include/asm/spinlock.h" 1
	.set	push
	.set	noreorder
	.set	mips2
	sync
	.set	pop
 # 0 "" 2
#NO_APP
$LBE852 = .
$LBE851 = .
$LBE850 = .
	.file 4 "include/linux/spinlock_api_smp.h"
	.loc 4 153 0
$L1:
$LBE849 = .
$LBE848 = .
$LBE847 = .
$LBE836 = .
$LBE835 = .
	.loc 1 385 0
	lw	$31,28($sp)
	lw	$18,24($sp)
	lw	$17,20($sp)
	lw	$16,16($sp)
	.set	noreorder
	.set	nomacro
	j	$31
	addiu	$sp,$sp,32
	.set	macro
	.set	reorder

	.cfi_def_cfa_offset 0
	.cfi_restore 16
	.cfi_restore 17
	.cfi_restore 18
	.cfi_restore 31
	.end	cache_timeout
	.cfi_endproc
$LFE3191:
	.size	cache_timeout, .-cache_timeout
	.align	2
$LFB3197 = .
	.loc 1 516 0
	.cfi_startproc
	.set	nomips16
	.ent	negative_cache_timeout
	.type	negative_cache_timeout, @function
negative_cache_timeout:
	.frame	$sp,32,$31		# vars= 0, regs= 4/0, args= 16, gp= 0
	.mask	0x80070000,-4
	.fmask	0x00000000,0
	addiu	$sp,$sp,-32
	.cfi_def_cfa_offset 32
	sw	$17,20($sp)
	sw	$16,16($sp)
	sw	$31,28($sp)
	.cfi_offset 17, -12
	.cfi_offset 16, -16
	.cfi_offset 31, -4
	move	$16,$4
	sw	$18,24($sp)
	.cfi_offset 18, -8
$LBB853 = .
$LBB854 = .
$LBB855 = .
$LBB856 = .
	.loc 1 353 0
	lw	$4,8($4)
	lw	$3,4($16)
	.loc 1 355 0
	lhu	$2,2($16)
	.loc 1 356 0
	lbu	$18,1($16)
	.loc 1 353 0
	xor	$3,$4,$3
	.loc 1 355 0
	srl	$4,$3,16
	xor	$2,$2,$3
	.loc 1 357 0
	lui	$3,%hi(max_udp_frag_entry)
	lw	$5,%lo(max_udp_frag_entry)($3)
$LBE856 = .
$LBE855 = .
	.loc 1 505 0
	lui	$17,%hi(negative_cache_table)
$LBB859 = .
$LBB857 = .
	.loc 1 355 0
	xor	$2,$2,$4
$LBE857 = .
$LBE859 = .
$LBB860 = .
$LBB861 = .
	.loc 2 293 0
	lw	$4,%lo(negative_cache_table)($17)
$LBE861 = .
$LBE860 = .
$LBB863 = .
$LBB858 = .
	.loc 1 356 0
	srl	$3,$2,8
	xor	$18,$2,$18
	xor	$18,$18,$3
	.loc 1 357 0
	addiu	$3,$5,-1
$LBE858 = .
$LBE863 = .
$LBB864 = .
$LBB862 = .
	.loc 2 293 0
	.set	noreorder
	.set	nomacro
	jal	_raw_spin_lock
	and	$18,$18,$3
	.set	macro
	.set	reorder

$LBE862 = .
$LBE864 = .
	.loc 1 508 0
	lw	$3,40($16)
	.set	noreorder
	.set	nomacro
	beq	$3,$0,$L11
	sb	$0,0($16)
	.set	macro
	.set	reorder

	lw	$2,44($16)
	sll	$5,$18,2
	sll	$18,$18,4
$LBE854 = .
$LBE853 = .
	.set	noreorder
	.set	nomacro
	j	$L12
	sw	$2,44($3)
	.set	macro
	.set	reorder

$L11:
$LBB872 = .
$LBB871 = .
	lw	$4,%lo(negative_cache_table)($17)
	sll	$5,$18,2
	lw	$3,44($16)
	sll	$18,$18,4
	subu	$2,$18,$5
	addu	$2,$4,$2
	sw	$3,8($2)
$L12:
	lw	$2,44($16)
	lw	$3,40($16)
	subu	$18,$18,$5
	.loc 1 509 0
	addiu	$5,$16,48
	.loc 1 508 0
	sw	$3,0($2)
	lw	$4,%lo(negative_cache_table)($17)
	.loc 1 509 0
	lui	$2,%hi(negative_cache_list_free)
	addiu	$2,$2,%lo(negative_cache_list_free)
	.loc 1 508 0
	addu	$4,$4,$18
	lw	$6,12($4)
	.loc 1 509 0
	lw	$3,4($2)
	.loc 1 508 0
	addiu	$6,$6,-1
	sw	$6,12($4)
	.loc 1 509 0
	sw	$3,52($16)
	sw	$0,48($16)
	sw	$16,0($3)
	lw	$4,8($2)
	.loc 1 511 0
	lw	$3,%lo(negative_cache_table)($17)
	.loc 1 509 0
	sw	$5,4($2)
	addiu	$4,$4,1
	sw	$4,8($2)
$LBB865 = .
$LBB866 = .
$LBB867 = .
$LBB868 = .
$LBB869 = .
$LBB870 = .
	.loc 3 136 0
	lhu	$2,2($3)
	addiu	$2,$2,1
	.loc 3 137 0
#APP
 # 137 "/home/extra_home/marklee/rtk_OpenWRT_BB/BB_v1407/0629_co_2.4_pre_release/svn_test/rtk_BarrierBreaker_v14.07.x/build_dir/target-mips_24kec_uClibc-0.9.33.2/linux-rtkmips_rtl8198c/linux-3.10.49/arch/mips/include/asm/spinlock.h" 1
	.set	push
	.set	noreorder
	.set	mips2
	sync
	.set	pop
 # 0 "" 2
	.loc 3 138 0
#NO_APP
	sh	$2,2($3)
	.loc 3 139 0
#APP
 # 139 "/home/extra_home/marklee/rtk_OpenWRT_BB/BB_v1407/0629_co_2.4_pre_release/svn_test/rtk_BarrierBreaker_v14.07.x/build_dir/target-mips_24kec_uClibc-0.9.33.2/linux-rtkmips_rtl8198c/linux-3.10.49/arch/mips/include/asm/spinlock.h" 1
	.set	push
	.set	noreorder
	.set	mips2
	sync
	.set	pop
 # 0 "" 2
#NO_APP
$LBE870 = .
$LBE869 = .
$LBE868 = .
	.loc 4 153 0
$LBE867 = .
$LBE866 = .
$LBE865 = .
$LBE871 = .
$LBE872 = .
	.loc 1 520 0
	lw	$31,28($sp)
	lw	$18,24($sp)
	lw	$17,20($sp)
	lw	$16,16($sp)
	.set	noreorder
	.set	nomacro
	j	$31
	addiu	$sp,$sp,32
	.set	macro
	.set	reorder

	.cfi_def_cfa_offset 0
	.cfi_restore 16
	.cfi_restore 17
	.cfi_restore 18
	.cfi_restore 31
	.end	negative_cache_timeout
	.cfi_endproc
$LFE3197:
	.size	negative_cache_timeout, .-negative_cache_timeout
	.align	2
	.globl	udp_fragCache_init
$LFB3193 = .
	.loc 1 394 0
	.cfi_startproc
	.set	nomips16
	.ent	udp_fragCache_init
	.type	udp_fragCache_init, @function
udp_fragCache_init:
	.frame	$sp,48,$31		# vars= 0, regs= 8/0, args= 16, gp= 0
	.mask	0x807f0000,-4
	.fmask	0x00000000,0
	.set	noreorder
	.set	nomacro
	addiu	$sp,$sp,-48
	.cfi_def_cfa_offset 48
	sw	$21,36($sp)
	.cfi_offset 21, -12
$LBB873 = .
$LBB874 = .
	.file 5 "include/linux/slub_def.h"
	.loc 5 170 0
	lui	$21,%hi(kmalloc_caches)
	addiu	$21,$21,%lo(kmalloc_caches)
$LBE874 = .
$LBE873 = .
	.loc 1 394 0
	sw	$19,28($sp)
	.cfi_offset 19, -20
	move	$19,$4
$LBB881 = .
$LBB879 = .
$LBB875 = .
$LBB876 = .
	.loc 5 142 0
	lw	$4,28($21)
	li	$5,32			# 0x20
$LBE876 = .
$LBE875 = .
$LBE879 = .
$LBE881 = .
	.loc 1 394 0
	sw	$20,32($sp)
	sw	$16,16($sp)
	sw	$31,44($sp)
	sw	$22,40($sp)
	sw	$18,24($sp)
	sw	$17,20($sp)
	.cfi_offset 20, -16
	.cfi_offset 16, -32
	.cfi_offset 31, -4
	.cfi_offset 22, -8
	.cfi_offset 18, -24
	.cfi_offset 17, -28
$LBB882 = .
$LBB880 = .
$LBB878 = .
$LBB877 = .
	.loc 5 142 0
	jal	kmem_cache_alloc
	lui	$20,%hi(udp_cache_table)

	move	$16,$2
$LBE877 = .
$LBE878 = .
$LBE880 = .
$LBE882 = .
	.loc 1 397 0
	bne	$2,$0,$L15
	sw	$2,%lo(udp_cache_table)($20)

$L20:
	.loc 1 399 0
	j	$L16
	move	$2,$0

$L15:
	.loc 1 401 0
	lui	$2,%hi(udp_cache_list_free)
	.loc 1 404 0
	sll	$3,$19,2
	sll	$4,$19,4
	.loc 1 401 0
	addiu	$17,$2,%lo(udp_cache_list_free)
$LBB883 = .
$LBB884 = .
	.loc 5 174 0
	subu	$4,$4,$3
$LBE884 = .
$LBE883 = .
	.loc 1 401 0
	sw	$0,%lo(udp_cache_list_free)($2)
$LBB887 = .
$LBB885 = .
	.loc 5 174 0
	li	$5,32			# 0x20
$LBE885 = .
$LBE887 = .
	.loc 1 403 0
	lui	$2,%hi(max_udp_frag_entry)
	.loc 1 401 0
	sw	$0,8($17)
	sw	$17,4($17)
$LBB888 = .
$LBB886 = .
	.loc 5 174 0
	jal	__kmalloc
	sw	$19,%lo(max_udp_frag_entry)($2)

$LBE886 = .
$LBE888 = .
	.loc 1 405 0
	lw	$3,%lo(udp_cache_table)($20)
	.loc 1 404 0
	sw	$2,4($16)
	.loc 1 405 0
	lw	$2,4($3)
	beq	$2,$0,$L22
	move	$2,$0

	j	$L17
	move	$3,$0

$L18:
	.loc 1 409 0 discriminator 2
	addiu	$3,$3,1
	.loc 1 410 0 discriminator 2
	lw	$5,4($4)
	addu	$5,$5,$2
	sw	$0,8($5)
	lw	$4,4($4)
	addu	$4,$4,$2
	sw	$0,0($4)
	lw	$4,%lo(udp_cache_table)($20)
	lw	$4,4($4)
	addu	$4,$4,$2
	sw	$4,4($4)
	addiu	$2,$2,12
$L17:
	.loc 1 409 0 discriminator 1
	slt	$4,$3,$19
	bne	$4,$0,$L18
	lw	$4,%lo(udp_cache_table)($20)

$LBB889 = .
	.loc 1 421 0
	lui	$22,%hi(cache_timeout)
$LBE889 = .
	.loc 1 409 0
	move	$18,$0
	.loc 1 421 0
	j	$L19
	addiu	$22,$22,%lo(cache_timeout)

$L21:
$LBB894 = .
$LBB890 = .
$LBB891 = .
$LBB892 = .
$LBB893 = .
	.loc 5 142 0
	lw	$4,28($21)
	jal	kmem_cache_alloc
	addiu	$18,$18,1

	move	$16,$2
$LBE893 = .
$LBE892 = .
$LBE891 = .
$LBE890 = .
	.loc 1 419 0
	addiu	$4,$2,16
	move	$5,$0
	move	$6,$0
	.loc 1 414 0
	beq	$2,$0,$L20
	move	$7,$0

	.loc 1 419 0
	jal	init_timer_key
	nop

	.loc 1 422 0
	lw	$2,4($17)
	.loc 1 421 0
	sw	$22,32($16)
	.loc 1 422 0
	sw	$0,52($16)
	sw	$2,56($16)
	.loc 1 420 0
	sw	$16,36($16)
	.loc 1 422 0
	sw	$16,0($2)
	lw	$2,8($17)
	addiu	$16,$16,52
	sw	$16,4($17)
	addiu	$2,$2,1
	sw	$2,8($17)
$L19:
$LBE894 = .
	.loc 1 412 0 discriminator 1
	slt	$2,$18,$19
	bne	$2,$0,$L21
	li	$5,32			# 0x20

	.loc 1 425 0
	lw	$3,%lo(udp_cache_table)($20)
	.loc 1 427 0
	li	$2,1			# 0x1
	j	$L16
	sw	$0,0($3)

$L22:
	.loc 1 407 0
	li	$2,-1			# 0xffffffffffffffff
$L16:
	.loc 1 428 0
	lw	$31,44($sp)
	lw	$22,40($sp)
	lw	$21,36($sp)
	lw	$20,32($sp)
	lw	$19,28($sp)
	lw	$18,24($sp)
	lw	$17,20($sp)
	lw	$16,16($sp)
	j	$31
	addiu	$sp,$sp,48

	.cfi_def_cfa_offset 0
	.cfi_restore 16
	.cfi_restore 17
	.cfi_restore 18
	.cfi_restore 19
	.cfi_restore 20
	.cfi_restore 21
	.cfi_restore 22
	.cfi_restore 31
	.set	macro
	.set	reorder
	.end	udp_fragCache_init
	.cfi_endproc
$LFE3193:
	.size	udp_fragCache_init, .-udp_fragCache_init
	.align	2
	.globl	negative_fragCache_init
$LFB3198 = .
	.loc 1 523 0
	.cfi_startproc
	.set	nomips16
	.ent	negative_fragCache_init
	.type	negative_fragCache_init, @function
negative_fragCache_init:
	.frame	$sp,48,$31		# vars= 0, regs= 7/0, args= 16, gp= 0
	.mask	0x803f0000,-4
	.fmask	0x00000000,0
	.set	noreorder
	.set	nomacro
	addiu	$sp,$sp,-48
	.cfi_def_cfa_offset 48
	sw	$19,32($sp)
	.cfi_offset 19, -16
$LBB895 = .
$LBB896 = .
	.loc 5 170 0
	lui	$19,%hi(kmalloc_caches)
	addiu	$19,$19,%lo(kmalloc_caches)
$LBB897 = .
$LBB898 = .
	.loc 5 142 0
	lw	$4,40($19)
	li	$5,32			# 0x20
$LBE898 = .
$LBE897 = .
$LBE896 = .
$LBE895 = .
	.loc 1 523 0
	sw	$20,36($sp)
	sw	$31,44($sp)
	sw	$21,40($sp)
	sw	$18,28($sp)
	sw	$17,24($sp)
	sw	$16,20($sp)
	.cfi_offset 20, -12
	.cfi_offset 31, -4
	.cfi_offset 21, -8
	.cfi_offset 18, -20
	.cfi_offset 17, -24
	.cfi_offset 16, -28
$LBB902 = .
$LBB901 = .
$LBB900 = .
$LBB899 = .
	.loc 5 142 0
	jal	kmem_cache_alloc
	lui	$20,%hi(negative_cache_table)

$LBE899 = .
$LBE900 = .
$LBE901 = .
$LBE902 = .
	.loc 1 526 0
	bne	$2,$0,$L28
	sw	$2,%lo(negative_cache_table)($20)

$L32:
	.loc 1 528 0
	j	$L29
	move	$2,$0

$L28:
	.loc 1 530 0
	lui	$3,%hi(negative_cache_list_free)
	addiu	$17,$3,%lo(negative_cache_list_free)
	sw	$0,%lo(negative_cache_list_free)($3)
	sw	$0,8($17)
	sw	$17,4($17)
	addiu	$2,$2,4
	li	$3,64			# 0x40
$L31:
	addiu	$3,$3,-1
	.loc 1 533 0 discriminator 2
	sw	$0,8($2)
	sw	$0,0($2)
	sw	$2,4($2)
	.loc 1 532 0 discriminator 2
	bne	$3,$0,$L31
	addiu	$2,$2,12

$LBB903 = .
	.loc 1 543 0
	lui	$21,%hi(negative_cache_timeout)
$LBE903 = .
	.loc 1 532 0
	li	$18,64			# 0x40
$LBB908 = .
	.loc 1 543 0
	addiu	$21,$21,%lo(negative_cache_timeout)
$L34:
$LBB904 = .
$LBB905 = .
$LBB906 = .
$LBB907 = .
	.loc 5 142 0
	lw	$4,28($19)
	li	$5,32			# 0x20
	jal	kmem_cache_alloc
	addiu	$18,$18,-1

	move	$16,$2
$LBE907 = .
$LBE906 = .
$LBE905 = .
$LBE904 = .
	.loc 1 541 0
	addiu	$4,$2,12
	move	$5,$0
	move	$6,$0
	.loc 1 537 0
	beq	$2,$0,$L32
	move	$7,$0

	.loc 1 541 0
	jal	init_timer_key
	nop

	.loc 1 544 0
	lw	$2,4($17)
	.loc 1 543 0
	sw	$21,28($16)
	.loc 1 544 0
	sw	$0,48($16)
	sw	$2,52($16)
	.loc 1 542 0
	sw	$16,32($16)
	.loc 1 544 0
	sw	$16,0($2)
	lw	$2,8($17)
	addiu	$16,$16,48
	sw	$16,4($17)
	addiu	$2,$2,1
$LBE908 = .
	.loc 1 535 0
	bne	$18,$0,$L34
	sw	$2,8($17)

	.loc 1 548 0
	lw	$3,%lo(negative_cache_table)($20)
	.loc 1 552 0
	li	$2,1			# 0x1
	.loc 1 548 0
	sw	$0,0($3)
$L29:
	.loc 1 553 0
	lw	$31,44($sp)
	lw	$21,40($sp)
	lw	$20,36($sp)
	lw	$19,32($sp)
	lw	$18,28($sp)
	lw	$17,24($sp)
	lw	$16,20($sp)
	j	$31
	addiu	$sp,$sp,48

	.cfi_def_cfa_offset 0
	.cfi_restore 16
	.cfi_restore 17
	.cfi_restore 18
	.cfi_restore 19
	.cfi_restore 20
	.cfi_restore 21
	.cfi_restore 31
	.set	macro
	.set	reorder
	.end	negative_fragCache_init
	.cfi_endproc
$LFE3198:
	.size	negative_fragCache_init, .-negative_fragCache_init
	.align	2
	.globl	rtk_addArp
$LFB3203 = .
	.loc 1 753 0
	.cfi_startproc
	.set	nomips16
	.ent	rtk_addArp
	.type	rtk_addArp, @function
rtk_addArp:
	.frame	$sp,0,$31		# vars= 0, regs= 0/0, args= 0, gp= 0
	.mask	0x00000000,0
	.fmask	0x00000000,0
	.set	noreorder
	.set	nomacro
	.loc 1 784 0
	j	$31
	move	$2,$0

	.set	macro
	.set	reorder
	.end	rtk_addArp
	.cfi_endproc
$LFE3203:
	.size	rtk_addArp, .-rtk_addArp
	.align	2
	.globl	rtk_modifyArp
$LFB3204 = .
	.loc 1 790 0
	.cfi_startproc
	.set	nomips16
	.ent	rtk_modifyArp
	.type	rtk_modifyArp, @function
rtk_modifyArp:
	.frame	$sp,0,$31		# vars= 0, regs= 0/0, args= 0, gp= 0
	.mask	0x00000000,0
	.fmask	0x00000000,0
	.set	noreorder
	.set	nomacro
	.loc 1 806 0
	j	$31
	move	$2,$0

	.set	macro
	.set	reorder
	.end	rtk_modifyArp
	.cfi_endproc
$LFE3204:
	.size	rtk_modifyArp, .-rtk_modifyArp
	.align	2
	.globl	rtk_delArp
$LFB3205 = .
	.loc 1 813 0
	.cfi_startproc
	.set	nomips16
	.ent	rtk_delArp
	.type	rtk_delArp, @function
rtk_delArp:
	.frame	$sp,0,$31		# vars= 0, regs= 0/0, args= 0, gp= 0
	.mask	0x00000000,0
	.fmask	0x00000000,0
	.set	noreorder
	.set	nomacro
	.loc 1 831 0
	j	$31
	li	$2,-4			# 0xfffffffffffffffc

	.set	macro
	.set	reorder
	.end	rtk_delArp
	.cfi_endproc
$LFE3205:
	.size	rtk_delArp, .-rtk_delArp
	.align	2
	.globl	rtk_addRoute
$LFB3206 = .
	.loc 1 839 0
	.cfi_startproc
	.set	nomips16
	.ent	rtk_addRoute
	.type	rtk_addRoute, @function
rtk_addRoute:
	.frame	$sp,0,$31		# vars= 0, regs= 0/0, args= 0, gp= 0
	.mask	0x00000000,0
	.fmask	0x00000000,0
	.set	noreorder
	.set	nomacro
	.loc 1 864 0
	j	$31
	move	$2,$0

	.set	macro
	.set	reorder
	.end	rtk_addRoute
	.cfi_endproc
$LFE3206:
	.size	rtk_addRoute, .-rtk_addRoute
	.align	2
	.globl	rtk_modifyRoute
$LFB3207 = .
	.loc 1 872 0
	.cfi_startproc
	.set	nomips16
	.ent	rtk_modifyRoute
	.type	rtk_modifyRoute, @function
rtk_modifyRoute:
	.frame	$sp,0,$31		# vars= 0, regs= 0/0, args= 0, gp= 0
	.mask	0x00000000,0
	.fmask	0x00000000,0
	.set	noreorder
	.set	nomacro
	.loc 1 895 0
	j	$31
	move	$2,$0

	.set	macro
	.set	reorder
	.end	rtk_modifyRoute
	.cfi_endproc
$LFE3207:
	.size	rtk_modifyRoute, .-rtk_modifyRoute
	.align	2
	.globl	rtk_delRoute
$LFB3208 = .
	.loc 1 899 0
	.cfi_startproc
	.set	nomips16
	.ent	rtk_delRoute
	.type	rtk_delRoute, @function
rtk_delRoute:
	.frame	$sp,0,$31		# vars= 0, regs= 0/0, args= 0, gp= 0
	.mask	0x00000000,0
	.fmask	0x00000000,0
	.set	noreorder
	.set	nomacro
	.loc 1 919 0
	j	$31
	li	$2,-4			# 0xfffffffffffffffc

	.set	macro
	.set	reorder
	.end	rtk_delRoute
	.cfi_endproc
$LFE3208:
	.size	rtk_delRoute, .-rtk_delRoute
	.align	2
	.globl	rtk_addSession
$LFB3209 = .
	.loc 1 926 0
	.cfi_startproc
	.set	nomips16
	.ent	rtk_addSession
	.type	rtk_addSession, @function
rtk_addSession:
	.frame	$sp,0,$31		# vars= 0, regs= 0/0, args= 0, gp= 0
	.mask	0x00000000,0
	.fmask	0x00000000,0
	.set	noreorder
	.set	nomacro
	.loc 1 928 0
	j	$31
	move	$2,$0

	.set	macro
	.set	reorder
	.end	rtk_addSession
	.cfi_endproc
$LFE3209:
	.size	rtk_addSession, .-rtk_addSession
	.align	2
	.globl	rtk_delSession
$LFB3210 = .
	.loc 1 932 0
	.cfi_startproc
	.set	nomips16
	.ent	rtk_delSession
	.type	rtk_delSession, @function
rtk_delSession:
	.frame	$sp,0,$31		# vars= 0, regs= 0/0, args= 0, gp= 0
	.mask	0x00000000,0
	.fmask	0x00000000,0
	.set	noreorder
	.set	nomacro
	.loc 1 934 0
	j	$31
	move	$2,$0

	.set	macro
	.set	reorder
	.end	rtk_delSession
	.cfi_endproc
$LFE3210:
	.size	rtk_delSession, .-rtk_delSession
	.align	2
	.globl	rtk_addNaptConnection
$LFB3211 = .
	.loc 1 943 0
	.cfi_startproc
	.set	nomips16
	.ent	rtk_addNaptConnection
	.type	rtk_addNaptConnection, @function
rtk_addNaptConnection:
	.frame	$sp,136,$31		# vars= 80, regs= 10/0, args= 16, gp= 0
	.mask	0xc0ff0000,-4
	.fmask	0x00000000,0
	addiu	$sp,$sp,-136
	.cfi_def_cfa_offset 136
	sw	$18,104($sp)
	sw	$31,132($sp)
	sw	$fp,128($sp)
	sw	$23,124($sp)
	sw	$22,120($sp)
	sw	$21,116($sp)
	sw	$20,112($sp)
	sw	$19,108($sp)
	sw	$17,100($sp)
	sw	$16,96($sp)
	.cfi_offset 18, -32
	.cfi_offset 31, -4
	.cfi_offset 30, -8
	.cfi_offset 23, -12
	.cfi_offset 22, -16
	.cfi_offset 21, -20
	.cfi_offset 20, -24
	.cfi_offset 19, -28
	.cfi_offset 17, -36
	.cfi_offset 16, -40
	.loc 1 943 0
	move	$18,$5
	.loc 1 968 0
	.set	noreorder
	.set	nomacro
	beq	$5,$0,$L118
	sw	$6,144($sp)
	.set	macro
	.set	reorder

	move	$16,$4
	.loc 1 971 0
	move	$4,$5
	.set	noreorder
	.set	nomacro
	jal	rtl_eth_hdr
	move	$17,$7
	.set	macro
	.set	reorder

	.set	noreorder
	.set	nomacro
	beq	$2,$0,$L118
	li	$21,6			# 0x6
	.set	macro
	.set	reorder

	.loc 1 977 0
	lw	$3,0($16)
	.loc 1 986 0
	lw	$4,20($16)
	.loc 1 978 0
	li	$2,17			# 0x11
	xori	$3,$3,0x2
	.loc 1 986 0
	.set	noreorder
	.set	nomacro
	jal	filter_addconnect
	movn	$21,$2,$3
	.set	macro
	.set	reorder

$LBB909 = .
$LBB910 = .
	.file 6 "/home/extra_home/marklee/rtk_OpenWRT_BB/BB_v1407/0629_co_2.4_pre_release/svn_test/rtk_BarrierBreaker_v14.07.x/build_dir/target-mips_24kec_uClibc-0.9.33.2/linux-rtkmips_rtl8198c/linux-3.10.49/arch/mips/include/asm/irqflags.h"
	.loc 6 39 0
#APP
 # 39 "/home/extra_home/marklee/rtk_OpenWRT_BB/BB_v1407/0629_co_2.4_pre_release/svn_test/rtk_BarrierBreaker_v14.07.x/build_dir/target-mips_24kec_uClibc-0.9.33.2/linux-rtkmips_rtl8198c/linux-3.10.49/arch/mips/include/asm/irqflags.h" 1
		.set	push						
	.set	reorder						
	.set	noat						
	di	$2					
	andi	$2, 1					
	sll $0, $0, 3			
	.set	pop						

 # 0 "" 2
#NO_APP
$LBE910 = .
$LBE909 = .
	.loc 1 990 0
	lw	$3,4($16)
$LBB912 = .
$LBB911 = .
	.loc 6 39 0
	sw	$2,56($sp)
$LBE911 = .
$LBE912 = .
$LBB913 = .
$LBB914 = .
	.loc 1 690 0
	lw	$2,8($16)
$LBE914 = .
$LBE913 = .
	.loc 1 990 0
	lw	$4,20($16)
$LBB918 = .
$LBB915 = .
	.loc 1 690 0
	lw	$6,24($16)
	lhu	$5,2($16)
	xor	$2,$3,$2
	.loc 1 689 0
	xor	$2,$2,$4
	.loc 1 690 0
	xor	$2,$2,$6
	.loc 1 691 0
	xor	$2,$2,$5
	.loc 1 690 0
	srl	$4,$4,16
	.loc 1 692 0
	xor	$4,$2,$4
	.loc 1 689 0
	srl	$2,$3,16
	.loc 1 694 0
	lui	$3,%hi(napt_table_list_max)
$LBE915 = .
$LBE918 = .
$LBB919 = .
$LBB920 = .
	.loc 2 293 0
	lui	$5,%hi(table_napt)
$LBE920 = .
$LBE919 = .
$LBB923 = .
$LBB916 = .
	.loc 1 694 0
	lw	$3,%lo(napt_table_list_max)($3)
	.loc 1 693 0
	xor	$2,$4,$2
$LBE916 = .
$LBE923 = .
$LBB924 = .
$LBB921 = .
	.loc 2 293 0
	lw	$4,%lo(table_napt)($5)
$LBE921 = .
$LBE924 = .
$LBB925 = .
$LBB917 = .
	.loc 1 694 0
	srl	$19,$2,12
	xor	$2,$19,$2
	addiu	$3,$3,-1
$LBE917 = .
$LBE925 = .
$LBB926 = .
$LBB922 = .
	.loc 2 293 0
	.set	noreorder
	.set	nomacro
	jal	_raw_spin_lock
	and	$19,$2,$3
	.set	macro
	.set	reorder

$LBE922 = .
$LBE926 = .
	.loc 1 995 0
	lui	$6,%hi(table_napt)
	lw	$5,%lo(table_napt)($6)
	sll	$3,$19,2
	sll	$6,$19,4
	lw	$2,4($5)
	subu	$6,$6,$3
	addu	$2,$2,$6
	.set	noreorder
	.set	nomacro
	j	$L52
	lw	$2,0($2)
	.set	macro
	.set	reorder

$L55:
	.loc 1 996 0
	lw	$4,4($2)
	lw	$3,0($16)
	bne	$4,$3,$L53
	.loc 1 996 0 is_stmt 0 discriminator 1
	lw	$4,8($2)
	lw	$3,4($16)
	bne	$4,$3,$L53
	.loc 1 997 0 is_stmt 1
	lw	$4,12($2)
	lw	$3,8($16)
	bne	$4,$3,$L53
	.loc 1 998 0
	lw	$4,16($2)
	lw	$3,12($16)
	bne	$4,$3,$L53
	.loc 1 999 0
	lw	$4,20($2)
	lw	$3,16($16)
	bne	$4,$3,$L53
	.loc 1 1000 0
	lw	$4,24($2)
	lw	$3,20($16)
	bne	$4,$3,$L53
	.loc 1 1001 0
	lw	$4,28($2)
	lw	$3,24($16)
	.set	noreorder
	.set	nomacro
	bne	$4,$3,$L53
	lw	$4,144($sp)
	.set	macro
	.set	reorder

	.loc 1 1004 0
	move	$5,$21
	.set	noreorder
	.set	nomacro
	jal	rtl_conntrack_drop_check_hook
	move	$6,$4
	.set	macro
	.set	reorder

	.loc 1 1007 0
	lui	$3,%hi(table_napt)
	lw	$2,%lo(table_napt)($3)
$LBB927 = .
$LBB928 = .
$LBB929 = .
$LBB930 = .
$LBB931 = .
$LBB932 = .
	.loc 3 136 0
	lhu	$3,2($2)
	addiu	$3,$3,1
	.loc 3 137 0
#APP
 # 137 "/home/extra_home/marklee/rtk_OpenWRT_BB/BB_v1407/0629_co_2.4_pre_release/svn_test/rtk_BarrierBreaker_v14.07.x/build_dir/target-mips_24kec_uClibc-0.9.33.2/linux-rtkmips_rtl8198c/linux-3.10.49/arch/mips/include/asm/spinlock.h" 1
	.set	push
	.set	noreorder
	.set	mips2
	sync
	.set	pop
 # 0 "" 2
	.loc 3 138 0
#NO_APP
	sh	$3,2($2)
	.loc 3 139 0
#APP
 # 139 "/home/extra_home/marklee/rtk_OpenWRT_BB/BB_v1407/0629_co_2.4_pre_release/svn_test/rtk_BarrierBreaker_v14.07.x/build_dir/target-mips_24kec_uClibc-0.9.33.2/linux-rtkmips_rtl8198c/linux-3.10.49/arch/mips/include/asm/spinlock.h" 1
	.set	push
	.set	noreorder
	.set	mips2
	sync
	.set	pop
 # 0 "" 2
#NO_APP
$LBE932 = .
$LBE931 = .
$LBE930 = .
	.loc 4 153 0
$LBE929 = .
$LBE928 = .
$LBE927 = .
$LBB933 = .
$LBB934 = .
	.loc 6 186 0
	lw	$4,56($sp)
	andi	$2,$4,0x1
$LBE934 = .
$LBE933 = .
	.loc 1 1009 0
	bne	$2,$0,$L54
$LBB935 = .
$LBB936 = .
	.loc 6 58 0 discriminator 1
	move	$2,$4
#APP
 # 58 "/home/extra_home/marklee/rtk_OpenWRT_BB/BB_v1407/0629_co_2.4_pre_release/svn_test/rtk_BarrierBreaker_v14.07.x/build_dir/target-mips_24kec_uClibc-0.9.33.2/linux-rtkmips_rtl8198c/linux-3.10.49/arch/mips/include/asm/irqflags.h" 1
		.set	push						
	.set	noreorder					
	.set	noat						
	beqz	$2, 1f					
	di							
	ei							
1:								
	sll $0, $0, 3			
	.set	pop						

 # 0 "" 2
#NO_APP
$LBE936 = .
$LBE935 = .
	.loc 1 1010 0 discriminator 1
	.set	noreorder
	.set	nomacro
	j	$L49
	move	$2,$0
	.set	macro
	.set	reorder

$L54:
$LBB937 = .
$LBB938 = .
	.loc 6 58 0 discriminator 2
	lw	$2,56($sp)
#APP
 # 58 "/home/extra_home/marklee/rtk_OpenWRT_BB/BB_v1407/0629_co_2.4_pre_release/svn_test/rtk_BarrierBreaker_v14.07.x/build_dir/target-mips_24kec_uClibc-0.9.33.2/linux-rtkmips_rtl8198c/linux-3.10.49/arch/mips/include/asm/irqflags.h" 1
		.set	push						
	.set	noreorder					
	.set	noat						
	beqz	$2, 1f					
	di							
	ei							
1:								
	sll $0, $0, 3			
	.set	pop						

 # 0 "" 2
#NO_APP
$LBE938 = .
$LBE937 = .
	.loc 1 1010 0 discriminator 2
	.set	noreorder
	.set	nomacro
	j	$L49
	move	$2,$0
	.set	macro
	.set	reorder

$L53:
	.loc 1 995 0
	lw	$2,36($2)
$L52:
	.loc 1 995 0 is_stmt 0 discriminator 1
	.set	noreorder
	.set	nomacro
	bne	$2,$0,$L55
	lui	$4,%hi(napt_list_free)
	.set	macro
	.set	reorder

	.loc 1 1014 0 is_stmt 1
	lw	$2,%lo(napt_list_free)($4)
	.set	noreorder
	.set	nomacro
	beq	$2,$0,$L56
	li	$8,-1			# 0xffffffffffffffff
	.set	macro
	.set	reorder

	.loc 1 1016 0
	lw	$7,0($16)
	.loc 1 1025 0
	lw	$3,44($2)
	.loc 1 1016 0
	sw	$7,4($2)
	.loc 1 1017 0
	lw	$7,4($16)
	addiu	$4,$4,%lo(napt_list_free)
	sw	$7,8($2)
	.loc 1 1018 0
	lw	$7,8($16)
	sw	$7,12($2)
	.loc 1 1019 0
	lw	$7,12($16)
	sw	$7,16($2)
	.loc 1 1020 0
	lw	$7,16($16)
	sw	$7,20($2)
	.loc 1 1021 0
	lw	$7,20($16)
	sw	$7,24($2)
	.loc 1 1022 0
	lw	$7,24($16)
	.loc 1 1023 0
	sw	$17,32($2)
	.loc 1 1024 0
	sb	$8,0($2)
	.loc 1 1022 0
	sw	$7,28($2)
	.loc 1 1025 0
	.set	noreorder
	.set	nomacro
	beq	$3,$0,$L57
	lw	$7,48($2)
	.set	macro
	.set	reorder

	.loc 1 1025 0 is_stmt 0 discriminator 1
	sw	$7,48($3)
	lw	$7,48($2)
	.set	noreorder
	.set	nomacro
	j	$L58
	lw	$3,44($2)
	.set	macro
	.set	reorder

$L57:
	.loc 1 1025 0 discriminator 2
	sw	$7,4($4)
$L58:
	.loc 1 1025 0 discriminator 1
	sw	$3,0($7)
	.loc 1 1026 0 is_stmt 1 discriminator 1
	lui	$3,%hi(napt_list_inuse)
	.loc 1 1025 0 discriminator 1
	lw	$8,8($4)
	.loc 1 1026 0 discriminator 1
	addiu	$3,$3,%lo(napt_list_inuse)
	lw	$7,4($3)
	.loc 1 1025 0 discriminator 1
	addiu	$8,$8,-1
	sw	$8,8($4)
	.loc 1 1026 0 discriminator 1
	sw	$7,48($2)
	sw	$0,44($2)
	sw	$2,0($7)
	lw	$4,8($3)
	addiu	$7,$2,44
	sw	$7,4($3)
	addiu	$4,$4,1
	sw	$4,8($3)
	.loc 1 1027 0 discriminator 1
	sw	$0,36($2)
	lw	$4,4($5)
	addiu	$3,$2,36
	addu	$4,$4,$6
	lw	$4,4($4)
	sw	$4,40($2)
	lw	$4,4($5)
	addu	$4,$4,$6
	lw	$4,4($4)
	sw	$2,0($4)
	lw	$2,4($5)
	.loc 1 1035 0 discriminator 1
	li	$4,33			# 0x21
	sb	$4,49($sp)
	.loc 1 1027 0 discriminator 1
	addu	$2,$2,$6
	sw	$3,4($2)
	lw	$2,4($5)
	.loc 1 1034 0 discriminator 1
	sb	$0,48($sp)
	.loc 1 1027 0 discriminator 1
	addu	$6,$2,$6
	lw	$2,8($6)
	addiu	$2,$2,1
	.loc 1 1039 0 discriminator 1
	.set	noreorder
	.set	nomacro
	jal	rtl865x_getLanDev
	sw	$2,8($6)
	.set	macro
	.set	reorder

	.loc 1 1040 0 discriminator 1
	.set	noreorder
	.set	nomacro
	jal	rtl865x_getWanDev
	move	$23,$2
	.set	macro
	.set	reorder

	.loc 1 1041 0 discriminator 1
	move	$4,$18
	.set	noreorder
	.set	nomacro
	jal	rtl_get_skb_protocol
	sw	$2,60($sp)
	.set	macro
	.set	reorder

	.loc 1 1042 0 discriminator 1
	move	$4,$18
	.set	noreorder
	.set	nomacro
	jal	rtl_ip_hdr
	sw	$2,88($sp)
	.set	macro
	.set	reorder

	.loc 1 1043 0 discriminator 1
	lw	$20,0($2)
$LBB939 = .
	.loc 1 1046 0 discriminator 1
	move	$4,$18
$LBE939 = .
	.loc 1 1042 0 discriminator 1
	move	$19,$2
	.loc 1 1043 0 discriminator 1
	ext	$20,$20,24,4
	sll	$20,$20,2
$LBB940 = .
	.loc 1 1046 0 discriminator 1
	.set	noreorder
	.set	nomacro
	jal	rtl_eth_hdr
	addu	$20,$2,$20
	.set	macro
	.set	reorder

	lwl	$3,6($2)
	lbu	$6,10($2)
	lbu	$5,11($2)
	lwr	$3,9($2)
$LBE940 = .
$LBB941 = .
	.loc 1 1047 0 discriminator 1
	move	$4,$18
$LBE941 = .
$LBB942 = .
	.loc 1 1046 0 discriminator 1
	sb	$6,44($sp)
	sw	$3,40($sp)
$LBE942 = .
$LBB943 = .
	.loc 1 1047 0 discriminator 1
	.set	noreorder
	.set	nomacro
	jal	rtl_eth_hdr
	sb	$5,45($sp)
	.set	macro
	.set	reorder

	lwl	$3,0($2)
	lbu	$6,4($2)
	lbu	$5,5($2)
	lwr	$3,3($2)
$LBE943 = .
	.loc 1 1055 0 discriminator 1
	move	$4,$18
$LBB944 = .
	.loc 1 1047 0 discriminator 1
	sb	$6,36($sp)
	sw	$3,32($sp)
$LBE944 = .
	.loc 1 1055 0 discriminator 1
	.set	noreorder
	.set	nomacro
	jal	rtl_get_skb_mark
	sb	$5,37($sp)
	.set	macro
	.set	reorder

$LBB945 = .
$LBB946 = .
	.loc 2 293 0 discriminator 1
	lui	$5,%hi(lock_rtl_feature)
	addiu	$4,$5,%lo(lock_rtl_feature)
$LBE946 = .
$LBE945 = .
	.loc 1 1059 0 discriminator 1
	lw	$6,12($19)
	.loc 1 1060 0 discriminator 1
	lhu	$3,0($20)
	.loc 1 1062 0 discriminator 1
	lhu	$5,2($20)
	.loc 1 1055 0 discriminator 1
	sw	$2,68($sp)
	.loc 1 1061 0 discriminator 1
	lw	$2,16($19)
	.loc 1 1059 0 discriminator 1
	sw	$6,72($sp)
	.loc 1 1060 0 discriminator 1
	sw	$3,76($sp)
	.loc 1 1061 0 discriminator 1
	sw	$2,80($sp)
$LBB948 = .
$LBB947 = .
	.loc 2 293 0 discriminator 1
	.set	noreorder
	.set	nomacro
	jal	_raw_spin_lock
	sw	$5,84($sp)
	.set	macro
	.set	reorder

$LBE947 = .
$LBE948 = .
	.loc 1 1066 0 discriminator 1
	.set	noreorder
	.set	nomacro
	jal	rtl_store_skb_dst
	move	$4,$18
	.set	macro
	.set	reorder

	.loc 1 1068 0 discriminator 1
	lui	$2,%hi(dst_tmp)
	lw	$2,%lo(dst_tmp)($2)
	.set	noreorder
	.set	nomacro
	beq	$2,$0,$L59
	lui	$22,%hi(table_path)
	.set	macro
	.set	reorder

$L121:
$LBB949 = .
$LBB950 = .
	.loc 2 293 0
	lw	$4,%lo(table_path)($22)
	.set	noreorder
	.set	nomacro
	jal	_raw_spin_lock
	lui	$fp,%hi(path_table_list_max)
	.set	macro
	.set	reorder

$LBE950 = .
$LBE949 = .
	.loc 1 1077 0
	lw	$3,4($16)
	lw	$2,20($16)
	lw	$4,24($16)
$LBB951 = .
$LBB952 = .
	.loc 1 713 0
	lw	$6,8($16)
	.loc 1 711 0
	xor	$5,$2,$3
	.loc 1 712 0
	xor	$5,$5,$4
	.loc 1 711 0
	srl	$3,$3,8
	.loc 1 712 0
	xor	$3,$5,$3
	srl	$5,$2,16
	.loc 1 713 0
	xor	$5,$3,$5
	srl	$3,$6,4
	.loc 1 714 0
	xor	$5,$5,$3
	.loc 1 716 0
	lw	$3,%lo(path_table_list_max)($fp)
	.loc 1 715 0
	xor	$5,$5,$21
$LBE952 = .
$LBE951 = .
	.loc 1 1079 0
	lui	$6,%hi(path_list_free)
	lw	$17,%lo(path_list_free)($6)
$LBB954 = .
$LBB953 = .
	.loc 1 716 0
	srl	$6,$5,12
	addiu	$3,$3,-1
	xor	$5,$6,$5
	and	$5,$5,$3
$LBE953 = .
$LBE954 = .
	.loc 1 1079 0
	.set	noreorder
	.set	nomacro
	bne	$17,$0,$L60
	sw	$5,64($sp)
	.set	macro
	.set	reorder

	.loc 1 1259 0
	.set	noreorder
	.set	nomacro
	j	$L119
	lw	$5,12($16)
	.set	macro
	.set	reorder

$L59:
	.loc 1 1068 0 discriminator 1
	lw	$5,16($19)
	lw	$6,12($19)
	lbu	$7,1($19)
	.set	noreorder
	.set	nomacro
	jal	rtl_ip_route_input
	move	$4,$18
	.set	macro
	.set	reorder

	.set	noreorder
	.set	nomacro
	beq	$2,$0,$L121
	lui	$22,%hi(table_path)
	.set	macro
	.set	reorder

	.loc 1 1479 0
	.set	noreorder
	.set	nomacro
	j	$L49
	li	$2,-1			# 0xffffffffffffffff
	.set	macro
	.set	reorder

$L60:
	.loc 1 1083 0
	lw	$3,0($16)
$LBB955 = .
$LBB956 = .
	.loc 1 1978 0
	lui	$2,%hi(route_list_inuse)
	lw	$2,%lo(route_list_inuse)($2)
$LBE956 = .
$LBE955 = .
	.loc 1 1083 0
	sw	$3,4($17)
	.loc 1 1084 0
	lw	$12,4($16)
$LBB959 = .
$LBB957 = .
	.loc 1 1975 0
	move	$6,$0
	.loc 1 1974 0
	move	$8,$0
$LBE957 = .
$LBE959 = .
	.loc 1 1084 0
	sw	$12,16($17)
	.loc 1 1085 0
	lw	$10,8($16)
	sw	$10,12($17)
	.loc 1 1086 0
	lw	$3,20($16)
	sw	$3,20($17)
	.loc 1 1087 0
	lw	$3,24($16)
	sw	$3,8($17)
	.loc 1 1088 0
	lw	$11,12($16)
	sw	$11,24($17)
	.loc 1 1089 0
	lw	$9,16($16)
	sw	$9,28($17)
	.loc 1 1090 0
	lw	$7,20($16)
	sw	$7,32($17)
	.loc 1 1091 0
	lw	$3,24($16)
	.set	noreorder
	.set	nomacro
	j	$L63
	sw	$3,36($17)
	.set	macro
	.set	reorder

$L65:
$LBB960 = .
$LBB958 = .
	.loc 1 1979 0
	lw	$3,8($2)
	sltu	$4,$3,$6
	.set	noreorder
	.set	nomacro
	bne	$4,$0,$L64
	and	$5,$3,$7
	.set	macro
	.set	reorder

	lw	$4,4($2)
	bne	$5,$4,$L64
	.loc 1 1980 0
	addiu	$8,$2,16
	move	$6,$3
$L64:
	.loc 1 1978 0
	lw	$2,44($2)
$L63:
	.set	noreorder
	.set	nomacro
	bne	$2,$0,$L65
	li	$3,-1			# 0xffffffffffffffff
	.set	macro
	.set	reorder

$LBE958 = .
$LBE960 = .
	.loc 1 1097 0
	li	$2,1			# 0x1
	.loc 1 1093 0
	sw	$8,44($17)
	.loc 1 1097 0
	sb	$2,2($17)
	.loc 1 1101 0
	.set	noreorder
	.set	nomacro
	bne	$12,$11,$L66
	sb	$3,0($17)
	.set	macro
	.set	reorder

	.loc 1 1100 0
	.set	noreorder
	.set	nomacro
	j	$L67
	sb	$0,1($17)
	.set	macro
	.set	reorder

$L66:
	.loc 1 1102 0
	sb	$2,1($17)
$L67:
	.loc 1 1104 0
	beq	$10,$9,$L68
	.loc 1 1105 0
	lbu	$2,1($17)
	ori	$2,$2,0x2
	sb	$2,1($17)
$L68:
	.loc 1 1110 0
	sw	$0,48($17)
	.loc 1 1111 0
	sw	$0,52($17)
	.loc 1 1114 0
	lw	$2,4($16)
	.loc 1 1120 0
	move	$4,$18
	move	$5,$0
	.loc 1 1114 0
	sw	$2,12($19)
	.loc 1 1115 0
	lw	$2,8($16)
	sh	$2,0($20)
	.loc 1 1116 0
	lw	$2,20($16)
	sw	$2,16($19)
	.loc 1 1117 0
	lw	$2,24($16)
	sh	$2,2($20)
$LBB961 = .
	.loc 1 1119 0
	sw	$0,16($sp)
	sw	$0,20($sp)
	sw	$0,24($sp)
$LBE961 = .
	.loc 1 1120 0
	.set	noreorder
	.set	nomacro
	jal	rtl_set_skb_mark
	sh	$0,28($sp)
	.set	macro
	.set	reorder

	.loc 1 1121 0
	.set	noreorder
	.set	nomacro
	beq	$23,$0,$L70
	move	$5,$23
	.set	macro
	.set	reorder

	.loc 1 1121 0 is_stmt 0 discriminator 1
	lw	$4,4($16)
	.set	noreorder
	.set	nomacro
	jal	rtl_arp_req_get_ha
	addiu	$6,$sp,16
	.set	macro
	.set	reorder

	.set	noreorder
	.set	nomacro
	bne	$2,$0,$L122
	li	$2,6			# 0x6
	.set	macro
	.set	reorder

	.loc 1 1125 0 is_stmt 1
	move	$4,$18
	.set	noreorder
	.set	nomacro
	jal	rtl_ppp_proto_check
	addiu	$5,$sp,48
	.set	macro
	.set	reorder

	sw	$2,92($sp)
	lw	$3,92($sp)
	li	$2,1			# 0x1
	bne	$3,$2,$L73
	.loc 1 1126 0
	.set	noreorder
	.set	nomacro
	jal	rtl_skb_mac_header_was_set
	move	$4,$18
	.set	macro
	.set	reorder

	lw	$4,92($sp)
	bne	$2,$4,$L73
	.loc 1 1127 0
	.set	noreorder
	.set	nomacro
	jal	rtl_eth_hdr
	move	$4,$18
	.set	macro
	.set	reorder

	lbu	$4,12($2)
	lbu	$3,13($2)
	sll	$2,$4,8
	or	$3,$3,$2
	li	$2,2048			# 0x800
	.set	noreorder
	.set	nomacro
	beq	$3,$2,$L73
	move	$4,$18
	.set	macro
	.set	reorder

	.loc 1 1129 0
	.set	noreorder
	.set	nomacro
	jal	rtl_skb_set_mac_header
	li	$5,-22			# 0xffffffffffffffea
	.set	macro
	.set	reorder

$L73:
$LBB962 = .
	.loc 1 1133 0
	.set	noreorder
	.set	nomacro
	jal	rtl_eth_hdr
	move	$4,$18
	.set	macro
	.set	reorder

	lw	$5,16($sp)
	addiu	$3,$2,6
$LBE962 = .
	.loc 1 1134 0
	move	$4,$18
$LBB963 = .
	.loc 1 1133 0
	swl	$5,6($2)
	swr	$5,3($3)
	lbu	$2,20($sp)
$LBE963 = .
	.loc 1 1134 0
	move	$5,$23
$LBB964 = .
	.loc 1 1133 0
	sb	$2,4($3)
	lbu	$2,21($sp)
$LBE964 = .
	.loc 1 1134 0
	.set	noreorder
	.set	nomacro
	jal	rtl_set_skb_dmac
	sb	$2,5($3)
	.set	macro
	.set	reorder

	.loc 1 1137 0
	lw	$5,88($sp)
	li	$2,2048			# 0x800
	.set	noreorder
	.set	nomacro
	bne	$5,$2,$L122
	li	$2,6			# 0x6
	.set	macro
	.set	reorder

$LBB965 = .
$LBB966 = .
	.file 7 "include/linux/list.h"
	.loc 7 188 0
	lui	$2,%hi(nf_hooks+144)
$LBE966 = .
$LBE965 = .
	.loc 1 1140 0
	lw	$3,%lo(nf_hooks+144)($2)
	addiu	$2,$2,%lo(nf_hooks+144)
	.set	noreorder
	.set	nomacro
	beq	$3,$2,$L75
	lw	$7,60($sp)
	.set	macro
	.set	reorder

	.loc 1 1140 0 is_stmt 0 discriminator 2
	move	$4,$18
	li	$5,2			# 0x2
	.set	noreorder
	.set	nomacro
	jal	rtl_ipt_do_table
	move	$6,$23
	.set	macro
	.set	reorder

$L75:
	.loc 1 1142 0 is_stmt 1
	.set	noreorder
	.set	nomacro
	jal	rtl_get_skb_mark
	move	$4,$18
	.set	macro
	.set	reorder

	beq	$2,$0,$L76
	.loc 1 1142 0 is_stmt 0 discriminator 1
	.set	noreorder
	.set	nomacro
	jal	rtl_get_skb_mark
	move	$4,$18
	.set	macro
	.set	reorder

	.set	noreorder
	.set	nomacro
	j	$L70
	sw	$2,48($17)
	.set	macro
	.set	reorder

$L76:
	.loc 1 1142 0 discriminator 2
	lw	$2,48($17)
	.loc 1 1142 0 discriminator 3
	sw	$2,48($17)
$L70:
	.loc 1 1232 0 is_stmt 1
	li	$2,6			# 0x6
$L122:
	.set	noreorder
	.set	nomacro
	bne	$21,$2,$L78
	lw	$5,144($sp)
	.set	macro
	.set	reorder

	.loc 1 1233 0
	.set	noreorder
	.set	nomacro
	jal	rtl_tcp_get_timeouts
	lw	$4,144($sp)
	.set	macro
	.set	reorder

	.set	noreorder
	.set	nomacro
	j	$L79
	sw	$2,60($17)
	.set	macro
	.set	reorder

$L78:
	.loc 1 1236 0
	li	$4,1			# 0x1
	.set	noreorder
	.set	nomacro
	jal	udp_get_timeouts_by_state
	li	$6,1			# 0x1
	.set	macro
	.set	reorder

	sw	$2,60($17)
$L79:
	.loc 1 1248 0
	lui	$2,%hi(jiffies)
	lw	$2,%lo(jiffies)($2)
	.loc 1 1246 0
	lw	$6,144($sp)
	.loc 1 1252 0
	lw	$3,72($17)
	.loc 1 1248 0
	sw	$2,40($17)
	.loc 1 1246 0
	sw	$6,56($17)
	.loc 1 1252 0
	.set	noreorder
	.set	nomacro
	beq	$3,$0,$L80
	lw	$4,76($17)
	.set	macro
	.set	reorder

	.loc 1 1252 0 is_stmt 0 discriminator 1
	sw	$4,76($3)
	lui	$2,%hi(path_list_free)
	addiu	$2,$2,%lo(path_list_free)
	lw	$4,76($17)
	.set	noreorder
	.set	nomacro
	j	$L81
	lw	$3,72($17)
	.set	macro
	.set	reorder

$L80:
	.loc 1 1252 0 discriminator 2
	lui	$5,%hi(path_list_free)
	addiu	$2,$5,%lo(path_list_free)
	sw	$4,4($2)
$L81:
	.loc 1 1252 0 discriminator 1
	sw	$3,0($4)
	.loc 1 1253 0 is_stmt 1 discriminator 1
	lui	$3,%hi(path_list_inuse)
	.loc 1 1252 0 discriminator 1
	lw	$5,8($2)
	.loc 1 1253 0 discriminator 1
	addiu	$3,$3,%lo(path_list_inuse)
	lw	$4,4($3)
	.loc 1 1252 0 discriminator 1
	addiu	$5,$5,-1
	.loc 1 1253 0 discriminator 1
	sw	$0,72($17)
	sw	$4,76($17)
	.loc 1 1252 0 discriminator 1
	sw	$5,8($2)
	.loc 1 1253 0 discriminator 1
	sw	$17,0($4)
	lw	$5,8($3)
	.loc 1 1254 0 discriminator 1
	lw	$4,%lo(table_path)($22)
	.loc 1 1253 0 discriminator 1
	addiu	$2,$17,72
	.loc 1 1254 0 discriminator 1
	lw	$6,64($sp)
	.loc 1 1253 0 discriminator 1
	addiu	$5,$5,1
	.loc 1 1254 0 discriminator 1
	sw	$0,64($17)
	.loc 1 1253 0 discriminator 1
	sw	$5,8($3)
	sw	$2,4($3)
	.loc 1 1254 0 discriminator 1
	lw	$3,4($4)
	sll	$5,$6,4
	sll	$2,$6,2
	subu	$2,$5,$2
	addu	$3,$3,$2
	lw	$5,4($3)
	addiu	$6,$17,64
	lw	$3,%lo(path_table_list_max)($fp)
	sw	$5,68($17)
	lw	$4,4($4)
	lui	$5,%hi(path_list_free)
	addiu	$3,$3,-1
	addu	$4,$4,$2
	lw	$4,4($4)
	sw	$17,0($4)
	lw	$4,%lo(table_path)($22)
	lw	$17,%lo(path_list_free)($5)
	lw	$5,4($4)
	addu	$5,$5,$2
	sw	$6,4($5)
	lw	$4,4($4)
	addu	$2,$4,$2
	lw	$4,8($2)
	addiu	$4,$4,1
	sw	$4,8($2)
	lw	$2,20($16)
	lw	$4,24($16)
	.loc 1 1259 0
	lw	$5,12($16)
$L119:
$LBB967 = .
$LBB968 = .
	.loc 1 711 0
	lw	$8,16($16)
	srl	$6,$2,8
	.loc 1 712 0
	srl	$7,$5,16
	.loc 1 711 0
	xor	$5,$5,$8
	.loc 1 712 0
	xor	$5,$5,$7
	xor	$5,$5,$21
	.loc 1 713 0
	xor	$2,$5,$2
	.loc 1 714 0
	xor	$2,$2,$6
	.loc 1 713 0
	srl	$4,$4,4
	.loc 1 715 0
	xor	$4,$2,$4
	.loc 1 716 0
	srl	$fp,$4,12
	xor	$4,$fp,$4
$LBE968 = .
$LBE967 = .
	.loc 1 1261 0
	.set	noreorder
	.set	nomacro
	beq	$17,$0,$L82
	and	$fp,$4,$3
	.set	macro
	.set	reorder

	.loc 1 1263 0
	lw	$3,0($16)
$LBB969 = .
$LBB970 = .
	.loc 1 1978 0
	lui	$2,%hi(route_list_inuse)
	lw	$2,%lo(route_list_inuse)($2)
$LBE970 = .
$LBE969 = .
	.loc 1 1263 0
	sw	$3,4($17)
	.loc 1 1264 0
	lw	$3,20($16)
$LBB973 = .
$LBB971 = .
	.loc 1 1975 0
	move	$7,$0
	.loc 1 1974 0
	move	$8,$0
$LBE971 = .
$LBE973 = .
	.loc 1 1264 0
	sw	$3,16($17)
	.loc 1 1265 0
	lw	$3,24($16)
	sw	$3,12($17)
	.loc 1 1266 0
	lw	$11,12($16)
	sw	$11,20($17)
	.loc 1 1267 0
	lw	$10,16($16)
	sw	$10,8($17)
	.loc 1 1268 0
	lw	$3,20($16)
	sw	$3,24($17)
	.loc 1 1269 0
	lw	$3,24($16)
	sw	$3,28($17)
	.loc 1 1270 0
	lw	$6,4($16)
	sw	$6,32($17)
	.loc 1 1271 0
	lw	$9,8($16)
	.set	noreorder
	.set	nomacro
	j	$L83
	sw	$9,36($17)
	.set	macro
	.set	reorder

$L85:
$LBB974 = .
$LBB972 = .
	.loc 1 1979 0
	lw	$3,8($2)
	sltu	$4,$3,$7
	.set	noreorder
	.set	nomacro
	bne	$4,$0,$L84
	and	$5,$3,$6
	.set	macro
	.set	reorder

	lw	$4,4($2)
	bne	$5,$4,$L84
	.loc 1 1980 0
	addiu	$8,$2,16
	move	$7,$3
$L84:
	.loc 1 1978 0
	lw	$2,44($2)
$L83:
	bne	$2,$0,$L85
$LBE972 = .
$LBE974 = .
	.loc 1 1277 0
	li	$2,2			# 0x2
	sb	$2,2($17)
	.loc 1 1278 0
	li	$2,-1			# 0xffffffffffffffff
	.loc 1 1273 0
	sw	$8,44($17)
	.loc 1 1281 0
	.set	noreorder
	.set	nomacro
	bne	$11,$6,$L86
	sb	$2,0($17)
	.set	macro
	.set	reorder

	.loc 1 1280 0
	.set	noreorder
	.set	nomacro
	j	$L87
	sb	$0,1($17)
	.set	macro
	.set	reorder

$L86:
	.loc 1 1282 0
	li	$2,4			# 0x4
	sb	$2,1($17)
$L87:
	.loc 1 1284 0
	beq	$10,$9,$L88
	.loc 1 1285 0
	lbu	$2,1($17)
	ori	$2,$2,0x8
	sb	$2,1($17)
$L88:
	.loc 1 1295 0
	sw	$0,48($17)
	.loc 1 1296 0
	sw	$0,52($17)
	.loc 1 1344 0
	lw	$2,20($16)
	.loc 1 1350 0
	move	$4,$18
	move	$5,$0
	.loc 1 1344 0
	sw	$2,12($19)
	.loc 1 1345 0
	lw	$2,24($16)
	sh	$2,0($20)
	.loc 1 1346 0
	lw	$2,4($16)
	sw	$2,16($19)
	.loc 1 1347 0
	lw	$2,8($16)
	sh	$2,2($20)
$LBB975 = .
	.loc 1 1349 0
	sw	$0,16($sp)
	sw	$0,20($sp)
	sw	$0,24($sp)
$LBE975 = .
	.loc 1 1350 0
	.set	noreorder
	.set	nomacro
	jal	rtl_set_skb_mark
	sh	$0,28($sp)
	.set	macro
	.set	reorder

	.loc 1 1351 0
	.set	noreorder
	.set	nomacro
	beq	$23,$0,$L90
	move	$5,$23
	.set	macro
	.set	reorder

	.loc 1 1351 0 is_stmt 0 discriminator 1
	lw	$4,4($16)
	.set	noreorder
	.set	nomacro
	jal	rtl_arp_req_get_ha
	addiu	$6,$sp,16
	.set	macro
	.set	reorder

	.set	noreorder
	.set	nomacro
	bne	$2,$0,$L90
	move	$4,$18
	.set	macro
	.set	reorder

	.loc 1 1354 0 is_stmt 1
	.set	noreorder
	.set	nomacro
	jal	rtl_ppp_proto_check
	addiu	$5,$sp,48
	.set	macro
	.set	reorder

	move	$16,$2
	li	$2,1			# 0x1
	bne	$16,$2,$L93
	.loc 1 1355 0
	.set	noreorder
	.set	nomacro
	jal	rtl_skb_mac_header_was_set
	move	$4,$18
	.set	macro
	.set	reorder

	bne	$2,$16,$L93
	.loc 1 1356 0
	.set	noreorder
	.set	nomacro
	jal	rtl_eth_hdr
	move	$4,$18
	.set	macro
	.set	reorder

	lbu	$4,12($2)
	lbu	$3,13($2)
	sll	$2,$4,8
	or	$3,$3,$2
	li	$2,2048			# 0x800
	.set	noreorder
	.set	nomacro
	beq	$3,$2,$L93
	move	$4,$18
	.set	macro
	.set	reorder

	.loc 1 1358 0
	.set	noreorder
	.set	nomacro
	jal	rtl_skb_set_mac_header
	li	$5,-22			# 0xffffffffffffffea
	.set	macro
	.set	reorder

$L93:
$LBB976 = .
	.loc 1 1361 0
	.set	noreorder
	.set	nomacro
	jal	rtl_eth_hdr
	move	$4,$18
	.set	macro
	.set	reorder

	lw	$3,16($sp)
$LBE976 = .
	.loc 1 1362 0
	move	$4,$18
	move	$5,$23
$LBB977 = .
	.loc 1 1361 0
	swl	$3,0($2)
	swr	$3,3($2)
	lbu	$3,20($sp)
	sb	$3,4($2)
	lbu	$3,21($sp)
$LBE977 = .
	.loc 1 1362 0
	.set	noreorder
	.set	nomacro
	jal	rtl_set_skb_smac
	sb	$3,5($2)
	.set	macro
	.set	reorder

	.loc 1 1365 0
	lw	$6,88($sp)
	li	$2,2048			# 0x800
	.set	noreorder
	.set	nomacro
	bne	$6,$2,$L90
	lui	$2,%hi(nf_hooks+144)
	.set	macro
	.set	reorder

	.loc 1 1368 0
	lw	$3,%lo(nf_hooks+144)($2)
	addiu	$2,$2,%lo(nf_hooks+144)
	.set	noreorder
	.set	nomacro
	beq	$3,$2,$L90
	lw	$7,60($sp)
	.set	macro
	.set	reorder

	.loc 1 1368 0 is_stmt 0 discriminator 2
	move	$4,$18
	li	$5,2			# 0x2
	.set	noreorder
	.set	nomacro
	jal	rtl_ipt_do_table
	move	$6,$23
	.set	macro
	.set	reorder

$L90:
	.loc 1 1393 0 is_stmt 1
	.set	noreorder
	.set	nomacro
	jal	rtl_get_skb_mark
	move	$4,$18
	.set	macro
	.set	reorder

	sw	$2,48($17)
	.loc 1 1412 0
	li	$2,6			# 0x6
	.set	noreorder
	.set	nomacro
	bne	$21,$2,$L95
	lw	$5,144($sp)
	.set	macro
	.set	reorder

	.loc 1 1413 0
	.set	noreorder
	.set	nomacro
	jal	rtl_tcp_get_timeouts
	lw	$4,144($sp)
	.set	macro
	.set	reorder

	.set	noreorder
	.set	nomacro
	j	$L96
	sw	$2,60($17)
	.set	macro
	.set	reorder

$L95:
	.loc 1 1416 0
	li	$4,1			# 0x1
	.set	noreorder
	.set	nomacro
	jal	udp_get_timeouts_by_state
	li	$6,1			# 0x1
	.set	macro
	.set	reorder

	sw	$2,60($17)
$L96:
	.loc 1 1428 0
	lui	$2,%hi(jiffies)
	.loc 1 1426 0
	lw	$4,144($sp)
	.loc 1 1428 0
	lw	$2,%lo(jiffies)($2)
	.loc 1 1433 0
	lw	$3,72($17)
	.loc 1 1426 0
	sw	$4,56($17)
	.loc 1 1428 0
	sw	$2,40($17)
	.loc 1 1433 0
	.set	noreorder
	.set	nomacro
	beq	$3,$0,$L97
	lw	$4,76($17)
	.set	macro
	.set	reorder

	.loc 1 1433 0 is_stmt 0 discriminator 1
	sw	$4,76($3)
	lui	$2,%hi(path_list_free)
	addiu	$2,$2,%lo(path_list_free)
	lw	$4,76($17)
	.set	noreorder
	.set	nomacro
	j	$L98
	lw	$3,72($17)
	.set	macro
	.set	reorder

$L97:
	.loc 1 1433 0 discriminator 2
	lui	$5,%hi(path_list_free)
	addiu	$2,$5,%lo(path_list_free)
	sw	$4,4($2)
$L98:
	.loc 1 1433 0 discriminator 1
	sw	$3,0($4)
	.loc 1 1434 0 is_stmt 1 discriminator 1
	lui	$3,%hi(path_list_inuse)
	.loc 1 1433 0 discriminator 1
	lw	$5,8($2)
	.loc 1 1434 0 discriminator 1
	addiu	$3,$3,%lo(path_list_inuse)
	lw	$4,4($3)
	.loc 1 1433 0 discriminator 1
	addiu	$5,$5,-1
	.loc 1 1434 0 discriminator 1
	sw	$0,72($17)
	sw	$4,76($17)
	.loc 1 1433 0 discriminator 1
	sw	$5,8($2)
	.loc 1 1434 0 discriminator 1
	sw	$17,0($4)
	lw	$5,8($3)
	.loc 1 1435 0 discriminator 1
	lw	$2,%lo(table_path)($22)
	.loc 1 1434 0 discriminator 1
	addiu	$4,$17,72
	addiu	$5,$5,1
	.loc 1 1435 0 discriminator 1
	sw	$0,64($17)
	.loc 1 1434 0 discriminator 1
	sw	$4,4($3)
	sw	$5,8($3)
	.loc 1 1435 0 discriminator 1
	lw	$3,4($2)
	sll	$4,$fp,2
	sll	$fp,$fp,4
	subu	$fp,$fp,$4
	addu	$3,$3,$fp
	lw	$3,4($3)
	addiu	$4,$17,64
	sw	$3,68($17)
	lw	$2,4($2)
	addu	$2,$2,$fp
	lw	$2,4($2)
	sw	$17,0($2)
	lw	$2,%lo(table_path)($22)
	lw	$3,4($2)
	addu	$3,$3,$fp
	sw	$4,4($3)
	lw	$2,4($2)
	addu	$fp,$2,$fp
	lw	$2,8($fp)
	addiu	$2,$2,1
	sw	$2,8($fp)
$L82:
$LBB978 = .
	.loc 1 1442 0
	.set	noreorder
	.set	nomacro
	jal	rtl_eth_hdr
	move	$4,$18
	.set	macro
	.set	reorder

	lw	$3,40($sp)
$LBE978 = .
$LBB979 = .
	.loc 1 1443 0
	move	$4,$18
$LBE979 = .
$LBB980 = .
	.loc 1 1442 0
	swl	$3,6($2)
	swr	$3,9($2)
	lbu	$3,44($sp)
	sb	$3,10($2)
	lbu	$3,45($sp)
$LBE980 = .
$LBB981 = .
	.loc 1 1443 0
	.set	noreorder
	.set	nomacro
	jal	rtl_eth_hdr
	sb	$3,11($2)
	.set	macro
	.set	reorder

	lw	$3,32($sp)
$LBE981 = .
	.loc 1 1446 0
	lw	$5,68($sp)
	move	$4,$18
$LBB982 = .
	.loc 1 1443 0
	swl	$3,0($2)
	swr	$3,3($2)
	lbu	$3,36($sp)
	sb	$3,4($2)
	lbu	$3,37($sp)
$LBE982 = .
	.loc 1 1446 0
	.set	noreorder
	.set	nomacro
	jal	rtl_set_skb_mark
	sb	$3,5($2)
	.set	macro
	.set	reorder

	.loc 1 1449 0
	lw	$6,72($sp)
	.loc 1 1450 0
	lw	$2,76($sp)
	.loc 1 1451 0
	lw	$3,80($sp)
	.loc 1 1452 0
	lw	$5,84($sp)
	.loc 1 1449 0
	sw	$6,12($19)
	.loc 1 1454 0
	move	$4,$18
	.loc 1 1450 0
	sh	$2,0($20)
	.loc 1 1451 0
	sw	$3,16($19)
	.loc 1 1454 0
	.set	noreorder
	.set	nomacro
	jal	rtl_set_skb_dst
	sh	$5,2($20)
	.set	macro
	.set	reorder

	.loc 1 1459 0
	.set	noreorder
	.set	nomacro
	beq	$23,$0,$L123
	lw	$6,60($sp)
	.set	macro
	.set	reorder

$LBB983 = .
$LBB984 = .
$LBB985 = .
$LBB986 = .
	.loc 6 39 0
#APP
 # 39 "/home/extra_home/marklee/rtk_OpenWRT_BB/BB_v1407/0629_co_2.4_pre_release/svn_test/rtk_BarrierBreaker_v14.07.x/build_dir/target-mips_24kec_uClibc-0.9.33.2/linux-rtkmips_rtl8198c/linux-3.10.49/arch/mips/include/asm/irqflags.h" 1
		.set	push						
	.set	reorder						
	.set	noat						
	di	$3					
	andi	$3, 1					
	sll $0, $0, 3			
	.set	pop						

 # 0 "" 2
#NO_APP
$LBE986 = .
$LBE985 = .
$LBB987 = .
	.file 8 "include/linux/netdevice.h"
	.loc 8 2275 0
	lw	$4,16($28)
	lui	$2,%hi(__per_cpu_offset)
	addiu	$2,$2,%lo(__per_cpu_offset)
	sll	$4,$4,2
	addu	$2,$4,$2
	lw	$4,0($2)
	lw	$2,580($23)
	addu	$2,$2,$4
$LBE987 = .
	lw	$4,0($2)
	addiu	$4,$4,-1
	sw	$4,0($2)
$LBB988 = .
$LBB989 = .
	.loc 6 58 0
#APP
 # 58 "/home/extra_home/marklee/rtk_OpenWRT_BB/BB_v1407/0629_co_2.4_pre_release/svn_test/rtk_BarrierBreaker_v14.07.x/build_dir/target-mips_24kec_uClibc-0.9.33.2/linux-rtkmips_rtl8198c/linux-3.10.49/arch/mips/include/asm/irqflags.h" 1
		.set	push						
	.set	noreorder					
	.set	noat						
	beqz	$3, 1f					
	di							
	ei							
1:								
	sll $0, $0, 3			
	.set	pop						

 # 0 "" 2
#NO_APP
$LBE989 = .
$LBE988 = .
$LBE984 = .
$LBE983 = .
	.loc 1 1462 0
	lw	$6,60($sp)
$L123:
	.set	noreorder
	.set	nomacro
	beq	$6,$0,$L124
	lw	$2,%lo(table_path)($22)
	.set	macro
	.set	reorder

$LBB990 = .
$LBB991 = .
$LBB992 = .
$LBB993 = .
	.loc 6 39 0
#APP
 # 39 "/home/extra_home/marklee/rtk_OpenWRT_BB/BB_v1407/0629_co_2.4_pre_release/svn_test/rtk_BarrierBreaker_v14.07.x/build_dir/target-mips_24kec_uClibc-0.9.33.2/linux-rtkmips_rtl8198c/linux-3.10.49/arch/mips/include/asm/irqflags.h" 1
		.set	push						
	.set	reorder						
	.set	noat						
	di	$3					
	andi	$3, 1					
	sll $0, $0, 3			
	.set	pop						

 # 0 "" 2
#NO_APP
$LBE993 = .
$LBE992 = .
$LBB994 = .
	.loc 8 2275 0
	lw	$4,16($28)
	lui	$2,%hi(__per_cpu_offset)
	addiu	$2,$2,%lo(__per_cpu_offset)
	sll	$4,$4,2
	addu	$2,$4,$2
	lw	$4,0($2)
	lw	$2,580($6)
	addu	$2,$2,$4
$LBE994 = .
	lw	$4,0($2)
	addiu	$4,$4,-1
	sw	$4,0($2)
$LBB995 = .
$LBB996 = .
	.loc 6 58 0
#APP
 # 58 "/home/extra_home/marklee/rtk_OpenWRT_BB/BB_v1407/0629_co_2.4_pre_release/svn_test/rtk_BarrierBreaker_v14.07.x/build_dir/target-mips_24kec_uClibc-0.9.33.2/linux-rtkmips_rtl8198c/linux-3.10.49/arch/mips/include/asm/irqflags.h" 1
		.set	push						
	.set	noreorder					
	.set	noat						
	beqz	$3, 1f					
	di							
	ei							
1:								
	sll $0, $0, 3			
	.set	pop						

 # 0 "" 2
#NO_APP
$LBE996 = .
$LBE995 = .
$LBE991 = .
$LBE990 = .
	.loc 1 1466 0
	lw	$2,%lo(table_path)($22)
$L124:
$LBB997 = .
$LBB998 = .
$LBB999 = .
$LBB1000 = .
$LBB1001 = .
$LBB1002 = .
	.loc 3 136 0
	lhu	$3,2($2)
	addiu	$3,$3,1
	.loc 3 137 0
#APP
 # 137 "/home/extra_home/marklee/rtk_OpenWRT_BB/BB_v1407/0629_co_2.4_pre_release/svn_test/rtk_BarrierBreaker_v14.07.x/build_dir/target-mips_24kec_uClibc-0.9.33.2/linux-rtkmips_rtl8198c/linux-3.10.49/arch/mips/include/asm/spinlock.h" 1
	.set	push
	.set	noreorder
	.set	mips2
	sync
	.set	pop
 # 0 "" 2
	.loc 3 138 0
#NO_APP
	sh	$3,2($2)
	.loc 3 139 0
#APP
 # 139 "/home/extra_home/marklee/rtk_OpenWRT_BB/BB_v1407/0629_co_2.4_pre_release/svn_test/rtk_BarrierBreaker_v14.07.x/build_dir/target-mips_24kec_uClibc-0.9.33.2/linux-rtkmips_rtl8198c/linux-3.10.49/arch/mips/include/asm/spinlock.h" 1
	.set	push
	.set	noreorder
	.set	mips2
	sync
	.set	pop
 # 0 "" 2
#NO_APP
$LBE1002 = .
$LBE1001 = .
$LBE1000 = .
	.loc 4 153 0
$LBE999 = .
$LBE998 = .
$LBE997 = .
	.loc 1 1468 0
	lui	$3,%hi(table_napt)
	lw	$2,%lo(table_napt)($3)
$LBB1003 = .
$LBB1004 = .
$LBB1005 = .
$LBB1006 = .
$LBB1007 = .
$LBB1008 = .
	.loc 3 136 0
	lhu	$3,2($2)
	addiu	$3,$3,1
	.loc 3 137 0
#APP
 # 137 "/home/extra_home/marklee/rtk_OpenWRT_BB/BB_v1407/0629_co_2.4_pre_release/svn_test/rtk_BarrierBreaker_v14.07.x/build_dir/target-mips_24kec_uClibc-0.9.33.2/linux-rtkmips_rtl8198c/linux-3.10.49/arch/mips/include/asm/spinlock.h" 1
	.set	push
	.set	noreorder
	.set	mips2
	sync
	.set	pop
 # 0 "" 2
	.loc 3 138 0
#NO_APP
	sh	$3,2($2)
	.loc 3 139 0
#APP
 # 139 "/home/extra_home/marklee/rtk_OpenWRT_BB/BB_v1407/0629_co_2.4_pre_release/svn_test/rtk_BarrierBreaker_v14.07.x/build_dir/target-mips_24kec_uClibc-0.9.33.2/linux-rtkmips_rtl8198c/linux-3.10.49/arch/mips/include/asm/spinlock.h" 1
	.set	push
	.set	noreorder
	.set	mips2
	sync
	.set	pop
 # 0 "" 2
#NO_APP
$LBE1008 = .
$LBE1007 = .
$LBE1006 = .
	.loc 4 153 0
$LBE1005 = .
$LBE1004 = .
$LBE1003 = .
$LBB1009 = .
$LBB1010 = .
$LBB1011 = .
$LBB1012 = .
$LBB1013 = .
$LBB1014 = .
	.loc 3 136 0
	lui	$4,%hi(lock_rtl_feature)
	lhu	$3,%lo(lock_rtl_feature+2)($4)
	addiu	$3,$3,1
	.loc 3 137 0
#APP
 # 137 "/home/extra_home/marklee/rtk_OpenWRT_BB/BB_v1407/0629_co_2.4_pre_release/svn_test/rtk_BarrierBreaker_v14.07.x/build_dir/target-mips_24kec_uClibc-0.9.33.2/linux-rtkmips_rtl8198c/linux-3.10.49/arch/mips/include/asm/spinlock.h" 1
	.set	push
	.set	noreorder
	.set	mips2
	sync
	.set	pop
 # 0 "" 2
	.loc 3 138 0
#NO_APP
	lui	$2,%hi(lock_rtl_feature)
	sh	$3,%lo(lock_rtl_feature+2)($2)
	.loc 3 139 0
#APP
 # 139 "/home/extra_home/marklee/rtk_OpenWRT_BB/BB_v1407/0629_co_2.4_pre_release/svn_test/rtk_BarrierBreaker_v14.07.x/build_dir/target-mips_24kec_uClibc-0.9.33.2/linux-rtkmips_rtl8198c/linux-3.10.49/arch/mips/include/asm/spinlock.h" 1
	.set	push
	.set	noreorder
	.set	mips2
	sync
	.set	pop
 # 0 "" 2
#NO_APP
$LBE1014 = .
$LBE1013 = .
$LBE1012 = .
	.loc 4 153 0
$LBE1011 = .
$LBE1010 = .
$LBE1009 = .
$LBB1015 = .
$LBB1016 = .
	.loc 6 186 0
	lw	$5,56($sp)
	andi	$2,$5,0x1
$LBE1016 = .
$LBE1015 = .
	.loc 1 1472 0
	.set	noreorder
	.set	nomacro
	bne	$2,$0,$L101
	lw	$2,56($sp)
	.set	macro
	.set	reorder

$LBB1017 = .
$LBB1018 = .
	.loc 6 58 0 discriminator 1
	move	$2,$5
#APP
 # 58 "/home/extra_home/marklee/rtk_OpenWRT_BB/BB_v1407/0629_co_2.4_pre_release/svn_test/rtk_BarrierBreaker_v14.07.x/build_dir/target-mips_24kec_uClibc-0.9.33.2/linux-rtkmips_rtl8198c/linux-3.10.49/arch/mips/include/asm/irqflags.h" 1
		.set	push						
	.set	noreorder					
	.set	noat						
	beqz	$2, 1f					
	di							
	ei							
1:								
	sll $0, $0, 3			
	.set	pop						

 # 0 "" 2
#NO_APP
$LBE1018 = .
$LBE1017 = .
	.loc 1 1482 0 discriminator 1
	.set	noreorder
	.set	nomacro
	j	$L120
	lw	$4,144($sp)
	.set	macro
	.set	reorder

$L101:
$LBB1019 = .
$LBB1020 = .
	.loc 6 58 0 discriminator 2
#APP
 # 58 "/home/extra_home/marklee/rtk_OpenWRT_BB/BB_v1407/0629_co_2.4_pre_release/svn_test/rtk_BarrierBreaker_v14.07.x/build_dir/target-mips_24kec_uClibc-0.9.33.2/linux-rtkmips_rtl8198c/linux-3.10.49/arch/mips/include/asm/irqflags.h" 1
		.set	push						
	.set	noreorder					
	.set	noat						
	beqz	$2, 1f					
	di							
	ei							
1:								
	sll $0, $0, 3			
	.set	pop						

 # 0 "" 2
#NO_APP
$LBE1020 = .
$LBE1019 = .
	.loc 1 1482 0 discriminator 2
	.set	noreorder
	.set	nomacro
	j	$L102
	lw	$4,144($sp)
	.set	macro
	.set	reorder

$L56:
$LBB1021 = .
$LBB1022 = .
$LBB1023 = .
$LBB1024 = .
$LBB1025 = .
$LBB1026 = .
	.loc 3 136 0
	lhu	$2,2($5)
	addiu	$2,$2,1
	.loc 3 137 0
#APP
 # 137 "/home/extra_home/marklee/rtk_OpenWRT_BB/BB_v1407/0629_co_2.4_pre_release/svn_test/rtk_BarrierBreaker_v14.07.x/build_dir/target-mips_24kec_uClibc-0.9.33.2/linux-rtkmips_rtl8198c/linux-3.10.49/arch/mips/include/asm/spinlock.h" 1
	.set	push
	.set	noreorder
	.set	mips2
	sync
	.set	pop
 # 0 "" 2
	.loc 3 138 0
#NO_APP
	sh	$2,2($5)
	.loc 3 139 0
#APP
 # 139 "/home/extra_home/marklee/rtk_OpenWRT_BB/BB_v1407/0629_co_2.4_pre_release/svn_test/rtk_BarrierBreaker_v14.07.x/build_dir/target-mips_24kec_uClibc-0.9.33.2/linux-rtkmips_rtl8198c/linux-3.10.49/arch/mips/include/asm/spinlock.h" 1
	.set	push
	.set	noreorder
	.set	mips2
	sync
	.set	pop
 # 0 "" 2
#NO_APP
$LBE1026 = .
$LBE1025 = .
$LBE1024 = .
	.loc 4 153 0
$LBE1023 = .
$LBE1022 = .
$LBE1021 = .
$LBB1027 = .
$LBB1028 = .
	.loc 6 186 0
	lw	$6,56($sp)
	andi	$2,$6,0x1
$LBE1028 = .
$LBE1027 = .
	.loc 1 1478 0
	bne	$2,$0,$L103
$LBB1029 = .
$LBB1030 = .
	.loc 6 58 0 discriminator 1
	move	$2,$6
#APP
 # 58 "/home/extra_home/marklee/rtk_OpenWRT_BB/BB_v1407/0629_co_2.4_pre_release/svn_test/rtk_BarrierBreaker_v14.07.x/build_dir/target-mips_24kec_uClibc-0.9.33.2/linux-rtkmips_rtl8198c/linux-3.10.49/arch/mips/include/asm/irqflags.h" 1
		.set	push						
	.set	noreorder					
	.set	noat						
	beqz	$2, 1f					
	di							
	ei							
1:								
	sll $0, $0, 3			
	.set	pop						

 # 0 "" 2
#NO_APP
$L118:
$LBE1030 = .
$LBE1029 = .
	.loc 1 1479 0 discriminator 1
	.set	noreorder
	.set	nomacro
	j	$L49
	li	$2,-1			# 0xffffffffffffffff
	.set	macro
	.set	reorder

$L103:
$LBB1031 = .
$LBB1032 = .
	.loc 6 58 0 discriminator 2
	lw	$2,56($sp)
#APP
 # 58 "/home/extra_home/marklee/rtk_OpenWRT_BB/BB_v1407/0629_co_2.4_pre_release/svn_test/rtk_BarrierBreaker_v14.07.x/build_dir/target-mips_24kec_uClibc-0.9.33.2/linux-rtkmips_rtl8198c/linux-3.10.49/arch/mips/include/asm/irqflags.h" 1
		.set	push						
	.set	noreorder					
	.set	noat						
	beqz	$2, 1f					
	di							
	ei							
1:								
	sll $0, $0, 3			
	.set	pop						

 # 0 "" 2
#NO_APP
$LBE1032 = .
$LBE1031 = .
	.loc 1 1479 0 discriminator 2
	.set	noreorder
	.set	nomacro
	j	$L49
	li	$2,-1			# 0xffffffffffffffff
	.set	macro
	.set	reorder

$L102:
$L120:
	.loc 1 1482 0
	move	$5,$21
	.set	noreorder
	.set	nomacro
	jal	rtl_conntrack_drop_check_hook
	move	$6,$4
	.set	macro
	.set	reorder

	.loc 1 1484 0
	move	$2,$0
$L49:
	.loc 1 1485 0
	lw	$31,132($sp)
	lw	$fp,128($sp)
	lw	$23,124($sp)
	lw	$22,120($sp)
	lw	$21,116($sp)
	lw	$20,112($sp)
	lw	$19,108($sp)
	lw	$18,104($sp)
	lw	$17,100($sp)
	lw	$16,96($sp)
	.set	noreorder
	.set	nomacro
	j	$31
	addiu	$sp,$sp,136
	.set	macro
	.set	reorder

	.cfi_def_cfa_offset 0
	.cfi_restore 16
	.cfi_restore 17
	.cfi_restore 18
	.cfi_restore 19
	.cfi_restore 20
	.cfi_restore 21
	.cfi_restore 22
	.cfi_restore 23
	.cfi_restore 30
	.cfi_restore 31
	.end	rtk_addNaptConnection
	.cfi_endproc
$LFE3211:
	.size	rtk_addNaptConnection, .-rtk_addNaptConnection
	.align	2
	.globl	rtk_delNaptConnection
$LFB3212 = .
	.loc 1 1489 0
	.cfi_startproc
	.set	nomips16
	.ent	rtk_delNaptConnection
	.type	rtk_delNaptConnection, @function
rtk_delNaptConnection:
	.frame	$sp,40,$31		# vars= 0, regs= 6/0, args= 16, gp= 0
	.mask	0x801f0000,-4
	.fmask	0x00000000,0
	addiu	$sp,$sp,-40
	.cfi_def_cfa_offset 40
	sw	$18,24($sp)
	sw	$16,16($sp)
	sw	$31,36($sp)
	sw	$20,32($sp)
	sw	$19,28($sp)
	sw	$17,20($sp)
	.cfi_offset 18, -16
	.cfi_offset 16, -24
	.cfi_offset 31, -4
	.cfi_offset 20, -8
	.cfi_offset 19, -12
	.cfi_offset 17, -20
	.loc 1 1503 0
	lw	$3,0($4)
	.loc 1 1504 0
	li	$2,17			# 0x11
	li	$18,6			# 0x6
	xori	$3,$3,0x2
	.loc 1 1489 0
	move	$16,$4
	.loc 1 1504 0
	movn	$18,$2,$3
$LBB1033 = .
$LBB1034 = .
	.loc 6 39 0
#APP
 # 39 "/home/extra_home/marklee/rtk_OpenWRT_BB/BB_v1407/0629_co_2.4_pre_release/svn_test/rtk_BarrierBreaker_v14.07.x/build_dir/target-mips_24kec_uClibc-0.9.33.2/linux-rtkmips_rtl8198c/linux-3.10.49/arch/mips/include/asm/irqflags.h" 1
		.set	push						
	.set	reorder						
	.set	noat						
	di	$17					
	andi	$17, 1					
	sll $0, $0, 3			
	.set	pop						

 # 0 "" 2
#NO_APP
$LBE1034 = .
$LBE1033 = .
	.loc 1 1510 0
	lw	$4,20($4)
	.set	noreorder
	.set	nomacro
	jal	filter_delconnect
	lui	$19,%hi(table_napt)
	.set	macro
	.set	reorder

$LBB1035 = .
$LBB1036 = .
	.loc 2 293 0
	.set	noreorder
	.set	nomacro
	jal	_raw_spin_lock
	lw	$4,%lo(table_napt)($19)
	.set	macro
	.set	reorder

$LBE1036 = .
$LBE1035 = .
	.loc 1 1515 0
	lw	$6,4($16)
	lw	$7,8($16)
	lw	$8,20($16)
	lw	$10,24($16)
	lw	$5,0($16)
$LBB1037 = .
$LBB1038 = .
	.loc 1 690 0
	xor	$4,$7,$6
	.loc 1 689 0
	xor	$4,$4,$8
	andi	$2,$5,0xffff
	.loc 1 690 0
	xor	$4,$4,$10
	.loc 1 691 0
	xor	$4,$4,$2
	.loc 1 690 0
	srl	$2,$8,16
	.loc 1 692 0
	xor	$4,$4,$2
	.loc 1 694 0
	lui	$2,%hi(napt_table_list_max)
	.loc 1 689 0
	srl	$3,$6,16
	.loc 1 694 0
	lw	$2,%lo(napt_table_list_max)($2)
	.loc 1 693 0
	xor	$3,$4,$3
$LBE1038 = .
$LBE1037 = .
	.loc 1 1517 0
	lw	$4,%lo(table_napt)($19)
$LBB1040 = .
$LBB1039 = .
	.loc 1 694 0
	srl	$9,$3,12
	xor	$3,$9,$3
	addiu	$2,$2,-1
	and	$2,$3,$2
$LBE1039 = .
$LBE1040 = .
	.loc 1 1517 0
	lw	$3,4($4)
	sll	$9,$2,2
	sll	$2,$2,4
	subu	$9,$2,$9
	addu	$2,$3,$9
	.set	noreorder
	.set	nomacro
	j	$L127
	lw	$2,0($2)
	.set	macro
	.set	reorder

$L151:
	.loc 1 1518 0
	lw	$3,4($2)
	bne	$5,$3,$L128
	.loc 1 1518 0 is_stmt 0 discriminator 1
	lw	$3,8($2)
	bne	$6,$3,$L128
	.loc 1 1519 0 is_stmt 1
	lw	$3,12($2)
	bne	$7,$3,$L128
	.loc 1 1520 0
	lw	$11,16($2)
	lw	$3,12($16)
	bne	$11,$3,$L128
	.loc 1 1521 0
	lw	$11,20($2)
	lw	$3,16($16)
	bne	$11,$3,$L128
	.loc 1 1522 0
	lw	$3,24($2)
	bne	$8,$3,$L128
	.loc 1 1523 0
	lw	$3,28($2)
	bne	$10,$3,$L128
	.loc 1 1526 0
	lw	$3,36($2)
	.set	noreorder
	.set	nomacro
	beq	$3,$0,$L129
	sb	$0,0($2)
	.set	macro
	.set	reorder

	.loc 1 1526 0 is_stmt 0 discriminator 1
	lw	$5,40($2)
	.set	noreorder
	.set	nomacro
	j	$L130
	sw	$5,40($3)
	.set	macro
	.set	reorder

$L129:
	.loc 1 1526 0 discriminator 2
	lw	$3,4($4)
	lw	$5,40($2)
	addu	$3,$3,$9
	sw	$5,4($3)
$L130:
	.loc 1 1526 0 discriminator 1
	lw	$3,40($2)
	lw	$5,36($2)
	sw	$5,0($3)
	lw	$3,4($4)
	lui	$4,%hi(napt_list_inuse)
	addiu	$4,$4,%lo(napt_list_inuse)
	addu	$9,$3,$9
	lw	$3,8($9)
	addiu	$3,$3,-1
	sw	$3,8($9)
	.loc 1 1527 0 is_stmt 1 discriminator 1
	lw	$3,44($2)
	.set	noreorder
	.set	nomacro
	beq	$3,$0,$L131
	lw	$5,48($2)
	.set	macro
	.set	reorder

	sw	$5,48($3)
	lw	$5,48($2)
	.set	noreorder
	.set	nomacro
	j	$L132
	lw	$3,44($2)
	.set	macro
	.set	reorder

$L131:
	.loc 1 1527 0 is_stmt 0 discriminator 2
	sw	$5,4($4)
$L132:
	.loc 1 1527 0 discriminator 1
	sw	$3,0($5)
	.loc 1 1528 0 is_stmt 1 discriminator 1
	lui	$3,%hi(napt_list_free)
	addiu	$3,$3,%lo(napt_list_free)
	.loc 1 1527 0 discriminator 1
	lw	$6,8($4)
	.loc 1 1528 0 discriminator 1
	lw	$5,4($3)
	sw	$0,44($2)
	.loc 1 1527 0 discriminator 1
	addiu	$6,$6,-1
	.loc 1 1528 0 discriminator 1
	sw	$5,48($2)
	.loc 1 1527 0 discriminator 1
	sw	$6,8($4)
	.loc 1 1528 0 discriminator 1
	sw	$2,0($5)
	lw	$5,8($3)
	.loc 1 1534 0 discriminator 1
	lui	$20,%hi(table_path)
$LBB1041 = .
$LBB1042 = .
	.loc 2 293 0 discriminator 1
	lw	$4,%lo(table_path)($20)
$LBE1042 = .
$LBE1041 = .
	.loc 1 1528 0 discriminator 1
	addiu	$2,$2,44
	addiu	$5,$5,1
	sw	$2,4($3)
$LBB1044 = .
$LBB1043 = .
	.loc 2 293 0 discriminator 1
	.set	noreorder
	.set	nomacro
	jal	_raw_spin_lock
	sw	$5,8($3)
	.set	macro
	.set	reorder

$LBE1043 = .
$LBE1044 = .
	.loc 1 1537 0 discriminator 1
	lw	$10,4($16)
	lw	$3,20($16)
	lw	$5,24($16)
	lw	$12,8($16)
$LBB1045 = .
$LBB1046 = .
	.loc 1 711 0 discriminator 1
	xor	$4,$3,$10
	srl	$2,$10,8
	.loc 1 712 0 discriminator 1
	xor	$4,$4,$5
	xor	$4,$4,$2
	srl	$2,$3,16
	.loc 1 713 0 discriminator 1
	xor	$4,$4,$2
	srl	$2,$12,4
	.loc 1 714 0 discriminator 1
	xor	$2,$4,$2
	.loc 1 716 0 discriminator 1
	lui	$4,%hi(path_table_list_max)
	lw	$11,%lo(path_table_list_max)($4)
	.loc 1 715 0 discriminator 1
	xor	$2,$2,$18
$LBE1046 = .
$LBE1045 = .
	.loc 1 1538 0 discriminator 1
	lw	$4,%lo(table_path)($20)
$LBB1048 = .
$LBB1047 = .
	.loc 1 716 0 discriminator 1
	srl	$6,$2,12
	xor	$2,$6,$2
	addiu	$11,$11,-1
	and	$2,$2,$11
$LBE1047 = .
$LBE1048 = .
	.loc 1 1538 0 discriminator 1
	lw	$9,4($4)
	sll	$6,$2,2
	sll	$2,$2,4
	subu	$8,$2,$6
	addu	$2,$9,$8
	lw	$2,0($2)
	lw	$6,12($16)
	lw	$7,16($16)
	.set	noreorder
	.set	nomacro
	j	$L133
	li	$13,1			# 0x1
	.set	macro
	.set	reorder

$L140:
	.loc 1 1542 0
	lw	$15,4($2)
	lw	$14,0($16)
	bne	$15,$14,$L134
	.loc 1 1542 0 is_stmt 0 discriminator 1
	lbu	$14,2($2)
	bne	$14,$13,$L134
	.loc 1 1543 0 is_stmt 1
	lw	$14,16($2)
	bne	$10,$14,$L134
	.loc 1 1544 0
	lw	$14,12($2)
	bne	$12,$14,$L134
	.loc 1 1545 0
	lw	$14,24($2)
	bne	$14,$6,$L134
	.loc 1 1546 0
	lw	$14,28($2)
	bne	$14,$7,$L134
	.loc 1 1547 0
	lw	$14,20($2)
	bne	$3,$14,$L134
	.loc 1 1548 0
	lw	$14,8($2)
	bne	$5,$14,$L134
	.loc 1 1559 0
	lw	$3,64($2)
	.set	noreorder
	.set	nomacro
	beq	$3,$0,$L135
	sb	$0,0($2)
	.set	macro
	.set	reorder

	.loc 1 1559 0 is_stmt 0 discriminator 1
	lw	$4,68($2)
	.set	noreorder
	.set	nomacro
	j	$L136
	sw	$4,68($3)
	.set	macro
	.set	reorder

$L135:
	.loc 1 1559 0 discriminator 2
	lw	$3,%lo(table_path)($20)
	lw	$4,68($2)
	lw	$3,4($3)
	addu	$3,$3,$8
	sw	$4,4($3)
$L136:
	.loc 1 1559 0 discriminator 1
	lw	$3,68($2)
	lw	$4,64($2)
	sw	$4,0($3)
	lw	$3,%lo(table_path)($20)
	lw	$3,4($3)
	addu	$8,$3,$8
	lw	$3,8($8)
	addiu	$3,$3,-1
	sw	$3,8($8)
	.loc 1 1560 0 is_stmt 1 discriminator 1
	lw	$4,72($2)
	lui	$3,%hi(path_list_inuse)
	lw	$5,76($2)
	.set	noreorder
	.set	nomacro
	beq	$4,$0,$L137
	addiu	$3,$3,%lo(path_list_inuse)
	.set	macro
	.set	reorder

	sw	$5,76($4)
	lw	$5,76($2)
	.set	noreorder
	.set	nomacro
	j	$L138
	lw	$4,72($2)
	.set	macro
	.set	reorder

$L137:
	.loc 1 1560 0 is_stmt 0 discriminator 2
	sw	$5,4($3)
$L138:
	.loc 1 1560 0 discriminator 1
	sw	$4,0($5)
	.loc 1 1561 0 is_stmt 1 discriminator 1
	lui	$5,%hi(path_list_free)
	addiu	$5,$5,%lo(path_list_free)
	.loc 1 1560 0 discriminator 1
	lw	$6,8($3)
	.loc 1 1561 0 discriminator 1
	lw	$4,4($5)
	sw	$0,72($2)
	.loc 1 1560 0 discriminator 1
	addiu	$6,$6,-1
	.loc 1 1561 0 discriminator 1
	sw	$4,76($2)
	.loc 1 1560 0 discriminator 1
	sw	$6,8($3)
	.loc 1 1561 0 discriminator 1
	sw	$2,0($4)
	lw	$3,8($5)
	lw	$4,%lo(table_path)($20)
	addiu	$2,$2,72
	addiu	$3,$3,1
	sw	$3,8($5)
	sw	$2,4($5)
	lw	$3,20($16)
	lw	$5,24($16)
	lw	$9,4($4)
	lw	$6,12($16)
	.loc 1 1562 0 discriminator 1
	.set	noreorder
	.set	nomacro
	j	$L139
	lw	$7,16($16)
	.set	macro
	.set	reorder

$L134:
	.loc 1 1538 0
	lw	$2,64($2)
$L133:
	.loc 1 1538 0 is_stmt 0 discriminator 1
	bne	$2,$0,$L140
$L139:
$LBB1049 = .
$LBB1050 = .
	.loc 1 711 0 is_stmt 1
	xor	$8,$3,$6
	.loc 1 712 0
	xor	$8,$8,$18
	.loc 1 711 0
	srl	$2,$3,8
	.loc 1 712 0
	xor	$8,$8,$7
	.loc 1 713 0
	xor	$8,$8,$2
	.loc 1 712 0
	srl	$2,$6,16
	.loc 1 714 0
	xor	$8,$8,$2
	.loc 1 713 0
	srl	$2,$5,4
	.loc 1 715 0
	xor	$2,$8,$2
	.loc 1 716 0
	srl	$8,$2,12
	xor	$2,$8,$2
	and	$2,$2,$11
$LBE1050 = .
$LBE1049 = .
	.loc 1 1568 0
	sll	$8,$2,2
	sll	$2,$2,4
	subu	$8,$2,$8
	addu	$9,$9,$8
	lw	$2,0($9)
	.set	noreorder
	.set	nomacro
	j	$L141
	li	$9,2			# 0x2
	.set	macro
	.set	reorder

$L148:
	.loc 1 1572 0
	lw	$11,4($2)
	lw	$10,0($16)
	bne	$11,$10,$L142
	.loc 1 1572 0 is_stmt 0 discriminator 1
	lbu	$10,2($2)
	bne	$10,$9,$L142
	.loc 1 1573 0 is_stmt 1
	lw	$10,20($2)
	bne	$10,$6,$L142
	.loc 1 1574 0
	lw	$10,8($2)
	bne	$10,$7,$L142
	.loc 1 1575 0
	lw	$10,24($2)
	bne	$10,$3,$L142
	.loc 1 1576 0
	lw	$10,28($2)
	bne	$10,$5,$L142
	.loc 1 1577 0
	lw	$11,32($2)
	lw	$10,4($16)
	bne	$11,$10,$L142
	.loc 1 1578 0
	lw	$11,36($2)
	lw	$10,8($16)
	bne	$11,$10,$L142
	.loc 1 1588 0
	lw	$3,64($2)
	.set	noreorder
	.set	nomacro
	beq	$3,$0,$L143
	sb	$0,0($2)
	.set	macro
	.set	reorder

	.loc 1 1588 0 is_stmt 0 discriminator 1
	lw	$4,68($2)
	.set	noreorder
	.set	nomacro
	j	$L144
	sw	$4,68($3)
	.set	macro
	.set	reorder

$L143:
	.loc 1 1588 0 discriminator 2
	lw	$3,%lo(table_path)($20)
	lw	$4,68($2)
	lw	$3,4($3)
	addu	$3,$3,$8
	sw	$4,4($3)
$L144:
	.loc 1 1588 0 discriminator 1
	lw	$3,68($2)
	lw	$4,64($2)
	sw	$4,0($3)
	lw	$3,%lo(table_path)($20)
	lw	$3,4($3)
	addu	$8,$3,$8
	lw	$3,8($8)
	addiu	$3,$3,-1
	sw	$3,8($8)
	.loc 1 1589 0 is_stmt 1 discriminator 1
	lw	$4,72($2)
	lui	$3,%hi(path_list_inuse)
	lw	$5,76($2)
	.set	noreorder
	.set	nomacro
	beq	$4,$0,$L145
	addiu	$3,$3,%lo(path_list_inuse)
	.set	macro
	.set	reorder

	sw	$5,76($4)
	lw	$5,76($2)
	.set	noreorder
	.set	nomacro
	j	$L146
	lw	$4,72($2)
	.set	macro
	.set	reorder

$L145:
	.loc 1 1589 0 is_stmt 0 discriminator 2
	sw	$5,4($3)
$L146:
	.loc 1 1589 0 discriminator 1
	sw	$4,0($5)
	.loc 1 1590 0 is_stmt 1 discriminator 1
	lui	$4,%hi(path_list_free)
	addiu	$4,$4,%lo(path_list_free)
	.loc 1 1589 0 discriminator 1
	lw	$6,8($3)
	.loc 1 1590 0 discriminator 1
	lw	$5,4($4)
	sw	$0,72($2)
	.loc 1 1589 0 discriminator 1
	addiu	$6,$6,-1
	.loc 1 1590 0 discriminator 1
	sw	$5,76($2)
	.loc 1 1589 0 discriminator 1
	sw	$6,8($3)
	.loc 1 1590 0 discriminator 1
	sw	$2,0($5)
	lw	$3,8($4)
	addiu	$2,$2,72
	sw	$2,4($4)
	addiu	$2,$3,1
	sw	$2,8($4)
	.loc 1 1591 0 discriminator 1
	.set	noreorder
	.set	nomacro
	j	$L147
	lw	$4,%lo(table_path)($20)
	.set	macro
	.set	reorder

$L142:
	.loc 1 1568 0
	lw	$2,64($2)
$L141:
	.loc 1 1568 0 is_stmt 0 discriminator 1
	bne	$2,$0,$L148
$L147:
$LBB1051 = .
$LBB1052 = .
$LBB1053 = .
$LBB1054 = .
$LBB1055 = .
$LBB1056 = .
	.loc 3 136 0 is_stmt 1
	lhu	$2,2($4)
	addiu	$2,$2,1
	.loc 3 137 0
#APP
 # 137 "/home/extra_home/marklee/rtk_OpenWRT_BB/BB_v1407/0629_co_2.4_pre_release/svn_test/rtk_BarrierBreaker_v14.07.x/build_dir/target-mips_24kec_uClibc-0.9.33.2/linux-rtkmips_rtl8198c/linux-3.10.49/arch/mips/include/asm/spinlock.h" 1
	.set	push
	.set	noreorder
	.set	mips2
	sync
	.set	pop
 # 0 "" 2
	.loc 3 138 0
#NO_APP
	sh	$2,2($4)
	.loc 3 139 0
#APP
 # 139 "/home/extra_home/marklee/rtk_OpenWRT_BB/BB_v1407/0629_co_2.4_pre_release/svn_test/rtk_BarrierBreaker_v14.07.x/build_dir/target-mips_24kec_uClibc-0.9.33.2/linux-rtkmips_rtl8198c/linux-3.10.49/arch/mips/include/asm/spinlock.h" 1
	.set	push
	.set	noreorder
	.set	mips2
	sync
	.set	pop
 # 0 "" 2
#NO_APP
$LBE1056 = .
$LBE1055 = .
$LBE1054 = .
	.loc 4 153 0
$LBE1053 = .
$LBE1052 = .
$LBE1051 = .
	.loc 1 1597 0
	lw	$2,%lo(table_napt)($19)
$LBB1057 = .
$LBB1058 = .
$LBB1059 = .
$LBB1060 = .
$LBB1061 = .
$LBB1062 = .
	.loc 3 136 0
	lhu	$3,2($2)
	addiu	$3,$3,1
	.loc 3 137 0
#APP
 # 137 "/home/extra_home/marklee/rtk_OpenWRT_BB/BB_v1407/0629_co_2.4_pre_release/svn_test/rtk_BarrierBreaker_v14.07.x/build_dir/target-mips_24kec_uClibc-0.9.33.2/linux-rtkmips_rtl8198c/linux-3.10.49/arch/mips/include/asm/spinlock.h" 1
	.set	push
	.set	noreorder
	.set	mips2
	sync
	.set	pop
 # 0 "" 2
	.loc 3 138 0
#NO_APP
	sh	$3,2($2)
	.loc 3 139 0
#APP
 # 139 "/home/extra_home/marklee/rtk_OpenWRT_BB/BB_v1407/0629_co_2.4_pre_release/svn_test/rtk_BarrierBreaker_v14.07.x/build_dir/target-mips_24kec_uClibc-0.9.33.2/linux-rtkmips_rtl8198c/linux-3.10.49/arch/mips/include/asm/spinlock.h" 1
	.set	push
	.set	noreorder
	.set	mips2
	sync
	.set	pop
 # 0 "" 2
#NO_APP
$LBE1062 = .
$LBE1061 = .
$LBE1060 = .
	.loc 4 153 0
$LBE1059 = .
$LBE1058 = .
$LBE1057 = .
$LBB1063 = .
$LBB1064 = .
	.loc 6 186 0
	andi	$2,$17,0x1
$LBE1064 = .
$LBE1063 = .
	.loc 1 1600 0
	bne	$2,$0,$L149
$LBB1065 = .
$LBB1066 = .
	.loc 6 58 0 discriminator 1
#APP
 # 58 "/home/extra_home/marklee/rtk_OpenWRT_BB/BB_v1407/0629_co_2.4_pre_release/svn_test/rtk_BarrierBreaker_v14.07.x/build_dir/target-mips_24kec_uClibc-0.9.33.2/linux-rtkmips_rtl8198c/linux-3.10.49/arch/mips/include/asm/irqflags.h" 1
		.set	push						
	.set	noreorder					
	.set	noat						
	beqz	$17, 1f					
	di							
	ei							
1:								
	sll $0, $0, 3			
	.set	pop						

 # 0 "" 2
#NO_APP
$LBE1066 = .
$LBE1065 = .
	.loc 1 1609 0 discriminator 1
	.set	noreorder
	.set	nomacro
	j	$L155
	lw	$31,36($sp)
	.set	macro
	.set	reorder

$L149:
$LBB1067 = .
$LBB1068 = .
	.loc 6 58 0 discriminator 2
#APP
 # 58 "/home/extra_home/marklee/rtk_OpenWRT_BB/BB_v1407/0629_co_2.4_pre_release/svn_test/rtk_BarrierBreaker_v14.07.x/build_dir/target-mips_24kec_uClibc-0.9.33.2/linux-rtkmips_rtl8198c/linux-3.10.49/arch/mips/include/asm/irqflags.h" 1
		.set	push						
	.set	noreorder					
	.set	noat						
	beqz	$17, 1f					
	di							
	ei							
1:								
	sll $0, $0, 3			
	.set	pop						

 # 0 "" 2
#NO_APP
$LBE1068 = .
$LBE1067 = .
	.loc 1 1601 0 discriminator 2
	.set	noreorder
	.set	nomacro
	j	$L150
	move	$2,$0
	.set	macro
	.set	reorder

$L128:
	.loc 1 1517 0
	lw	$2,36($2)
$L127:
	.loc 1 1517 0 is_stmt 0 discriminator 1
	bne	$2,$0,$L151
$LBB1069 = .
$LBB1070 = .
$LBB1071 = .
$LBB1072 = .
$LBB1073 = .
$LBB1074 = .
	.loc 3 136 0 is_stmt 1
	lhu	$2,2($4)
	addiu	$2,$2,1
	.loc 3 137 0
#APP
 # 137 "/home/extra_home/marklee/rtk_OpenWRT_BB/BB_v1407/0629_co_2.4_pre_release/svn_test/rtk_BarrierBreaker_v14.07.x/build_dir/target-mips_24kec_uClibc-0.9.33.2/linux-rtkmips_rtl8198c/linux-3.10.49/arch/mips/include/asm/spinlock.h" 1
	.set	push
	.set	noreorder
	.set	mips2
	sync
	.set	pop
 # 0 "" 2
	.loc 3 138 0
#NO_APP
	sh	$2,2($4)
	.loc 3 139 0
#APP
 # 139 "/home/extra_home/marklee/rtk_OpenWRT_BB/BB_v1407/0629_co_2.4_pre_release/svn_test/rtk_BarrierBreaker_v14.07.x/build_dir/target-mips_24kec_uClibc-0.9.33.2/linux-rtkmips_rtl8198c/linux-3.10.49/arch/mips/include/asm/spinlock.h" 1
	.set	push
	.set	noreorder
	.set	mips2
	sync
	.set	pop
 # 0 "" 2
#NO_APP
$LBE1074 = .
$LBE1073 = .
$LBE1072 = .
	.loc 4 153 0
$LBE1071 = .
$LBE1070 = .
$LBE1069 = .
$LBB1075 = .
$LBB1076 = .
	.loc 6 58 0
#APP
 # 58 "/home/extra_home/marklee/rtk_OpenWRT_BB/BB_v1407/0629_co_2.4_pre_release/svn_test/rtk_BarrierBreaker_v14.07.x/build_dir/target-mips_24kec_uClibc-0.9.33.2/linux-rtkmips_rtl8198c/linux-3.10.49/arch/mips/include/asm/irqflags.h" 1
		.set	push						
	.set	noreorder					
	.set	noat						
	beqz	$17, 1f					
	di							
	ei							
1:								
	sll $0, $0, 3			
	.set	pop						

 # 0 "" 2
#NO_APP
$LBE1076 = .
$LBE1075 = .
	.loc 1 1608 0
	li	$2,-4			# 0xfffffffffffffffc
$L150:
	.loc 1 1609 0
	lw	$31,36($sp)
$L155:
	lw	$20,32($sp)
	lw	$19,28($sp)
	lw	$18,24($sp)
	lw	$17,20($sp)
	lw	$16,16($sp)
	.set	noreorder
	.set	nomacro
	j	$31
	addiu	$sp,$sp,40
	.set	macro
	.set	reorder

	.cfi_def_cfa_offset 0
	.cfi_restore 16
	.cfi_restore 17
	.cfi_restore 18
	.cfi_restore 19
	.cfi_restore 20
	.cfi_restore 31
	.end	rtk_delNaptConnection
	.cfi_endproc
$LFE3212:
	.size	rtk_delNaptConnection, .-rtk_delNaptConnection
	.align	2
	.globl	rtk_idleNaptConnection
$LFB3213 = .
	.loc 1 1700 0
	.cfi_startproc
	.set	nomips16
	.ent	rtk_idleNaptConnection
	.type	rtk_idleNaptConnection, @function
rtk_idleNaptConnection:
	.frame	$sp,32,$31		# vars= 0, regs= 4/0, args= 16, gp= 0
	.mask	0x80070000,-4
	.fmask	0x00000000,0
	addiu	$sp,$sp,-32
	.cfi_def_cfa_offset 32
	sw	$16,16($sp)
	.cfi_offset 16, -16
	.loc 1 1706 0
	lui	$16,%hi(table_path)
	.loc 1 1700 0
	sw	$18,24($sp)
	.cfi_offset 18, -8
	move	$18,$4
$LBB1077 = .
$LBB1078 = .
	.loc 2 293 0
	lw	$4,%lo(table_path)($16)
$LBE1078 = .
$LBE1077 = .
	.loc 1 1700 0
	sw	$17,20($sp)
	sw	$31,28($sp)
	.cfi_offset 17, -12
	.cfi_offset 31, -4
$LBB1080 = .
$LBB1079 = .
	.loc 2 293 0
	.set	noreorder
	.set	nomacro
	jal	_raw_spin_lock
	move	$17,$5
	.set	macro
	.set	reorder

$LBE1079 = .
$LBE1080 = .
	.loc 1 1719 0
	lw	$10,4($18)
	lw	$7,20($18)
	lw	$13,8($18)
	lw	$12,24($18)
$LBB1081 = .
$LBB1082 = .
	.loc 1 712 0
	xor	$4,$7,$10
	.loc 1 713 0
	srl	$2,$13,4
$LBE1082 = .
$LBE1081 = .
	.loc 1 1713 0
	lw	$3,0($18)
$LBB1088 = .
$LBB1083 = .
	.loc 1 711 0
	xor	$4,$4,$12
	.loc 1 712 0
	xor	$4,$4,$2
	srl	$2,$7,16
	.loc 1 713 0
	xor	$4,$4,$2
	.loc 1 711 0
	srl	$2,$10,8
$LBE1083 = .
$LBE1088 = .
	.loc 1 1713 0
	xori	$6,$3,0x2
	li	$5,17			# 0x11
$LBB1089 = .
$LBB1084 = .
	.loc 1 714 0
	xor	$4,$4,$2
$LBE1084 = .
$LBE1089 = .
	.loc 1 1713 0
	li	$8,6			# 0x6
$LBB1090 = .
$LBB1085 = .
	.loc 1 716 0
	lui	$2,%hi(path_table_list_max)
$LBE1085 = .
$LBE1090 = .
	.loc 1 1713 0
	movn	$8,$5,$6
$LBB1091 = .
$LBB1086 = .
	.loc 1 716 0
	lw	$25,%lo(path_table_list_max)($2)
	.loc 1 715 0
	xor	$4,$4,$8
$LBE1086 = .
$LBE1091 = .
	.loc 1 1720 0
	lw	$11,%lo(table_path)($16)
$LBB1092 = .
$LBB1087 = .
	.loc 1 716 0
	srl	$2,$4,12
	xor	$2,$2,$4
	addiu	$25,$25,-1
	and	$2,$2,$25
$LBE1087 = .
$LBE1092 = .
	.loc 1 1720 0
	lw	$24,4($11)
	sll	$4,$2,2
	sll	$2,$2,4
	subu	$2,$2,$4
	.loc 1 1722 0
	li	$5,-16777216			# 0xffffffffff000000
	.loc 1 1720 0
	addu	$2,$24,$2
	.loc 1 1709 0
	lui	$4,%hi(jiffies)
	.loc 1 1722 0
	ori	$6,$5,0xff00
	.loc 1 1709 0
	lw	$14,%lo(jiffies)($4)
	.loc 1 1720 0
	lw	$2,0($2)
	lw	$9,12($18)
	lw	$15,16($18)
	.set	noreorder
	.set	nomacro
	j	$L158
	addiu	$5,$5,256
	.set	macro
	.set	reorder

$L162:
	.loc 1 1721 0
	lw	$4,4($2)
	bne	$3,$4,$L159
	.loc 1 1722 0
	lw	$4,0($2)
	and	$4,$4,$6
	bne	$4,$5,$L159
	.loc 1 1723 0
	lw	$4,16($2)
	bne	$10,$4,$L159
	.loc 1 1724 0
	lw	$4,12($2)
	bne	$13,$4,$L159
	.loc 1 1725 0
	lw	$4,24($2)
	bne	$4,$9,$L159
	.loc 1 1726 0
	lw	$4,28($2)
	bne	$4,$15,$L159
	.loc 1 1727 0
	lw	$4,20($2)
	bne	$7,$4,$L159
	.loc 1 1728 0
	lw	$4,8($2)
	.set	noreorder
	.set	nomacro
	bne	$12,$4,$L159
	subu	$4,$14,$17
	.set	macro
	.set	reorder

	.loc 1 1730 0
	lw	$5,40($2)
	.loc 1 1731 0
	subu	$4,$4,$5
	bgez	$4,$L160
	.set	noreorder
	.set	nomacro
	j	$L170
	lw	$4,56($2)
	.set	macro
	.set	reorder

$L159:
	.loc 1 1720 0
	lw	$2,64($2)
$L158:
	.loc 1 1720 0 is_stmt 0 discriminator 1
	bne	$2,$0,$L162
$L160:
$LBB1093 = .
$LBB1094 = .
	.loc 1 711 0 is_stmt 1
	xor	$4,$9,$7
	srl	$2,$7,8
	.loc 1 712 0
	xor	$4,$4,$15
	xor	$4,$4,$2
	srl	$2,$9,16
	.loc 1 713 0
	xor	$4,$4,$2
	srl	$2,$12,4
	.loc 1 714 0
	xor	$2,$4,$2
	.loc 1 715 0
	xor	$8,$2,$8
	.loc 1 716 0
	srl	$2,$8,12
	xor	$8,$2,$8
	and	$2,$8,$25
$LBE1094 = .
$LBE1093 = .
	.loc 1 1750 0
	sll	$4,$2,2
	sll	$2,$2,4
	subu	$2,$2,$4
	.loc 1 1752 0
	li	$5,-16777216			# 0xffffffffff000000
	.loc 1 1750 0
	addu	$24,$24,$2
	.loc 1 1752 0
	ori	$6,$5,0xff00
	.loc 1 1750 0
	lw	$2,0($24)
	.set	noreorder
	.set	nomacro
	j	$L163
	addiu	$5,$5,512
	.set	macro
	.set	reorder

$L166:
	.loc 1 1751 0
	lw	$4,4($2)
	bne	$3,$4,$L164
	.loc 1 1752 0
	lw	$4,0($2)
	and	$4,$4,$6
	bne	$4,$5,$L164
	.loc 1 1753 0
	lw	$4,20($2)
	bne	$4,$9,$L164
	.loc 1 1754 0
	lw	$4,8($2)
	bne	$4,$15,$L164
	.loc 1 1755 0
	lw	$4,24($2)
	bne	$7,$4,$L164
	.loc 1 1756 0
	lw	$4,28($2)
	bne	$12,$4,$L164
	.loc 1 1757 0
	lw	$4,32($2)
	bne	$10,$4,$L164
	.loc 1 1758 0
	lw	$4,36($2)
	bne	$13,$4,$L164
	.loc 1 1760 0
	lw	$5,40($2)
	.loc 1 1761 0
	subu	$3,$14,$17
	subu	$3,$3,$5
	bgez	$3,$L165
	.loc 1 1765 0
	lw	$4,56($2)
$L170:
	.set	noreorder
	.set	nomacro
	jal	rtl_set_ct_timeout_expires
	addu	$5,$17,$5
	.set	macro
	.set	reorder

	.loc 1 1770 0
	lw	$2,%lo(table_path)($16)
$LBB1095 = .
$LBB1096 = .
$LBB1097 = .
$LBB1098 = .
$LBB1099 = .
$LBB1100 = .
	.loc 3 136 0
	lhu	$3,2($2)
	addiu	$3,$3,1
	.loc 3 137 0
#APP
 # 137 "/home/extra_home/marklee/rtk_OpenWRT_BB/BB_v1407/0629_co_2.4_pre_release/svn_test/rtk_BarrierBreaker_v14.07.x/build_dir/target-mips_24kec_uClibc-0.9.33.2/linux-rtkmips_rtl8198c/linux-3.10.49/arch/mips/include/asm/spinlock.h" 1
	.set	push
	.set	noreorder
	.set	mips2
	sync
	.set	pop
 # 0 "" 2
	.loc 3 138 0
#NO_APP
	sh	$3,2($2)
	.loc 3 139 0
#APP
 # 139 "/home/extra_home/marklee/rtk_OpenWRT_BB/BB_v1407/0629_co_2.4_pre_release/svn_test/rtk_BarrierBreaker_v14.07.x/build_dir/target-mips_24kec_uClibc-0.9.33.2/linux-rtkmips_rtl8198c/linux-3.10.49/arch/mips/include/asm/spinlock.h" 1
	.set	push
	.set	noreorder
	.set	mips2
	sync
	.set	pop
 # 0 "" 2
#NO_APP
$LBE1100 = .
$LBE1099 = .
$LBE1098 = .
	.loc 4 153 0
$LBE1097 = .
$LBE1096 = .
$LBE1095 = .
	.loc 1 1772 0
	.set	noreorder
	.set	nomacro
	j	$L161
	li	$2,-1			# 0xffffffffffffffff
	.set	macro
	.set	reorder

$L164:
	.loc 1 1750 0
	lw	$2,64($2)
$L163:
	.loc 1 1750 0 is_stmt 0 discriminator 1
	bne	$2,$0,$L166
$L165:
$LBB1101 = .
$LBB1102 = .
$LBB1103 = .
$LBB1104 = .
$LBB1105 = .
$LBB1106 = .
	.loc 3 136 0 is_stmt 1
	lhu	$2,2($11)
	addiu	$2,$2,1
	.loc 3 137 0
#APP
 # 137 "/home/extra_home/marklee/rtk_OpenWRT_BB/BB_v1407/0629_co_2.4_pre_release/svn_test/rtk_BarrierBreaker_v14.07.x/build_dir/target-mips_24kec_uClibc-0.9.33.2/linux-rtkmips_rtl8198c/linux-3.10.49/arch/mips/include/asm/spinlock.h" 1
	.set	push
	.set	noreorder
	.set	mips2
	sync
	.set	pop
 # 0 "" 2
	.loc 3 138 0
#NO_APP
	sh	$2,2($11)
	.loc 3 139 0
#APP
 # 139 "/home/extra_home/marklee/rtk_OpenWRT_BB/BB_v1407/0629_co_2.4_pre_release/svn_test/rtk_BarrierBreaker_v14.07.x/build_dir/target-mips_24kec_uClibc-0.9.33.2/linux-rtkmips_rtl8198c/linux-3.10.49/arch/mips/include/asm/spinlock.h" 1
	.set	push
	.set	noreorder
	.set	mips2
	sync
	.set	pop
 # 0 "" 2
#NO_APP
$LBE1106 = .
$LBE1105 = .
$LBE1104 = .
	.loc 4 153 0
$LBE1103 = .
$LBE1102 = .
$LBE1101 = .
	.loc 1 1780 0
	move	$2,$0
$L161:
	.loc 1 1781 0
	lw	$31,28($sp)
	lw	$18,24($sp)
	lw	$17,20($sp)
	lw	$16,16($sp)
	.set	noreorder
	.set	nomacro
	j	$31
	addiu	$sp,$sp,32
	.set	macro
	.set	reorder

	.cfi_def_cfa_offset 0
	.cfi_restore 16
	.cfi_restore 17
	.cfi_restore 18
	.cfi_restore 31
	.end	rtk_idleNaptConnection
	.cfi_endproc
$LFE3213:
	.size	rtk_idleNaptConnection, .-rtk_idleNaptConnection
	.align	2
	.globl	rtl_fpTimer_update
$LFB3214 = .
	.loc 1 1788 0
	.cfi_startproc
	.set	nomips16
	.ent	rtl_fpTimer_update
	.type	rtl_fpTimer_update, @function
rtl_fpTimer_update:
	.frame	$sp,72,$31		# vars= 32, regs= 6/0, args= 16, gp= 0
	.mask	0x801f0000,-4
	.fmask	0x00000000,0
	.set	noreorder
	.set	nomacro
	addiu	$sp,$sp,-72
	.cfi_def_cfa_offset 72
	.loc 1 1798 0
	lui	$2,%hi(jiffies)
	.loc 1 1800 0
	move	$5,$0
	.loc 1 1788 0
	sw	$19,60($sp)
	sw	$16,48($sp)
	sw	$31,68($sp)
	.cfi_offset 19, -12
	.cfi_offset 16, -24
	.cfi_offset 31, -4
	move	$16,$4
	sw	$20,64($sp)
	sw	$18,56($sp)
	sw	$17,52($sp)
	.cfi_offset 20, -8
	.cfi_offset 18, -16
	.cfi_offset 17, -20
	.loc 1 1798 0
	lw	$19,%lo(jiffies)($2)
	.loc 1 1800 0
	jal	rtl_get_ct_protonum
	nop

	li	$3,17			# 0x11
	bne	$2,$3,$L172
	move	$4,$16

	.loc 1 1803 0
	jal	rtl_get_ct_udp_status
	nop

	andi	$2,$2,0x2
	bne	$2,$0,$L188
	li	$4,1			# 0x1

	.loc 1 1806 0
	move	$4,$0
$L188:
	move	$5,$16
	jal	udp_get_timeouts_by_state
	li	$6,1			# 0x1

	move	$18,$2
	.loc 1 1801 0
	j	$L174
	li	$20,1			# 0x1

$L172:
	.loc 1 1821 0
	jal	rtl_get_ct_protonum
	move	$5,$0

	li	$3,6			# 0x6
	bne	$2,$3,$L186
	li	$2,-1			# 0xffffffffffffffff

	.loc 1 1822 0 discriminator 1
	jal	rtl_get_ct_tcp_state
	move	$4,$16

	.loc 1 1821 0 discriminator 1
	sltu	$2,$2,6
	beq	$2,$0,$L186
	li	$2,-1			# 0xffffffffffffffff

	.loc 1 1824 0
	jal	rtl_tcp_get_timeouts
	move	$4,$16

	move	$18,$2
	.loc 1 1823 0
	li	$20,2			# 0x2
$L174:
	.loc 1 1835 0
	move	$5,$0
	move	$6,$0
	jal	rtl_get_ct_ip_by_dir
	move	$4,$16

	.loc 1 1836 0
	move	$4,$16
	li	$5,1			# 0x1
	li	$6,1			# 0x1
	jal	rtl_get_ct_ip_by_dir
	move	$17,$2

	.loc 1 1835 0
	bne	$17,$2,$L176
	li	$6,1			# 0x1

	.loc 1 1840 0
	move	$4,$16
	li	$5,1			# 0x1
	move	$6,$0
	jal	rtl_get_ct_ip_by_dir
	sw	$20,16($sp)

	.loc 1 1841 0
	move	$4,$16
	li	$5,1			# 0x1
	move	$6,$0
	jal	rtl_get_ct_port_by_dir
	sw	$2,20($sp)

	.loc 1 1842 0
	move	$4,$16
	move	$5,$0
	li	$6,1			# 0x1
	jal	rtl_get_ct_ip_by_dir
	sw	$2,24($sp)

	.loc 1 1843 0
	move	$4,$16
	move	$5,$0
	li	$6,1			# 0x1
	jal	rtl_get_ct_port_by_dir
	sw	$2,28($sp)

	.loc 1 1844 0
	move	$4,$16
	move	$5,$0
	move	$6,$0
	jal	rtl_get_ct_ip_by_dir
	sw	$2,32($sp)

	.loc 1 1845 0
	move	$4,$16
	j	$L191
	move	$5,$0

$L176:
	.loc 1 1870 0
	move	$5,$0
	jal	rtl_get_ct_ip_by_dir
	move	$4,$16

	.loc 1 1871 0
	move	$4,$16
	li	$5,1			# 0x1
	move	$6,$0
	jal	rtl_get_ct_ip_by_dir
	move	$17,$2

	.loc 1 1870 0
	bne	$17,$2,$L186
	li	$2,-1			# 0xffffffffffffffff

	.loc 1 1874 0
	move	$4,$16
	move	$5,$0
	move	$6,$0
	jal	rtl_get_ct_ip_by_dir
	sw	$20,16($sp)

	.loc 1 1875 0
	move	$4,$16
	move	$5,$0
	move	$6,$0
	jal	rtl_get_ct_port_by_dir
	sw	$2,20($sp)

	.loc 1 1876 0
	move	$4,$16
	li	$5,1			# 0x1
	li	$6,1			# 0x1
	jal	rtl_get_ct_ip_by_dir
	sw	$2,24($sp)

	.loc 1 1877 0
	move	$4,$16
	li	$5,1			# 0x1
	li	$6,1			# 0x1
	jal	rtl_get_ct_port_by_dir
	sw	$2,28($sp)

	.loc 1 1878 0
	move	$4,$16
	li	$5,1			# 0x1
	move	$6,$0
	jal	rtl_get_ct_ip_by_dir
	sw	$2,32($sp)

	.loc 1 1879 0
	move	$4,$16
	li	$5,1			# 0x1
$L191:
	move	$6,$0
	jal	rtl_get_ct_port_by_dir
	sw	$2,36($sp)

	.loc 1 1882 0
	lui	$3,%hi(FastPath_hook11)
	lw	$3,%lo(FastPath_hook11)($3)
	beq	$3,$0,$L177
	sw	$2,40($sp)

	.loc 1 1884 0
	addiu	$4,$sp,16
	jalr	$3
	move	$5,$18

	beq	$2,$0,$L177
	move	$4,$16

	.loc 1 1908 0
	jal	rtl_check_for_acc
	addu	$5,$18,$19

	.loc 1 1909 0
	j	$L186
	move	$2,$0

$L177:
	.loc 1 1911 0
	li	$2,-1			# 0xffffffffffffffff
$L186:
	.loc 1 1914 0
	lw	$31,68($sp)
	lw	$20,64($sp)
	lw	$19,60($sp)
	lw	$18,56($sp)
	lw	$17,52($sp)
	lw	$16,48($sp)
	j	$31
	addiu	$sp,$sp,72

	.cfi_def_cfa_offset 0
	.cfi_restore 16
	.cfi_restore 17
	.cfi_restore 18
	.cfi_restore 19
	.cfi_restore 20
	.cfi_restore 31
	.set	macro
	.set	reorder
	.end	rtl_fpTimer_update
	.cfi_endproc
$LFE3214:
	.size	rtl_fpTimer_update, .-rtl_fpTimer_update
	.align	2
	.globl	rtl_br_fdb_time_update
$LFB3215 = .
	.loc 1 1922 0
	.cfi_startproc
	.set	nomips16
	.ent	rtl_br_fdb_time_update
	.type	rtl_br_fdb_time_update, @function
rtl_br_fdb_time_update:
	.frame	$sp,32,$31		# vars= 0, regs= 4/0, args= 16, gp= 0
	.mask	0x80070000,-4
	.fmask	0x00000000,0
	.set	noreorder
	.set	nomacro
	addiu	$sp,$sp,-32
	.cfi_def_cfa_offset 32
	sw	$18,24($sp)
	sw	$17,20($sp)
	.cfi_offset 18, -8
	.cfi_offset 17, -12
	move	$18,$4
	move	$17,$5
	.loc 1 1936 0
	move	$4,$0
	move	$5,$6
	li	$6,2			# 0x2
	.loc 1 1922 0
	sw	$31,28($sp)
	.cfi_offset 31, -4
	.cfi_offset 16, -16
	.loc 1 1936 0
	jal	rtl_get_hw_fdb_age
	sw	$16,16($sp)

	.loc 1 1940 0
	li	$3,300			# 0x12c
	beq	$2,$3,$L194
	li	$3,450			# 0x1c2

	beq	$2,$3,$L195
	li	$3,150			# 0x96

	bne	$2,$3,$L193
	lui	$16,%hi(jiffies)

	j	$L196
	nop

$L195:
	.loc 1 1943 0
	lui	$16,%hi(jiffies)
	lw	$5,%lo(jiffies)($16)
	jal	rtl_set_fdb_aging
	move	$4,$17

	.loc 1 1944 0
	j	$L198
	move	$4,$17

$L194:
	.loc 1 1946 0
	lui	$16,%hi(jiffies)
	lw	$5,%lo(jiffies)($16)
	move	$4,$17
	jal	rtl_set_fdb_aging
	addiu	$5,$5,-15000

	.loc 1 1947 0
	j	$L198
	move	$4,$17

$L196:
	.loc 1 1949 0
	lw	$5,%lo(jiffies)($16)
	move	$4,$17
	jal	rtl_set_fdb_aging
	addiu	$5,$5,-30000

$L193:
	.loc 1 1963 0
	move	$4,$17
$L198:
	lw	$16,%lo(jiffies)($16)
	jal	rtl_get_fdb_aging
	nop

	move	$4,$18
	jal	rtl_hold_time
	move	$17,$2

	addu	$2,$2,$17
	.loc 1 1967 0
	lw	$31,28($sp)
	.loc 1 1963 0
	subu	$16,$16,$2
	nor	$2,$0,$16
	.loc 1 1967 0
	lw	$18,24($sp)
	lw	$17,20($sp)
	lw	$16,16($sp)
	sra	$2,$2,31
	j	$31
	addiu	$sp,$sp,32

	.cfi_def_cfa_offset 0
	.cfi_restore 16
	.cfi_restore 17
	.cfi_restore 18
	.cfi_restore 31
	.set	macro
	.set	reorder
	.end	rtl_br_fdb_time_update
	.cfi_endproc
$LFE3215:
	.size	rtl_br_fdb_time_update, .-rtl_br_fdb_time_update
	.align	2
	.globl	FastPath_Route
$LFB3216 = .
	.loc 1 1973 0
	.cfi_startproc
	.set	nomips16
	.ent	FastPath_Route
	.type	FastPath_Route, @function
FastPath_Route:
	.frame	$sp,0,$31		# vars= 0, regs= 0/0, args= 0, gp= 0
	.mask	0x00000000,0
	.fmask	0x00000000,0
	.set	noreorder
	.set	nomacro
	.loc 1 1978 0
	lui	$2,%hi(route_list_inuse)
	lw	$3,%lo(route_list_inuse)($2)
	.loc 1 1975 0
	move	$8,$0
	.loc 1 1978 0
	j	$L200
	move	$2,$0

$L202:
	.loc 1 1979 0
	lw	$5,8($3)
	sltu	$6,$5,$8
	bne	$6,$0,$L201
	and	$7,$4,$5

	.loc 1 1979 0 is_stmt 0 discriminator 1
	lw	$6,4($3)
	bne	$7,$6,$L201
	nop

	.loc 1 1980 0 is_stmt 1
	addiu	$2,$3,16
	move	$8,$5
$L201:
	.loc 1 1978 0
	lw	$3,44($3)
$L200:
	.loc 1 1978 0 is_stmt 0 discriminator 1
	bne	$3,$0,$L202
	nop

	.loc 1 1986 0 is_stmt 1
	j	$31
	nop

	.set	macro
	.set	reorder
	.end	FastPath_Route
	.cfi_endproc
$LFE3216:
	.size	FastPath_Route, .-FastPath_Route
	.section	.rodata.str1.4,"aMS",@progbits,1
	.align	2
$LC0:
	.ascii	"lo\000"
	.text
	.align	2
	.globl	enter_fast_path
$LFB3218 = .
	.loc 1 2073 0
	.cfi_startproc
	.set	nomips16
	.ent	enter_fast_path
	.type	enter_fast_path, @function
enter_fast_path:
	.frame	$sp,96,$31		# vars= 40, regs= 10/0, args= 16, gp= 0
	.mask	0xc0ff0000,-4
	.fmask	0x00000000,0
	addiu	$sp,$sp,-96
	.cfi_def_cfa_offset 96
	sw	$19,68($sp)
	.cfi_offset 19, -28
	move	$19,$4
	sw	$31,92($sp)
	sw	$17,60($sp)
	sw	$16,56($sp)
	sw	$fp,88($sp)
	sw	$23,84($sp)
	sw	$22,80($sp)
	sw	$21,76($sp)
	sw	$20,72($sp)
	.cfi_offset 31, -4
	.cfi_offset 17, -36
	.cfi_offset 16, -40
	.cfi_offset 30, -8
	.cfi_offset 23, -12
	.cfi_offset 22, -16
	.cfi_offset 21, -20
	.cfi_offset 20, -24
	.cfi_offset 18, -32
	.loc 1 2104 0
	.set	noreorder
	.set	nomacro
	jal	rtl_get_skb_dev_name
	sw	$18,64($sp)
	.set	macro
	.set	reorder

	.loc 1 2106 0
	move	$4,$19
	.set	noreorder
	.set	nomacro
	jal	rtl_ip_hdr
	move	$17,$2
	.set	macro
	.set	reorder

	.loc 1 2107 0
	lbu	$3,8($2)
	sltu	$3,$3,2
	.set	noreorder
	.set	nomacro
	bne	$3,$0,$L386
	move	$16,$2
	.set	macro
	.set	reorder

	.loc 1 2112 0
	lbu	$20,9($2)
	.loc 1 2116 0
	li	$3,6			# 0x6
	.set	noreorder
	.set	nomacro
	beq	$20,$3,$L206
	li	$2,17			# 0x11
	.set	macro
	.set	reorder

	.loc 1 2116 0 is_stmt 0 discriminator 1
	.set	noreorder
	.set	nomacro
	bne	$20,$2,$L358
	move	$18,$0
	.set	macro
	.set	reorder

$L206:
	.loc 1 2127 0 is_stmt 1
	lw	$22,0($16)
	.loc 1 2129 0
	move	$4,$16
	move	$6,$19
	.loc 1 2127 0
	ext	$22,$22,24,4
	sll	$22,$22,2
	addu	$22,$16,$22
	.loc 1 2129 0
	.set	noreorder
	.set	nomacro
	jal	fast_path_pre_process_check
	move	$5,$22
	.set	macro
	.set	reorder

	move	$18,$2
	.loc 1 2130 0
	li	$2,6			# 0x6
	.set	noreorder
	.set	nomacro
	bne	$18,$2,$L393
	lw	$31,92($sp)
	.set	macro
	.set	reorder

$LBB1269 = .
$LBB1270 = .
	.file 9 "/home/extra_home/marklee/rtk_OpenWRT_BB/BB_v1407/0629_co_2.4_pre_release/svn_test/rtk_BarrierBreaker_v14.07.x/build_dir/target-mips_24kec_uClibc-0.9.33.2/linux-rtkmips_rtl8198c/linux-3.10.49/arch/mips/include/asm/string.h"
	.loc 9 77 0
	lui	$2,%hi($LC0)
	addiu	$2,$2,%lo($LC0)
#APP
 # 77 "/home/extra_home/marklee/rtk_OpenWRT_BB/BB_v1407/0629_co_2.4_pre_release/svn_test/rtk_BarrierBreaker_v14.07.x/build_dir/target-mips_24kec_uClibc-0.9.33.2/linux-rtkmips_rtl8198c/linux-3.10.49/arch/mips/include/asm/string.h" 1
	.set	noreorder
	.set	noat
	lbu	$3,($17)
1:	lbu	$1,($2)
	addiu	$17,1
	bne	$1,$3,2f
	addiu	$2,1
	bnez	$3,1b
	lbu	$3,($17)
	move	$3,$1
2:	subu	$3,$1
3:	.set	at
	.set	reorder
 # 0 "" 2
#NO_APP
$LBE1270 = .
$LBE1269 = .
	.loc 1 2133 0
	beq	$3,$0,$L386
	.loc 1 2150 0
	lw	$3,16($16)
	.loc 1 2152 0
	lhu	$4,2($22)
	.loc 1 2148 0
	lhu	$2,6($16)
	.loc 1 2150 0
	sw	$3,20($sp)
	.loc 1 2156 0
	li	$3,6			# 0x6
	.loc 1 2149 0
	lw	$fp,12($16)
	.loc 1 2151 0
	lhu	$21,0($22)
	.loc 1 2156 0
	.set	noreorder
	.set	nomacro
	beq	$20,$3,$L208
	sw	$4,16($sp)
	.set	macro
	.set	reorder

	.set	noreorder
	.set	nomacro
	j	$L209
	andi	$3,$2,0x3fff
	.set	macro
	.set	reorder

$L208:
	.loc 1 2164 0
	andi	$3,$2,0x3fff
	.set	noreorder
	.set	nomacro
	beq	$3,$0,$L210
	li	$4,8192			# 0x2000
	.set	macro
	.set	reorder

	.loc 1 2165 0
	bne	$2,$4,$L211
	.loc 1 2177 0
	.set	noreorder
	.set	nomacro
	j	$L392
	lw	$4,12($22)
	.set	macro
	.set	reorder

$L391:
$LBB1271 = .
$LBB1272 = .
$LBB1273 = .
$LBB1274 = .
	.loc 1 711 0
	srl	$2,$fp,8
	xor	$3,$fp,$5
	.loc 1 712 0
	xori	$3,$3,0x6
	xor	$3,$3,$6
	.loc 1 713 0
	xor	$3,$3,$2
	.loc 1 716 0
	lui	$4,%hi(path_table_list_max)
	.loc 1 712 0
	srl	$2,$5,16
	.loc 1 714 0
	xor	$3,$3,$2
$LBE1274 = .
$LBE1273 = .
	.loc 1 2000 0
	lui	$7,%hi(table_path)
$LBB1277 = .
$LBB1275 = .
	.loc 1 713 0
	srl	$2,$21,4
	.loc 1 716 0
	lw	$4,%lo(path_table_list_max)($4)
	.loc 1 715 0
	xor	$2,$3,$2
$LBE1275 = .
$LBE1277 = .
	.loc 1 2000 0
	lw	$3,%lo(table_path)($7)
$LBB1278 = .
$LBB1276 = .
	.loc 1 716 0
	srl	$5,$2,12
	xor	$2,$5,$2
	addiu	$4,$4,-1
	and	$2,$2,$4
$LBE1276 = .
$LBE1278 = .
	.loc 1 2000 0
	lw	$3,4($3)
	sll	$5,$2,2
	sll	$2,$2,4
	subu	$2,$2,$5
	addu	$2,$3,$2
	sw	$7,24($sp)
	lw	$2,0($2)
$LBE1272 = .
$LBE1271 = .
	.loc 1 2004 0
	.set	noreorder
	.set	nomacro
	j	$L212
	li	$5,255			# 0xff
	.set	macro
	.set	reorder

$L217:
$LBB1291 = .
$LBB1285 = .
	.loc 1 2001 0
	lw	$3,12($2)
	.set	noreorder
	.set	nomacro
	bne	$21,$3,$L213
	lw	$9,16($sp)
	.set	macro
	.set	reorder

	lw	$3,8($2)
	bne	$9,$3,$L213
	.loc 1 2002 0
	lw	$3,16($2)
	.set	noreorder
	.set	nomacro
	bne	$fp,$3,$L213
	lw	$6,20($sp)
	.set	macro
	.set	reorder

	.loc 1 2003 0
	lw	$3,20($2)
	bne	$6,$3,$L213
	.loc 1 2004 0
	lbu	$3,0($2)
	.set	noreorder
	.set	nomacro
	bne	$3,$5,$L213
	li	$3,1			# 0x1
	.set	macro
	.set	reorder

	.loc 1 2007 0
	lbu	$5,2($2)
	.set	noreorder
	.set	nomacro
	bne	$5,$3,$L214
	sb	$0,0($2)
	.set	macro
	.set	reorder

	.loc 1 2008 0
	lw	$3,24($2)
	.loc 1 2018 0
	.set	noreorder
	.set	nomacro
	bne	$3,$0,$L380
	lw	$2,28($2)
	.set	macro
	.set	reorder

$LBE1285 = .
$LBE1291 = .
	.loc 1 2221 0
	.set	noreorder
	.set	nomacro
	j	$L358
	move	$18,$0
	.set	macro
	.set	reorder

$L214:
$LBB1292 = .
$LBB1286 = .
	.loc 1 2012 0
	lw	$3,32($2)
	.loc 1 2018 0
	.set	noreorder
	.set	nomacro
	bne	$3,$0,$L381
	lw	$2,36($2)
	.set	macro
	.set	reorder

$LBE1286 = .
$LBE1292 = .
	.loc 1 2221 0
	.set	noreorder
	.set	nomacro
	j	$L358
	move	$18,$0
	.set	macro
	.set	reorder

$L213:
$LBB1293 = .
$LBB1287 = .
	.loc 1 2000 0
	lw	$2,64($2)
$L212:
	.set	noreorder
	.set	nomacro
	bne	$2,$0,$L217
	move	$18,$0
	.set	macro
	.set	reorder

$LBE1287 = .
$LBE1293 = .
	.loc 1 2539 0
	.set	noreorder
	.set	nomacro
	j	$L393
	lw	$31,92($sp)
	.set	macro
	.set	reorder

$L380:
$LBB1294 = .
$LBB1288 = .
$LBB1279 = .
$LBB1280 = .
	.loc 1 711 0
	lw	$7,20($sp)
	.loc 1 713 0
	lw	$9,16($sp)
$LBE1280 = .
$LBE1279 = .
	.loc 1 2022 0
	andi	$2,$2,0xffff
$LBB1282 = .
$LBB1281 = .
	.loc 1 711 0
	srl	$5,$7,8
	xori	$6,$7,0x6
	.loc 1 712 0
	xor	$6,$6,$5
	.loc 1 713 0
	srl	$5,$9,4
	.loc 1 712 0
	xor	$5,$6,$5
	.loc 1 713 0
	xor	$5,$3,$5
	.loc 1 714 0
	xor	$2,$5,$2
	.loc 1 712 0
	srl	$3,$3,16
	.loc 1 715 0
	xor	$2,$2,$3
	.loc 1 716 0
	srl	$3,$2,12
	xor	$2,$3,$2
$LBE1281 = .
$LBE1282 = .
$LBE1288 = .
$LBE1294 = .
	.set	noreorder
	.set	nomacro
	j	$L218
	and	$2,$2,$4
	.set	macro
	.set	reorder

$L381:
$LBB1295 = .
$LBB1289 = .
$LBB1283 = .
$LBB1284 = .
	.loc 1 711 0
	xori	$6,$fp,0x6
	.loc 1 712 0
	xor	$6,$6,$21
	srl	$5,$fp,16
	xor	$5,$6,$5
	.loc 1 713 0
	xor	$5,$3,$5
	.loc 1 711 0
	srl	$3,$3,8
	.loc 1 714 0
	xor	$3,$5,$3
	.loc 1 713 0
	ext	$2,$2,4,12
	.loc 1 715 0
	xor	$2,$3,$2
	.loc 1 716 0
	srl	$3,$2,12
	xor	$2,$3,$2
	and	$2,$2,$4
$L218:
$LBE1284 = .
$LBE1283 = .
	.loc 1 2026 0
	lw	$4,24($sp)
	lw	$3,%lo(table_path)($4)
	sll	$4,$2,2
	sll	$2,$2,4
	lw	$3,4($3)
	subu	$2,$2,$4
	.loc 1 2030 0
	li	$4,255			# 0xff
	.loc 1 2026 0
	addu	$2,$3,$2
$LBE1289 = .
$LBE1295 = .
	.set	noreorder
	.set	nomacro
	j	$L219
	lw	$2,0($2)
	.set	macro
	.set	reorder

$L221:
$LBB1296 = .
$LBB1290 = .
	.loc 1 2027 0
	lw	$3,24($2)
	.set	noreorder
	.set	nomacro
	bne	$5,$3,$L220
	lw	$6,16($sp)
	.set	macro
	.set	reorder

	lw	$3,28($2)
	bne	$6,$3,$L220
	.loc 1 2028 0
	lw	$3,32($2)
	bne	$fp,$3,$L220
	.loc 1 2029 0
	lw	$3,36($2)
	bne	$21,$3,$L220
	.loc 1 2030 0
	lbu	$3,0($2)
	bne	$3,$4,$L220
	.loc 1 2032 0
	sb	$0,0($2)
$L220:
	.loc 1 2026 0
	lw	$2,64($2)
$L219:
	.set	noreorder
	.set	nomacro
	bne	$2,$0,$L221
	lw	$5,20($sp)
	.set	macro
	.set	reorder

$LBE1290 = .
$LBE1296 = .
	.loc 1 2221 0
	.set	noreorder
	.set	nomacro
	j	$L358
	move	$18,$0
	.set	macro
	.set	reorder

$L383:
	.loc 1 2181 0
	li	$5,393216			# 0x60000
	and	$4,$4,$5
	.set	noreorder
	.set	nomacro
	bne	$4,$0,$L358
	move	$18,$0
	.set	macro
	.set	reorder

$L209:
	.loc 1 2208 0
	.set	noreorder
	.set	nomacro
	bne	$3,$0,$L222
	lw	$7,20($sp)
	.set	macro
	.set	reorder

	.loc 1 2086 0
	li	$9,1			# 0x1
	.loc 1 2096 0
	move	$23,$0
	xor	$7,$7,$fp
	sw	$7,28($sp)
	.loc 1 2094 0
	sw	$0,48($sp)
	sw	$0,44($sp)
	.loc 1 2086 0
	.set	noreorder
	.set	nomacro
	j	$L223
	sw	$9,40($sp)
	.set	macro
	.set	reorder

$L222:
	.loc 1 2213 0
	li	$3,8192			# 0x2000
	beq	$2,$3,$L311
$L211:
	.loc 1 2215 0
	andi	$3,$2,0x2000
	bne	$3,$0,$L312
	.loc 1 2215 0 is_stmt 0 discriminator 1
	andi	$2,$2,0x1fff
	sltu	$2,$0,$2
	sw	$2,48($sp)
	.set	noreorder
	.set	nomacro
	j	$L224
	sw	$0,44($sp)
	.set	macro
	.set	reorder

$L311:
	.loc 1 2214 0 is_stmt 1
	li	$2,1			# 0x1
	.loc 1 2094 0
	sw	$0,48($sp)
	.loc 1 2214 0
	.set	noreorder
	.set	nomacro
	j	$L224
	sw	$2,44($sp)
	.set	macro
	.set	reorder

$L312:
	.loc 1 2094 0
	sw	$0,48($sp)
	sw	$0,44($sp)
$L224:
$LBB1297 = .
$LBB1298 = .
$LBB1299 = .
$LBB1300 = .
	.loc 1 353 0
	lw	$3,20($sp)
$LBE1300 = .
$LBE1299 = .
$LBE1298 = .
$LBE1297 = .
	.loc 1 2218 0
	lhu	$17,4($16)
	lbu	$23,9($16)
$LBB1328 = .
$LBB1325 = .
$LBB1304 = .
$LBB1301 = .
	.loc 1 353 0
	xor	$3,$3,$fp
	sw	$3,28($sp)
	.loc 1 355 0
	lw	$5,28($sp)
	lw	$6,28($sp)
	.loc 1 357 0
	lui	$4,%hi(max_udp_frag_entry)
	lw	$3,%lo(max_udp_frag_entry)($4)
	.loc 1 355 0
	srl	$5,$5,16
	xor	$2,$17,$6
$LBE1301 = .
$LBE1304 = .
$LBB1305 = .
$LBB1306 = .
	.loc 2 293 0
	lui	$7,%hi(negative_cache_table)
$LBE1306 = .
$LBE1305 = .
$LBB1309 = .
$LBB1302 = .
	.loc 1 355 0
	xor	$2,$2,$5
$LBE1302 = .
$LBE1309 = .
$LBB1310 = .
$LBB1307 = .
	.loc 2 293 0
	lw	$4,%lo(negative_cache_table)($7)
$LBE1307 = .
$LBE1310 = .
$LBB1311 = .
$LBB1303 = .
	.loc 1 356 0
	xor	$18,$2,$23
	.loc 1 355 0
	sw	$5,40($sp)
	.loc 1 356 0
	srl	$5,$2,8
	xor	$18,$18,$5
	.loc 1 357 0
	addiu	$3,$3,-1
$LBE1303 = .
$LBE1311 = .
$LBB1312 = .
$LBB1308 = .
	.loc 2 293 0
	.set	noreorder
	.set	nomacro
	jal	_raw_spin_lock
	and	$18,$18,$3
	.set	macro
	.set	reorder

$LBE1308 = .
$LBE1312 = .
	.loc 1 564 0
	lui	$9,%hi(negative_cache_table)
	lw	$4,%lo(negative_cache_table)($9)
	sll	$2,$18,2
	sll	$18,$18,4
	subu	$2,$18,$2
	addu	$2,$4,$2
	lw	$2,4($2)
$LBE1325 = .
$LBE1328 = .
	.loc 1 569 0
	.set	noreorder
	.set	nomacro
	j	$L225
	li	$5,3			# 0x3
	.set	macro
	.set	reorder

$L227:
$LBB1329 = .
$LBB1326 = .
	.loc 1 566 0
	lhu	$3,2($2)
	bne	$3,$17,$L226
	lw	$3,4($2)
	.set	noreorder
	.set	nomacro
	bne	$fp,$3,$L226
	lw	$6,20($sp)
	.set	macro
	.set	reorder

	.loc 1 567 0
	lw	$3,8($2)
	bne	$6,$3,$L226
	.loc 1 568 0
	lbu	$3,1($2)
	bne	$3,$23,$L226
	.loc 1 569 0
	lbu	$3,0($2)
	bne	$3,$5,$L226
$LBB1313 = .
$LBB1314 = .
$LBB1315 = .
$LBB1316 = .
$LBB1317 = .
$LBB1318 = .
	.loc 3 136 0
	lhu	$2,2($4)
	addiu	$2,$2,1
	.loc 3 137 0
#APP
 # 137 "/home/extra_home/marklee/rtk_OpenWRT_BB/BB_v1407/0629_co_2.4_pre_release/svn_test/rtk_BarrierBreaker_v14.07.x/build_dir/target-mips_24kec_uClibc-0.9.33.2/linux-rtkmips_rtl8198c/linux-3.10.49/arch/mips/include/asm/spinlock.h" 1
	.set	push
	.set	noreorder
	.set	mips2
	sync
	.set	pop
 # 0 "" 2
	.loc 3 138 0
#NO_APP
	sh	$2,2($4)
	.loc 3 139 0
#APP
 # 139 "/home/extra_home/marklee/rtk_OpenWRT_BB/BB_v1407/0629_co_2.4_pre_release/svn_test/rtk_BarrierBreaker_v14.07.x/build_dir/target-mips_24kec_uClibc-0.9.33.2/linux-rtkmips_rtl8198c/linux-3.10.49/arch/mips/include/asm/spinlock.h" 1
	.set	push
	.set	noreorder
	.set	mips2
	sync
	.set	pop
 # 0 "" 2
#NO_APP
$LBE1318 = .
$LBE1317 = .
$LBE1316 = .
	.loc 4 153 0
$L386:
$LBE1315 = .
$LBE1314 = .
$LBE1313 = .
$LBE1326 = .
$LBE1329 = .
	.loc 1 2221 0
	.set	noreorder
	.set	nomacro
	j	$L358
	move	$18,$0
	.set	macro
	.set	reorder

$L226:
$LBB1330 = .
$LBB1327 = .
	.loc 1 564 0
	lw	$2,40($2)
$L225:
	bne	$2,$0,$L227
$LBB1319 = .
$LBB1320 = .
$LBB1321 = .
$LBB1322 = .
$LBB1323 = .
$LBB1324 = .
	.loc 3 136 0
	lhu	$2,2($4)
	addiu	$2,$2,1
	.loc 3 137 0
#APP
 # 137 "/home/extra_home/marklee/rtk_OpenWRT_BB/BB_v1407/0629_co_2.4_pre_release/svn_test/rtk_BarrierBreaker_v14.07.x/build_dir/target-mips_24kec_uClibc-0.9.33.2/linux-rtkmips_rtl8198c/linux-3.10.49/arch/mips/include/asm/spinlock.h" 1
	.set	push
	.set	noreorder
	.set	mips2
	sync
	.set	pop
 # 0 "" 2
	.loc 3 138 0
#NO_APP
	sh	$2,2($4)
	.loc 3 139 0
#APP
 # 139 "/home/extra_home/marklee/rtk_OpenWRT_BB/BB_v1407/0629_co_2.4_pre_release/svn_test/rtk_BarrierBreaker_v14.07.x/build_dir/target-mips_24kec_uClibc-0.9.33.2/linux-rtkmips_rtl8198c/linux-3.10.49/arch/mips/include/asm/spinlock.h" 1
	.set	push
	.set	noreorder
	.set	mips2
	sync
	.set	pop
 # 0 "" 2
#NO_APP
$LBE1324 = .
$LBE1323 = .
$LBE1322 = .
	.loc 4 153 0
$LBE1321 = .
$LBE1320 = .
$LBE1319 = .
$LBE1327 = .
$LBE1330 = .
	.loc 1 2223 0
	lbu	$2,9($16)
	lw	$7,12($16)
	lw	$9,16($16)
	lhu	$17,4($16)
	sw	$2,36($sp)
$LBB1331 = .
$LBB1332 = .
$LBB1333 = .
$LBB1334 = .
	.loc 1 353 0
	xor	$3,$9,$7
	.loc 1 357 0
	lui	$5,%hi(max_udp_frag_entry)
	.loc 1 356 0
	lw	$6,36($sp)
	.loc 1 355 0
	xor	$4,$17,$3
$LBE1334 = .
$LBE1333 = .
	.loc 1 436 0
	lui	$18,%hi(udp_cache_table)
$LBB1337 = .
$LBB1335 = .
	.loc 1 355 0
	srl	$2,$3,16
	.loc 1 357 0
	lw	$3,%lo(max_udp_frag_entry)($5)
	.loc 1 355 0
	xor	$2,$4,$2
$LBE1335 = .
$LBE1337 = .
$LBB1338 = .
$LBB1339 = .
	.loc 2 293 0
	lw	$4,%lo(udp_cache_table)($18)
$LBE1339 = .
$LBE1338 = .
$LBB1341 = .
$LBB1336 = .
	.loc 1 356 0
	srl	$5,$2,8
	xor	$23,$2,$6
	.loc 1 357 0
	addiu	$3,$3,-1
	.loc 1 356 0
	xor	$23,$23,$5
	.loc 1 357 0
	and	$23,$23,$3
$LBE1336 = .
$LBE1341 = .
$LBE1332 = .
$LBE1331 = .
	.loc 1 2223 0
	sw	$7,24($sp)
$LBB1358 = .
$LBB1355 = .
$LBB1342 = .
$LBB1340 = .
	.loc 2 293 0
	.set	noreorder
	.set	nomacro
	jal	_raw_spin_lock
	sw	$9,32($sp)
	.set	macro
	.set	reorder

$LBE1340 = .
$LBE1342 = .
	.loc 1 439 0
	lw	$3,%lo(udp_cache_table)($18)
	sll	$4,$23,2
	sll	$23,$23,4
	lw	$2,4($3)
	subu	$23,$23,$4
	.loc 1 444 0
	li	$4,1			# 0x1
	.loc 1 439 0
	addu	$2,$2,$23
$LBE1355 = .
$LBE1358 = .
	.set	noreorder
	.set	nomacro
	j	$L228
	lw	$23,0($2)
	.set	macro
	.set	reorder

$L230:
$LBB1359 = .
$LBB1356 = .
	.loc 1 441 0
	lhu	$2,2($23)
	.set	noreorder
	.set	nomacro
	bne	$2,$17,$L229
	lw	$7,24($sp)
	.set	macro
	.set	reorder

	lw	$2,4($23)
	.set	noreorder
	.set	nomacro
	bne	$7,$2,$L229
	lw	$9,32($sp)
	.set	macro
	.set	reorder

	.loc 1 442 0
	lw	$2,8($23)
	.set	noreorder
	.set	nomacro
	bne	$9,$2,$L229
	lw	$5,36($sp)
	.set	macro
	.set	reorder

	.loc 1 443 0
	lbu	$2,1($23)
	bne	$2,$5,$L229
	.loc 1 444 0
	lbu	$2,0($23)
	bne	$2,$4,$L229
$LBB1343 = .
$LBB1344 = .
$LBB1345 = .
$LBB1346 = .
$LBB1347 = .
$LBB1348 = .
	.loc 3 136 0
	lhu	$2,2($3)
	addiu	$2,$2,1
	.loc 3 137 0
#APP
 # 137 "/home/extra_home/marklee/rtk_OpenWRT_BB/BB_v1407/0629_co_2.4_pre_release/svn_test/rtk_BarrierBreaker_v14.07.x/build_dir/target-mips_24kec_uClibc-0.9.33.2/linux-rtkmips_rtl8198c/linux-3.10.49/arch/mips/include/asm/spinlock.h" 1
	.set	push
	.set	noreorder
	.set	mips2
	sync
	.set	pop
 # 0 "" 2
	.loc 3 138 0
#NO_APP
	sh	$2,2($3)
	.loc 3 139 0
#APP
 # 139 "/home/extra_home/marklee/rtk_OpenWRT_BB/BB_v1407/0629_co_2.4_pre_release/svn_test/rtk_BarrierBreaker_v14.07.x/build_dir/target-mips_24kec_uClibc-0.9.33.2/linux-rtkmips_rtl8198c/linux-3.10.49/arch/mips/include/asm/spinlock.h" 1
	.set	push
	.set	noreorder
	.set	mips2
	sync
	.set	pop
 # 0 "" 2
#NO_APP
$LBE1348 = .
$LBE1347 = .
$LBE1346 = .
	.loc 4 153 0
$LBE1345 = .
$LBE1344 = .
$LBE1343 = .
$LBE1356 = .
$LBE1359 = .
	.loc 1 2229 0
	lhu	$6,14($23)
	.loc 1 2230 0
	lw	$7,44($sp)
	.loc 1 2228 0
	lhu	$21,12($23)
	.loc 1 2230 0
	.set	noreorder
	.set	nomacro
	bne	$7,$0,$L313
	sw	$6,16($sp)
	.set	macro
	.set	reorder

	.loc 1 2231 0
	.set	noreorder
	.set	nomacro
	j	$L223
	sw	$0,40($sp)
	.set	macro
	.set	reorder

$L229:
$LBB1360 = .
$LBB1357 = .
	.loc 1 439 0
	lw	$23,44($23)
$L228:
	bne	$23,$0,$L230
$LBB1349 = .
$LBB1350 = .
$LBB1351 = .
$LBB1352 = .
$LBB1353 = .
$LBB1354 = .
	.loc 3 136 0
	lhu	$2,2($3)
	addiu	$2,$2,1
	.loc 3 137 0
#APP
 # 137 "/home/extra_home/marklee/rtk_OpenWRT_BB/BB_v1407/0629_co_2.4_pre_release/svn_test/rtk_BarrierBreaker_v14.07.x/build_dir/target-mips_24kec_uClibc-0.9.33.2/linux-rtkmips_rtl8198c/linux-3.10.49/arch/mips/include/asm/spinlock.h" 1
	.set	push
	.set	noreorder
	.set	mips2
	sync
	.set	pop
 # 0 "" 2
	.loc 3 138 0
#NO_APP
	sh	$2,2($3)
	.loc 3 139 0
#APP
 # 139 "/home/extra_home/marklee/rtk_OpenWRT_BB/BB_v1407/0629_co_2.4_pre_release/svn_test/rtk_BarrierBreaker_v14.07.x/build_dir/target-mips_24kec_uClibc-0.9.33.2/linux-rtkmips_rtl8198c/linux-3.10.49/arch/mips/include/asm/spinlock.h" 1
	.set	push
	.set	noreorder
	.set	mips2
	sync
	.set	pop
 # 0 "" 2
#NO_APP
$LBE1354 = .
$LBE1353 = .
$LBE1352 = .
	.loc 4 153 0
$LBE1351 = .
$LBE1350 = .
$LBE1349 = .
$LBE1357 = .
$LBE1360 = .
	.loc 1 2235 0
	lw	$9,44($sp)
	.set	noreorder
	.set	nomacro
	bne	$9,$0,$L314
	li	$3,1			# 0x1
	.set	macro
	.set	reorder

	.loc 1 2238 0
	lhu	$17,4($16)
$LBB1361 = .
$LBB1362 = .
$LBB1363 = .
$LBB1364 = .
	.loc 1 355 0
	lw	$4,28($sp)
	lw	$5,40($sp)
$LBE1364 = .
$LBE1363 = .
$LBE1362 = .
$LBE1361 = .
	.loc 1 2238 0
	lbu	$16,9($16)
$LBB1386 = .
$LBB1383 = .
$LBB1368 = .
$LBB1365 = .
	.loc 1 357 0
	lui	$2,%hi(max_udp_frag_entry)
	lw	$3,%lo(max_udp_frag_entry)($2)
$LBE1365 = .
$LBE1368 = .
$LBB1369 = .
$LBB1370 = .
	.loc 2 293 0
	lui	$6,%hi(negative_cache_table)
$LBE1370 = .
$LBE1369 = .
$LBB1373 = .
$LBB1366 = .
	.loc 1 355 0
	xor	$2,$17,$4
	xor	$2,$2,$5
$LBE1366 = .
$LBE1373 = .
$LBB1374 = .
$LBB1371 = .
	.loc 2 293 0
	lw	$4,%lo(negative_cache_table)($6)
$LBE1371 = .
$LBE1374 = .
$LBB1375 = .
$LBB1367 = .
	.loc 1 356 0
	srl	$5,$2,8
	xor	$2,$2,$16
	xor	$18,$2,$5
	.loc 1 357 0
	addiu	$2,$3,-1
$LBE1367 = .
$LBE1375 = .
$LBB1376 = .
$LBB1372 = .
	.loc 2 293 0
	.set	noreorder
	.set	nomacro
	jal	_raw_spin_lock
	and	$18,$18,$2
	.set	macro
	.set	reorder

$LBE1372 = .
$LBE1376 = .
	.loc 1 594 0
	lui	$3,%hi(negative_cache_list_free)
	lw	$2,%lo(negative_cache_list_free)($3)
	.set	noreorder
	.set	nomacro
	bne	$2,$0,$L231
	lw	$7,20($sp)
	.set	macro
	.set	reorder

	.loc 1 598 0
	lui	$2,%hi(negative_cache_table)
$LBE1383 = .
$LBE1386 = .
	.set	noreorder
	.set	nomacro
	j	$L387
	lw	$2,%lo(negative_cache_table)($2)
	.set	macro
	.set	reorder

$L231:
$LBB1387 = .
$LBB1384 = .
	.loc 1 610 0
	lw	$4,48($2)
	.loc 1 609 0
	li	$5,3			# 0x3
	sb	$5,0($2)
	.loc 1 605 0
	sh	$17,2($2)
	.loc 1 606 0
	sw	$fp,4($2)
	.loc 1 607 0
	sw	$7,8($2)
	.loc 1 608 0
	sb	$16,1($2)
	.loc 1 610 0
	lw	$5,52($2)
	.set	noreorder
	.set	nomacro
	beq	$4,$0,$L232
	addiu	$3,$3,%lo(negative_cache_list_free)
	.set	macro
	.set	reorder

	sw	$5,52($4)
	lw	$4,48($2)
	.set	noreorder
	.set	nomacro
	j	$L233
	lw	$5,52($2)
	.set	macro
	.set	reorder

$L232:
	sw	$5,4($3)
$L233:
	li	$6,12			# 0xc
	mul	$18,$18,$6
	sw	$4,0($5)
	lw	$5,8($3)
	lui	$6,%hi(negative_cache_table)
	lw	$4,%lo(negative_cache_table)($6)
	addiu	$5,$5,-1
	.loc 1 611 0
	sw	$0,40($2)
	.loc 1 610 0
	sw	$5,8($3)
	.loc 1 611 0
	lui	$7,%hi(negative_cache_table)
	addiu	$6,$2,40
	addu	$3,$4,$18
	lw	$4,8($3)
	sw	$4,44($2)
	lw	$3,8($3)
	sw	$2,0($3)
	lw	$3,%lo(negative_cache_table)($7)
	addu	$4,$3,$18
	lw	$5,12($4)
	sw	$6,8($4)
	addiu	$5,$5,1
	sw	$5,12($4)
$LBB1377 = .
$LBB1378 = .
$LBB1379 = .
$LBB1380 = .
$LBB1381 = .
$LBB1382 = .
	.loc 3 136 0
	lhu	$4,2($3)
	addiu	$4,$4,1
	.loc 3 137 0
#APP
 # 137 "/home/extra_home/marklee/rtk_OpenWRT_BB/BB_v1407/0629_co_2.4_pre_release/svn_test/rtk_BarrierBreaker_v14.07.x/build_dir/target-mips_24kec_uClibc-0.9.33.2/linux-rtkmips_rtl8198c/linux-3.10.49/arch/mips/include/asm/spinlock.h" 1
	.set	push
	.set	noreorder
	.set	mips2
	sync
	.set	pop
 # 0 "" 2
	.loc 3 138 0
#NO_APP
	sh	$4,2($3)
	.loc 3 139 0
#APP
 # 139 "/home/extra_home/marklee/rtk_OpenWRT_BB/BB_v1407/0629_co_2.4_pre_release/svn_test/rtk_BarrierBreaker_v14.07.x/build_dir/target-mips_24kec_uClibc-0.9.33.2/linux-rtkmips_rtl8198c/linux-3.10.49/arch/mips/include/asm/spinlock.h" 1
	.set	push
	.set	noreorder
	.set	mips2
	sync
	.set	pop
 # 0 "" 2
#NO_APP
$LBE1382 = .
$LBE1381 = .
$LBE1380 = .
	.loc 4 153 0
$LBE1379 = .
$LBE1378 = .
$LBE1377 = .
	.loc 1 617 0
	lui	$3,%hi(jiffies)
	lw	$3,%lo(jiffies)($3)
	.loc 1 618 0
	addiu	$4,$2,12
$LBE1384 = .
$LBE1387 = .
	.loc 1 2239 0
	move	$18,$0
$LBB1388 = .
$LBB1385 = .
	.loc 1 617 0
	addiu	$3,$3,1000
	.loc 1 618 0
	.set	noreorder
	.set	nomacro
	jal	add_timer
	sw	$3,20($2)
	.set	macro
	.set	reorder

$LBE1385 = .
$LBE1388 = .
	.loc 1 2539 0
	.set	noreorder
	.set	nomacro
	j	$L393
	lw	$31,92($sp)
	.set	macro
	.set	reorder

$L313:
	li	$9,1			# 0x1
	.loc 1 2086 0
	li	$2,1			# 0x1
	sw	$9,44($sp)
	.set	noreorder
	.set	nomacro
	j	$L223
	sw	$2,40($sp)
	.set	macro
	.set	reorder

$L314:
	li	$4,1			# 0x1
	sw	$3,44($sp)
	sw	$4,40($sp)
$L223:
	.loc 1 2246 0
	lui	$5,%hi(table_path)
$LBB1389 = .
$LBB1390 = .
	.loc 1 712 0
	lw	$6,20($sp)
$LBE1390 = .
$LBE1389 = .
$LBB1395 = .
$LBB1396 = .
	.loc 2 293 0
	lw	$4,%lo(table_path)($5)
$LBE1396 = .
$LBE1395 = .
	.loc 1 2246 0
	sw	$5,24($sp)
$LBB1398 = .
$LBB1391 = .
	.loc 1 712 0
	srl	$6,$6,16
$LBE1391 = .
$LBE1398 = .
$LBB1399 = .
$LBB1397 = .
	.loc 2 293 0
	.set	noreorder
	.set	nomacro
	jal	_raw_spin_lock
	sw	$6,32($sp)
	.set	macro
	.set	reorder

$LBE1397 = .
$LBE1399 = .
$LBB1400 = .
$LBB1392 = .
	.loc 1 712 0
	lw	$7,32($sp)
	.loc 1 711 0
	srl	$3,$fp,8
	.loc 1 713 0
	lw	$9,16($sp)
	.loc 1 714 0
	lw	$2,28($sp)
	.loc 1 712 0
	xor	$3,$3,$20
	xor	$3,$3,$7
$LBE1392 = .
$LBE1400 = .
	.loc 1 2251 0
	lw	$5,24($sp)
$LBB1401 = .
$LBB1393 = .
	.loc 1 713 0
	xor	$3,$3,$9
	.loc 1 714 0
	xor	$3,$3,$2
	.loc 1 716 0
	lui	$2,%hi(path_table_list_max)
	.loc 1 713 0
	srl	$4,$21,4
	.loc 1 716 0
	lw	$2,%lo(path_table_list_max)($2)
	.loc 1 715 0
	xor	$4,$3,$4
$LBE1393 = .
$LBE1401 = .
	.loc 1 2251 0
	lw	$3,%lo(table_path)($5)
$LBB1402 = .
$LBB1394 = .
	.loc 1 716 0
	srl	$5,$4,12
	xor	$4,$5,$4
	addiu	$2,$2,-1
	and	$2,$4,$2
$LBE1394 = .
$LBE1402 = .
	.loc 1 2251 0
	lw	$4,4($3)
	sll	$5,$2,2
	sll	$2,$2,4
	subu	$2,$2,$5
	addu	$2,$4,$2
	lw	$17,0($2)
	.loc 1 2257 0
	li	$4,255			# 0xff
	.loc 1 2258 0
	li	$8,2			# 0x2
	.loc 1 2260 0
	li	$7,1			# 0x1
	li	$6,17			# 0x11
	.loc 1 2251 0
	.set	noreorder
	.set	nomacro
	j	$L234
	li	$5,6			# 0x6
	.set	macro
	.set	reorder

$L307:
	.loc 1 2253 0
	lw	$2,12($17)
	.set	noreorder
	.set	nomacro
	bne	$2,$21,$L235
	lw	$9,16($sp)
	.set	macro
	.set	reorder

	.loc 1 2254 0
	lw	$2,8($17)
	bne	$2,$9,$L235
	.loc 1 2255 0
	lw	$2,16($17)
	.set	noreorder
	.set	nomacro
	bne	$2,$fp,$L235
	lw	$9,20($sp)
	.set	macro
	.set	reorder

	.loc 1 2256 0
	lw	$2,20($17)
	bne	$2,$9,$L235
	.loc 1 2257 0
	lbu	$2,0($17)
	bne	$2,$4,$L235
	.loc 1 2259 0
	lw	$2,4($17)
	.loc 1 2258 0
	bne	$2,$8,$L236
	.loc 1 2259 0
	bne	$20,$5,$L235
$LBB1403 = .
	.loc 1 2264 0
	lw	$5,32($17)
$L394:
	lbu	$7,1($16)
	move	$4,$19
	.set	noreorder
	.set	nomacro
	jal	rtl_ip_route_input
	move	$6,$fp
	.set	macro
	.set	reorder

	.set	noreorder
	.set	nomacro
	bne	$2,$0,$L237
	move	$18,$2
	.set	macro
	.set	reorder

$LBE1403 = .
	.loc 1 2273 0
	.set	noreorder
	.set	nomacro
	j	$L390
	lw	$5,32($17)
	.set	macro
	.set	reorder

$L236:
	.loc 1 2260 0
	bne	$2,$7,$L235
	.loc 1 2260 0 is_stmt 0 discriminator 1
	bne	$20,$6,$L235
	.loc 1 2264 0 is_stmt 1
	.set	noreorder
	.set	nomacro
	j	$L394
	lw	$5,32($17)
	.set	macro
	.set	reorder

$L237:
$LBB1502 = .
	.loc 1 2266 0
	lw	$3,24($sp)
	lw	$2,%lo(table_path)($3)
$L387:
$LBB1404 = .
$LBB1405 = .
$LBB1406 = .
$LBB1407 = .
$LBB1408 = .
$LBB1409 = .
	.loc 3 136 0
	lhu	$3,2($2)
	addiu	$3,$3,1
	.loc 3 137 0
#APP
 # 137 "/home/extra_home/marklee/rtk_OpenWRT_BB/BB_v1407/0629_co_2.4_pre_release/svn_test/rtk_BarrierBreaker_v14.07.x/build_dir/target-mips_24kec_uClibc-0.9.33.2/linux-rtkmips_rtl8198c/linux-3.10.49/arch/mips/include/asm/spinlock.h" 1
	.set	push
	.set	noreorder
	.set	mips2
	sync
	.set	pop
 # 0 "" 2
	.loc 3 138 0
#NO_APP
	sh	$3,2($2)
	.loc 3 139 0
#APP
 # 139 "/home/extra_home/marklee/rtk_OpenWRT_BB/BB_v1407/0629_co_2.4_pre_release/svn_test/rtk_BarrierBreaker_v14.07.x/build_dir/target-mips_24kec_uClibc-0.9.33.2/linux-rtkmips_rtl8198c/linux-3.10.49/arch/mips/include/asm/spinlock.h" 1
	.set	push
	.set	noreorder
	.set	mips2
	sync
	.set	pop
 # 0 "" 2
#NO_APP
$LBE1409 = .
$LBE1408 = .
$LBE1407 = .
	.loc 4 153 0
$LBE1406 = .
$LBE1405 = .
$LBE1404 = .
	.loc 1 2268 0
	.set	noreorder
	.set	nomacro
	j	$L358
	move	$18,$0
	.set	macro
	.set	reorder

$L390:
	.loc 1 2273 0
	lw	$6,56($17)
	lbu	$7,1($17)
	.set	noreorder
	.set	nomacro
	jal	rtl_skb_dst_check
	move	$4,$19
	.set	macro
	.set	reorder

	li	$3,-1			# 0xffffffffffffffff
	beq	$2,$3,$L389
	.loc 1 2285 0
	li	$2,6			# 0x6
	.set	noreorder
	.set	nomacro
	bne	$20,$2,$L241
	addiu	$2,$22,6
	.set	macro
	.set	reorder

	.loc 1 2288 0
	addiu	$5,$22,16
	.set	noreorder
	.set	nomacro
	j	$L242
	sw	$5,36($sp)
	.set	macro
	.set	reorder

$L241:
	.loc 1 2294 0
	lhu	$3,6($22)
	.loc 1 2295 0
	movz	$2,$0,$3
	sw	$2,36($sp)
$L242:
	.loc 1 2304 0
	lw	$6,44($sp)
	.set	noreorder
	.set	nomacro
	beq	$6,$0,$L243
	lw	$2,48($sp)
	.set	macro
	.set	reorder

$LBB1410 = .
$LBB1411 = .
$LBB1412 = .
$LBB1413 = .
	.loc 1 355 0
	lw	$9,28($sp)
$LBE1413 = .
$LBE1412 = .
$LBE1411 = .
$LBE1410 = .
	.loc 1 2306 0
	lhu	$23,4($16)
$LBB1438 = .
$LBB1436 = .
$LBB1417 = .
$LBB1414 = .
	.loc 1 357 0
	lui	$2,%hi(max_udp_frag_entry)
	lw	$5,%lo(max_udp_frag_entry)($2)
	.loc 1 355 0
	xor	$3,$9,$23
	srl	$2,$9,16
$LBE1414 = .
$LBE1417 = .
	.loc 1 466 0
	lui	$7,%hi(udp_cache_table)
$LBB1418 = .
$LBB1415 = .
	.loc 1 355 0
	xor	$2,$3,$2
	.loc 1 356 0
	srl	$3,$2,8
$LBE1415 = .
$LBE1418 = .
$LBB1419 = .
$LBB1420 = .
	.loc 2 293 0
	lw	$4,%lo(udp_cache_table)($7)
$LBE1420 = .
$LBE1419 = .
$LBB1422 = .
$LBB1416 = .
	.loc 1 356 0
	xor	$2,$2,$20
	xor	$3,$2,$3
	.loc 1 357 0
	addiu	$2,$5,-1
	and	$2,$3,$2
	sw	$2,28($sp)
$LBE1416 = .
$LBE1422 = .
$LBB1423 = .
$LBB1421 = .
	.loc 2 293 0
	.set	noreorder
	.set	nomacro
	jal	_raw_spin_lock
	sw	$7,44($sp)
	.set	macro
	.set	reorder

$LBE1421 = .
$LBE1423 = .
	.loc 1 469 0
	lui	$3,%hi(udp_cache_list_free)
	lw	$2,%lo(udp_cache_list_free)($3)
	.set	noreorder
	.set	nomacro
	bne	$2,$0,$L244
	lw	$7,16($sp)
	.set	macro
	.set	reorder

	.loc 1 473 0
	lw	$3,44($sp)
	lw	$2,%lo(udp_cache_table)($3)
$LBB1424 = .
$LBB1425 = .
$LBB1426 = .
$LBB1427 = .
$LBB1428 = .
$LBB1429 = .
	.loc 3 136 0
	lhu	$3,2($2)
	addiu	$3,$3,1
	.loc 3 137 0
#APP
 # 137 "/home/extra_home/marklee/rtk_OpenWRT_BB/BB_v1407/0629_co_2.4_pre_release/svn_test/rtk_BarrierBreaker_v14.07.x/build_dir/target-mips_24kec_uClibc-0.9.33.2/linux-rtkmips_rtl8198c/linux-3.10.49/arch/mips/include/asm/spinlock.h" 1
	.set	push
	.set	noreorder
	.set	mips2
	sync
	.set	pop
 # 0 "" 2
	.loc 3 138 0
#NO_APP
	sh	$3,2($2)
	.loc 3 139 0
#APP
 # 139 "/home/extra_home/marklee/rtk_OpenWRT_BB/BB_v1407/0629_co_2.4_pre_release/svn_test/rtk_BarrierBreaker_v14.07.x/build_dir/target-mips_24kec_uClibc-0.9.33.2/linux-rtkmips_rtl8198c/linux-3.10.49/arch/mips/include/asm/spinlock.h" 1
	.set	push
	.set	noreorder
	.set	mips2
	sync
	.set	pop
 # 0 "" 2
#NO_APP
$LBE1429 = .
$LBE1428 = .
$LBE1427 = .
	.loc 4 153 0
$L389:
$LBE1426 = .
$LBE1425 = .
$LBE1424 = .
$LBE1436 = .
$LBE1438 = .
	.loc 1 2308 0
	.set	noreorder
	.set	nomacro
	jal	rtl_dst_release
	move	$4,$19
	.set	macro
	.set	reorder

	.loc 1 2310 0
	lw	$4,24($sp)
$LBE1502 = .
	.set	noreorder
	.set	nomacro
	j	$L388
	lw	$2,%lo(table_path)($4)
	.set	macro
	.set	reorder

$L244:
$LBB1503 = .
$LBB1439 = .
$LBB1437 = .
	.loc 1 482 0
	lw	$6,20($sp)
	.loc 1 487 0
	lw	$5,52($2)
	.loc 1 486 0
	li	$4,1			# 0x1
	.loc 1 480 0
	sh	$23,2($2)
	.loc 1 481 0
	sw	$fp,4($2)
	.loc 1 482 0
	sw	$6,8($2)
	.loc 1 483 0
	sb	$20,1($2)
	.loc 1 484 0
	sh	$21,12($2)
	.loc 1 485 0
	sh	$7,14($2)
	.loc 1 487 0
	.set	noreorder
	.set	nomacro
	beq	$5,$0,$L245
	sb	$4,0($2)
	.set	macro
	.set	reorder

	lw	$4,56($2)
	addiu	$3,$3,%lo(udp_cache_list_free)
	sw	$4,56($5)
	lw	$5,52($2)
	.set	noreorder
	.set	nomacro
	j	$L246
	lw	$6,56($2)
	.set	macro
	.set	reorder

$L245:
	lw	$6,56($2)
	addiu	$3,$3,%lo(udp_cache_list_free)
	sw	$6,4($3)
$L246:
	.loc 1 488 0
	lw	$7,28($sp)
	li	$4,12			# 0xc
	.loc 1 487 0
	sw	$5,0($6)
	.loc 1 488 0
	mul	$4,$7,$4
	lw	$9,44($sp)
	.loc 1 487 0
	lw	$6,8($3)
	.loc 1 488 0
	sw	$0,44($2)
	lw	$5,%lo(udp_cache_table)($9)
	.loc 1 487 0
	addiu	$6,$6,-1
	sw	$6,8($3)
	.loc 1 488 0
	lw	$3,4($5)
	addiu	$6,$2,44
	addu	$3,$3,$4
	lw	$3,4($3)
	sw	$3,48($2)
	lw	$3,4($5)
	addu	$3,$3,$4
	lw	$3,4($3)
	sw	$2,0($3)
	lw	$3,%lo(udp_cache_table)($9)
	lw	$5,4($3)
	addu	$5,$5,$4
	sw	$6,4($5)
	lw	$5,4($3)
	addu	$4,$5,$4
	lw	$5,8($4)
	addiu	$5,$5,1
	sw	$5,8($4)
$LBB1430 = .
$LBB1431 = .
$LBB1432 = .
$LBB1433 = .
$LBB1434 = .
$LBB1435 = .
	.loc 3 136 0
	lhu	$4,2($3)
	addiu	$4,$4,1
	.loc 3 137 0
#APP
 # 137 "/home/extra_home/marklee/rtk_OpenWRT_BB/BB_v1407/0629_co_2.4_pre_release/svn_test/rtk_BarrierBreaker_v14.07.x/build_dir/target-mips_24kec_uClibc-0.9.33.2/linux-rtkmips_rtl8198c/linux-3.10.49/arch/mips/include/asm/spinlock.h" 1
	.set	push
	.set	noreorder
	.set	mips2
	sync
	.set	pop
 # 0 "" 2
	.loc 3 138 0
#NO_APP
	sh	$4,2($3)
	.loc 3 139 0
#APP
 # 139 "/home/extra_home/marklee/rtk_OpenWRT_BB/BB_v1407/0629_co_2.4_pre_release/svn_test/rtk_BarrierBreaker_v14.07.x/build_dir/target-mips_24kec_uClibc-0.9.33.2/linux-rtkmips_rtl8198c/linux-3.10.49/arch/mips/include/asm/spinlock.h" 1
	.set	push
	.set	noreorder
	.set	mips2
	sync
	.set	pop
 # 0 "" 2
#NO_APP
$LBE1435 = .
$LBE1434 = .
$LBE1433 = .
	.loc 4 153 0
$LBE1432 = .
$LBE1431 = .
$LBE1430 = .
	.loc 1 493 0
	lui	$3,%hi(jiffies)
	lw	$3,%lo(jiffies)($3)
	.loc 1 494 0
	addiu	$4,$2,16
	.loc 1 493 0
	addiu	$3,$3,1000
	.loc 1 494 0
	.set	noreorder
	.set	nomacro
	jal	add_timer
	sw	$3,24($2)
	.set	macro
	.set	reorder

$LBE1437 = .
$LBE1439 = .
$LBE1503 = .
	.loc 1 2321 0
	.set	noreorder
	.set	nomacro
	j	$L395
	move	$4,$19
	.set	macro
	.set	reorder

$L243:
$LBB1504 = .
	.loc 1 2315 0
	.set	noreorder
	.set	nomacro
	beq	$2,$0,$L395
	move	$4,$19
	.set	macro
	.set	reorder

$LBB1440 = .
$LBB1441 = .
	.loc 1 389 0
	.set	noreorder
	.set	nomacro
	jal	del_timer
	addiu	$4,$23,16
	.set	macro
	.set	reorder

$LBB1442 = .
$LBB1443 = .
$LBB1444 = .
$LBB1445 = .
	.loc 1 353 0
	lw	$2,4($23)
	lw	$3,8($23)
	.loc 1 355 0
	lhu	$4,2($23)
	.loc 1 356 0
	lbu	$6,1($23)
	.loc 1 353 0
	xor	$3,$3,$2
	.loc 1 355 0
	srl	$2,$3,16
	xor	$3,$4,$3
	.loc 1 357 0
	lui	$4,%hi(max_udp_frag_entry)
	lw	$5,%lo(max_udp_frag_entry)($4)
$LBE1445 = .
$LBE1444 = .
	.loc 1 364 0
	lui	$4,%hi(udp_cache_table)
	sw	$4,44($sp)
$LBB1448 = .
$LBB1446 = .
	.loc 1 355 0
	xor	$2,$3,$2
$LBE1446 = .
$LBE1448 = .
$LBB1449 = .
$LBB1450 = .
	.loc 2 293 0
	lw	$4,%lo(udp_cache_table)($4)
$LBE1450 = .
$LBE1449 = .
$LBB1452 = .
$LBB1447 = .
	.loc 1 356 0
	srl	$3,$2,8
	xor	$2,$2,$6
	xor	$18,$2,$3
	.loc 1 357 0
	addiu	$2,$5,-1
$LBE1447 = .
$LBE1452 = .
$LBB1453 = .
$LBB1451 = .
	.loc 2 293 0
	.set	noreorder
	.set	nomacro
	jal	_raw_spin_lock
	and	$18,$18,$2
	.set	macro
	.set	reorder

$LBE1451 = .
$LBE1453 = .
	.loc 1 368 0
	lw	$2,44($23)
	.set	noreorder
	.set	nomacro
	beq	$2,$0,$L248
	sb	$0,0($23)
	.set	macro
	.set	reorder

	lw	$3,48($23)
$LBE1443 = .
$LBE1442 = .
$LBE1441 = .
$LBE1440 = .
$LBE1504 = .
	.set	noreorder
	.set	nomacro
	j	$L249
	sw	$3,48($2)
	.set	macro
	.set	reorder

$L248:
$LBB1505 = .
$LBB1463 = .
$LBB1462 = .
$LBB1461 = .
$LBB1460 = .
	lw	$5,44($sp)
	li	$4,12			# 0xc
	lw	$3,48($23)
	lw	$2,%lo(udp_cache_table)($5)
	mul	$5,$18,$4
	lw	$2,4($2)
	addu	$2,$5,$2
	sw	$3,4($2)
$L249:
	lw	$2,48($23)
	lw	$3,44($23)
	lw	$6,44($sp)
	.loc 1 371 0
	lw	$9,44($sp)
	.loc 1 368 0
	sw	$3,0($2)
	lw	$4,%lo(udp_cache_table)($6)
	li	$6,12			# 0xc
	mul	$7,$18,$6
	lw	$4,4($4)
	.loc 1 369 0
	lui	$2,%hi(udp_cache_list_free)
	addiu	$2,$2,%lo(udp_cache_list_free)
	lw	$3,4($2)
	addiu	$5,$23,52
	.loc 1 368 0
	addu	$18,$7,$4
	lw	$4,8($18)
	addiu	$4,$4,-1
	sw	$4,8($18)
	.loc 1 369 0
	sw	$3,56($23)
	sw	$0,52($23)
	sw	$23,0($3)
	lw	$4,8($2)
	.loc 1 371 0
	lw	$3,%lo(udp_cache_table)($9)
	.loc 1 369 0
	sw	$5,4($2)
	addiu	$4,$4,1
	sw	$4,8($2)
$LBB1454 = .
$LBB1455 = .
$LBB1456 = .
$LBB1457 = .
$LBB1458 = .
$LBB1459 = .
	.loc 3 136 0
	lhu	$2,2($3)
	addiu	$2,$2,1
	.loc 3 137 0
#APP
 # 137 "/home/extra_home/marklee/rtk_OpenWRT_BB/BB_v1407/0629_co_2.4_pre_release/svn_test/rtk_BarrierBreaker_v14.07.x/build_dir/target-mips_24kec_uClibc-0.9.33.2/linux-rtkmips_rtl8198c/linux-3.10.49/arch/mips/include/asm/spinlock.h" 1
	.set	push
	.set	noreorder
	.set	mips2
	sync
	.set	pop
 # 0 "" 2
	.loc 3 138 0
#NO_APP
	sh	$2,2($3)
	.loc 3 139 0
#APP
 # 139 "/home/extra_home/marklee/rtk_OpenWRT_BB/BB_v1407/0629_co_2.4_pre_release/svn_test/rtk_BarrierBreaker_v14.07.x/build_dir/target-mips_24kec_uClibc-0.9.33.2/linux-rtkmips_rtl8198c/linux-3.10.49/arch/mips/include/asm/spinlock.h" 1
	.set	push
	.set	noreorder
	.set	mips2
	sync
	.set	pop
 # 0 "" 2
#NO_APP
$LBE1459 = .
$LBE1458 = .
$LBE1457 = .
	.loc 4 153 0
$LBE1456 = .
$LBE1455 = .
$LBE1454 = .
$LBE1460 = .
$LBE1461 = .
$LBE1462 = .
$LBE1463 = .
	.loc 1 2321 0
	move	$4,$19
$L395:
	move	$5,$16
	.set	noreorder
	.set	nomacro
	jal	fast_path_before_nat_check
	move	$6,$20
	.set	macro
	.set	reorder

	.loc 1 2322 0
	li	$3,1			# 0x1
	.set	noreorder
	.set	nomacro
	bne	$2,$3,$L250
	li	$2,6			# 0x6
	.set	macro
	.set	reorder

	.loc 1 2325 0
	lw	$3,24($sp)
	lw	$2,%lo(table_path)($3)
$LBB1464 = .
$LBB1465 = .
$LBB1466 = .
$LBB1467 = .
$LBB1468 = .
$LBB1469 = .
	.loc 3 136 0
	lhu	$3,2($2)
	addiu	$3,$3,1
	.loc 3 137 0
#APP
 # 137 "/home/extra_home/marklee/rtk_OpenWRT_BB/BB_v1407/0629_co_2.4_pre_release/svn_test/rtk_BarrierBreaker_v14.07.x/build_dir/target-mips_24kec_uClibc-0.9.33.2/linux-rtkmips_rtl8198c/linux-3.10.49/arch/mips/include/asm/spinlock.h" 1
	.set	push
	.set	noreorder
	.set	mips2
	sync
	.set	pop
 # 0 "" 2
	.loc 3 138 0
#NO_APP
	sh	$3,2($2)
	.loc 3 139 0
#APP
 # 139 "/home/extra_home/marklee/rtk_OpenWRT_BB/BB_v1407/0629_co_2.4_pre_release/svn_test/rtk_BarrierBreaker_v14.07.x/build_dir/target-mips_24kec_uClibc-0.9.33.2/linux-rtkmips_rtl8198c/linux-3.10.49/arch/mips/include/asm/spinlock.h" 1
	.set	push
	.set	noreorder
	.set	mips2
	sync
	.set	pop
 # 0 "" 2
#NO_APP
$LBE1469 = .
$LBE1468 = .
$LBE1467 = .
	.loc 4 153 0
$LBE1466 = .
$LBE1465 = .
$LBE1464 = .
	.loc 1 2327 0
	.set	noreorder
	.set	nomacro
	j	$L358
	li	$18,1			# 0x1
	.set	macro
	.set	reorder

$L250:
	.loc 1 2332 0
	bne	$20,$2,$L251
	.loc 1 2333 0
	lw	$2,12($22)
	ext	$2,$2,20,1
	.set	noreorder
	.set	nomacro
	beq	$2,$0,$L251
	li	$2,40			# 0x28
	.set	macro
	.set	reorder

	.loc 1 2333 0 is_stmt 0 discriminator 1
	lhu	$3,2($16)
	.set	noreorder
	.set	nomacro
	bne	$3,$2,$L251
	move	$4,$19
	.set	macro
	.set	reorder

	.loc 1 2334 0 is_stmt 1
	.set	noreorder
	.set	nomacro
	jal	skb_trim
	li	$5,40			# 0x28
	.set	macro
	.set	reorder

$L251:
	.loc 1 2337 0
	lbu	$2,1($17)
	sltu	$3,$2,13
	.set	noreorder
	.set	nomacro
	beq	$3,$0,$L252
	lui	$3,%hi($L254)
	.set	macro
	.set	reorder

	sll	$2,$2,2
	addiu	$3,$3,%lo($L254)
	addu	$2,$3,$2
	lw	$2,0($2)
	j	$2
	.rdata
	.align	2
	.align	2
$L254:
	.word	$L253
	.word	$L255
	.word	$L256
	.word	$L256
	.word	$L257
	.word	$L252
	.word	$L252
	.word	$L252
	.word	$L258
	.word	$L252
	.word	$L252
	.word	$L252
	.word	$L258
	.text
$L255:
$LBB1470 = .
	.loc 1 2342 0
	lw	$3,24($17)
	srl	$5,$fp,16
	lhu	$4,10($16)
	srl	$2,$3,16
	andi	$3,$3,0xffff
	addu	$2,$2,$3
	subu	$2,$5,$2
	andi	$fp,$fp,0xffff
	addu	$2,$2,$fp
	addu	$2,$4,$2
	.set	noreorder
	.set	nomacro
	bgez	$2,$L259
	sra	$3,$2,16
	.set	macro
	.set	reorder

	.loc 1 2342 0 is_stmt 0 discriminator 1
	subu	$2,$0,$2
	sra	$3,$2,16
	andi	$2,$2,0xffff
	addu	$2,$3,$2
	sra	$3,$2,16
	addu	$2,$3,$2
	nor	$2,$0,$2
	.set	noreorder
	.set	nomacro
	j	$L260
	sh	$2,10($16)
	.set	macro
	.set	reorder

$L259:
	.loc 1 2342 0 discriminator 2
	andi	$2,$2,0xffff
	addu	$2,$3,$2
	sra	$3,$2,16
	addu	$2,$3,$2
	sh	$2,10($16)
$L260:
$LBE1470 = .
	.loc 1 2343 0 is_stmt 1
	lw	$4,40($sp)
	.set	noreorder
	.set	nomacro
	beq	$4,$0,$L270
	li	$2,17			# 0x11
	.set	macro
	.set	reorder

	.loc 1 2345 0
	.set	noreorder
	.set	nomacro
	bne	$20,$2,$L263
	lw	$9,36($sp)
	.set	macro
	.set	reorder

	.loc 1 2347 0
	lw	$5,36($sp)
	beq	$5,$0,$L270
	.loc 1 2347 0 is_stmt 0 discriminator 1
	lhu	$2,0($5)
	beq	$2,$0,$L270
$LBB1471 = .
	.loc 1 2350 0 is_stmt 1
	lw	$4,24($17)
	lw	$3,12($16)
	srl	$6,$4,16
	andi	$4,$4,0xffff
	srl	$5,$3,16
	addu	$4,$6,$4
	subu	$4,$5,$4
	andi	$3,$3,0xffff
	addu	$3,$4,$3
	addu	$2,$2,$3
	.set	noreorder
	.set	nomacro
	bgez	$2,$L265
	sra	$3,$2,16
	.set	macro
	.set	reorder

	.loc 1 2350 0 is_stmt 0 discriminator 1
	subu	$2,$0,$2
	sra	$3,$2,16
	andi	$2,$2,0xffff
	addu	$2,$3,$2
	sra	$3,$2,16
	lw	$6,36($sp)
	addu	$2,$3,$2
	nor	$2,$0,$2
	.set	noreorder
	.set	nomacro
	j	$L270
	sh	$2,0($6)
	.set	macro
	.set	reorder

$L265:
	.loc 1 2350 0 discriminator 2
	andi	$2,$2,0xffff
	addu	$2,$3,$2
	lw	$7,36($sp)
	sra	$3,$2,16
	addu	$2,$3,$2
$LBE1471 = .
$LBE1505 = .
	.set	noreorder
	.set	nomacro
	j	$L270
	sh	$2,0($7)
	.set	macro
	.set	reorder

$L263:
$LBB1506 = .
$LBB1472 = .
	.loc 1 2355 0 is_stmt 1
	lw	$4,24($17)
	lw	$3,12($16)
	srl	$2,$4,16
	andi	$4,$4,0xffff
	srl	$6,$3,16
	lhu	$5,0($9)
	addu	$2,$2,$4
	subu	$2,$6,$2
	andi	$3,$3,0xffff
	addu	$2,$2,$3
	addu	$2,$5,$2
	.set	noreorder
	.set	nomacro
	bgez	$2,$L266
	sra	$3,$2,16
	.set	macro
	.set	reorder

	.loc 1 2355 0 is_stmt 0 discriminator 1
	subu	$2,$0,$2
	sra	$3,$2,16
	andi	$2,$2,0xffff
	addu	$2,$3,$2
	sra	$3,$2,16
	addu	$2,$3,$2
	nor	$2,$0,$2
	.set	noreorder
	.set	nomacro
	j	$L267
	sh	$2,0($9)
	.set	macro
	.set	reorder

$L266:
	.loc 1 2355 0 discriminator 2
	andi	$2,$2,0xffff
	addu	$2,$3,$2
	sra	$3,$2,16
	addu	$2,$3,$2
	lw	$3,36($sp)
	sh	$2,0($3)
$L267:
$LBE1472 = .
	.loc 1 2356 0 is_stmt 1
	lw	$2,12($22)
	ext	$2,$2,20,1
	.set	noreorder
	.set	nomacro
	beq	$2,$0,$L270
	li	$2,40			# 0x28
	.set	macro
	.set	reorder

	.loc 1 2356 0 is_stmt 0 discriminator 1
	lhu	$3,2($16)
	.set	noreorder
	.set	nomacro
	bne	$3,$2,$L270
	move	$4,$19
	.set	macro
	.set	reorder

	.loc 1 2357 0 is_stmt 1
	.set	noreorder
	.set	nomacro
	jal	skb_trim
	li	$5,40			# 0x28
	.set	macro
	.set	reorder

$LBE1506 = .
	.loc 1 2385 0
	.set	noreorder
	.set	nomacro
	j	$L396
	lw	$2,24($17)
	.set	macro
	.set	reorder

$L256:
$LBB1507 = .
$LBB1473 = .
	.loc 1 2365 0
	lw	$3,24($17)
	srl	$5,$fp,16
	lhu	$4,10($16)
	srl	$2,$3,16
	andi	$3,$3,0xffff
	addu	$2,$2,$3
	subu	$2,$5,$2
	andi	$fp,$fp,0xffff
	addu	$2,$2,$fp
	addu	$2,$4,$2
	.set	noreorder
	.set	nomacro
	bgez	$2,$L268
	sra	$3,$2,16
	.set	macro
	.set	reorder

	.loc 1 2365 0 is_stmt 0 discriminator 1
	subu	$2,$0,$2
	sra	$3,$2,16
	andi	$2,$2,0xffff
	addu	$2,$3,$2
	sra	$3,$2,16
	addu	$2,$3,$2
	nor	$2,$0,$2
	.set	noreorder
	.set	nomacro
	j	$L269
	sh	$2,10($16)
	.set	macro
	.set	reorder

$L268:
	.loc 1 2365 0 discriminator 2
	andi	$2,$2,0xffff
	addu	$2,$3,$2
	sra	$3,$2,16
	addu	$2,$3,$2
	sh	$2,10($16)
$L269:
$LBE1473 = .
	.loc 1 2366 0 is_stmt 1
	lw	$4,40($sp)
	.set	noreorder
	.set	nomacro
	beq	$4,$0,$L270
	li	$2,17			# 0x11
	.set	macro
	.set	reorder

	.loc 1 2368 0
	.set	noreorder
	.set	nomacro
	bne	$20,$2,$L271
	lw	$9,36($sp)
	.set	macro
	.set	reorder

	.loc 1 2371 0
	lw	$5,36($sp)
	beq	$5,$0,$L273
	.loc 1 2371 0 is_stmt 0 discriminator 1
	lhu	$2,0($5)
	beq	$2,$0,$L273
$LBB1474 = .
	.loc 1 2374 0 is_stmt 1
	lw	$4,24($17)
	lw	$3,12($16)
	lhu	$5,0($22)
	srl	$7,$4,16
	andi	$4,$4,0xffff
	srl	$6,$3,16
	addu	$4,$7,$4
	subu	$6,$6,$4
	andi	$3,$3,0xffff
	lw	$4,28($17)
	addu	$3,$6,$3
	addu	$3,$5,$3
	subu	$3,$3,$4
	addu	$2,$2,$3
	.set	noreorder
	.set	nomacro
	bgez	$2,$L275
	sra	$3,$2,16
	.set	macro
	.set	reorder

	.loc 1 2374 0 is_stmt 0 discriminator 1
	subu	$2,$0,$2
	sra	$3,$2,16
	andi	$2,$2,0xffff
	addu	$2,$3,$2
	sra	$3,$2,16
	lw	$6,36($sp)
	addu	$2,$3,$2
	nor	$2,$0,$2
	.set	noreorder
	.set	nomacro
	j	$L273
	sh	$2,0($6)
	.set	macro
	.set	reorder

$L275:
	.loc 1 2374 0 discriminator 2
	andi	$2,$2,0xffff
	addu	$2,$3,$2
	lw	$7,36($sp)
	sra	$3,$2,16
	addu	$2,$3,$2
$LBE1474 = .
$LBE1507 = .
	.set	noreorder
	.set	nomacro
	j	$L273
	sh	$2,0($7)
	.set	macro
	.set	reorder

$L271:
$LBB1508 = .
$LBB1475 = .
	.loc 1 2379 0 is_stmt 1
	lw	$3,24($17)
	lw	$2,12($16)
	andi	$6,$3,0xffff
	srl	$3,$3,16
	srl	$4,$2,16
	lhu	$5,0($22)
	addu	$3,$6,$3
	subu	$3,$4,$3
	andi	$2,$2,0xffff
	lw	$4,28($17)
	addu	$2,$3,$2
	lhu	$3,0($9)
	addu	$2,$5,$2
	subu	$2,$2,$4
	addu	$2,$3,$2
	.set	noreorder
	.set	nomacro
	bgez	$2,$L276
	sra	$3,$2,16
	.set	macro
	.set	reorder

	.loc 1 2379 0 is_stmt 0 discriminator 1
	subu	$2,$0,$2
	sra	$3,$2,16
	andi	$2,$2,0xffff
	addu	$2,$3,$2
	sra	$3,$2,16
	addu	$2,$3,$2
	nor	$2,$0,$2
	.set	noreorder
	.set	nomacro
	j	$L277
	sh	$2,0($9)
	.set	macro
	.set	reorder

$L276:
	.loc 1 2379 0 discriminator 2
	andi	$2,$2,0xffff
	addu	$2,$3,$2
	sra	$3,$2,16
	addu	$2,$3,$2
	lw	$3,36($sp)
	sh	$2,0($3)
$L277:
$LBE1475 = .
	.loc 1 2380 0 is_stmt 1
	lw	$2,12($22)
	ext	$2,$2,20,1
	.set	noreorder
	.set	nomacro
	beq	$2,$0,$L273
	li	$2,40			# 0x28
	.set	macro
	.set	reorder

	.loc 1 2380 0 is_stmt 0 discriminator 1
	lhu	$3,2($16)
	.set	noreorder
	.set	nomacro
	bne	$3,$2,$L273
	move	$4,$19
	.set	macro
	.set	reorder

	.loc 1 2381 0 is_stmt 1
	.set	noreorder
	.set	nomacro
	jal	skb_trim
	li	$5,40			# 0x28
	.set	macro
	.set	reorder

$L273:
	.loc 1 2383 0
	lw	$2,28($17)
	sh	$2,0($22)
$L270:
	.loc 1 2385 0
	lw	$2,24($17)
$L396:
	.loc 1 2386 0
	.set	noreorder
	.set	nomacro
	j	$L253
	sw	$2,12($16)
	.set	macro
	.set	reorder

$L257:
$LBB1476 = .
	.loc 1 2397 0
	lw	$4,32($17)
	lw	$5,32($sp)
	lhu	$3,22($sp)
	andi	$2,$4,0xffff
	srl	$4,$4,16
	addu	$3,$3,$5
	lhu	$5,10($16)
	subu	$2,$3,$2
	subu	$2,$2,$4
	addu	$2,$5,$2
	.set	noreorder
	.set	nomacro
	bgez	$2,$L278
	sra	$4,$2,16
	.set	macro
	.set	reorder

	.loc 1 2397 0 is_stmt 0 discriminator 1
	subu	$2,$0,$2
	sra	$4,$2,16
	andi	$2,$2,0xffff
	addu	$2,$4,$2
	sra	$4,$2,16
	addu	$2,$4,$2
	nor	$2,$0,$2
	.set	noreorder
	.set	nomacro
	j	$L279
	sh	$2,10($16)
	.set	macro
	.set	reorder

$L278:
	.loc 1 2397 0 discriminator 2
	andi	$2,$2,0xffff
	addu	$2,$4,$2
	sra	$4,$2,16
	addu	$2,$4,$2
	sh	$2,10($16)
$L279:
$LBE1476 = .
	.loc 1 2398 0 is_stmt 1
	lw	$6,40($sp)
	.set	noreorder
	.set	nomacro
	beq	$6,$0,$L385
	li	$2,17			# 0x11
	.set	macro
	.set	reorder

	.loc 1 2400 0
	.set	noreorder
	.set	nomacro
	bne	$20,$2,$L281
	lw	$2,36($sp)
	.set	macro
	.set	reorder

	.loc 1 2403 0
	lw	$7,36($sp)
	beq	$7,$0,$L385
	.loc 1 2403 0 is_stmt 0 discriminator 1
	lhu	$2,0($7)
	beq	$2,$0,$L385
$LBB1477 = .
	.loc 1 2406 0 is_stmt 1
	lw	$4,32($17)
	andi	$5,$4,0xffff
	subu	$3,$3,$5
	srl	$4,$4,16
	subu	$3,$3,$4
	addu	$2,$2,$3
	.set	noreorder
	.set	nomacro
	bgez	$2,$L282
	sra	$3,$2,16
	.set	macro
	.set	reorder

	.loc 1 2406 0 is_stmt 0 discriminator 1
	subu	$2,$0,$2
	sra	$3,$2,16
	andi	$2,$2,0xffff
	addu	$2,$3,$2
	sra	$3,$2,16
	addu	$2,$3,$2
	nor	$2,$0,$2
	.set	noreorder
	.set	nomacro
	j	$L385
	sh	$2,0($7)
	.set	macro
	.set	reorder

$L282:
	.loc 1 2406 0 discriminator 2
	andi	$2,$2,0xffff
	addu	$2,$3,$2
	lw	$9,36($sp)
	sra	$3,$2,16
	addu	$2,$3,$2
$LBE1477 = .
$LBE1508 = .
	.set	noreorder
	.set	nomacro
	j	$L385
	sh	$2,0($9)
	.set	macro
	.set	reorder

$L281:
$LBB1509 = .
$LBB1478 = .
	.loc 1 2411 0 is_stmt 1
	lw	$4,32($17)
	lhu	$5,0($2)
	andi	$2,$4,0xffff
	subu	$2,$3,$2
	srl	$4,$4,16
	subu	$2,$2,$4
	addu	$2,$5,$2
	.set	noreorder
	.set	nomacro
	bgez	$2,$L283
	sra	$3,$2,16
	.set	macro
	.set	reorder

	.loc 1 2411 0 is_stmt 0 discriminator 1
	subu	$2,$0,$2
	sra	$3,$2,16
	andi	$2,$2,0xffff
	addu	$2,$3,$2
	sra	$3,$2,16
	addu	$2,$3,$2
	lw	$3,36($sp)
	nor	$2,$0,$2
	.set	noreorder
	.set	nomacro
	j	$L385
	sh	$2,0($3)
	.set	macro
	.set	reorder

$L283:
	.loc 1 2411 0 discriminator 2
	andi	$2,$2,0xffff
	addu	$2,$3,$2
	lw	$4,36($sp)
	sra	$3,$2,16
	addu	$2,$3,$2
$LBE1478 = .
$LBE1509 = .
	.set	noreorder
	.set	nomacro
	j	$L385
	sh	$2,0($4)
	.set	macro
	.set	reorder

$L258:
$LBB1510 = .
$LBB1479 = .
	.loc 1 2427 0 is_stmt 1
	lw	$4,32($17)
	lw	$5,32($sp)
	lhu	$3,22($sp)
	andi	$2,$4,0xffff
	srl	$4,$4,16
	addu	$3,$3,$5
	lhu	$5,10($16)
	subu	$2,$3,$2
	subu	$2,$2,$4
	addu	$2,$5,$2
	.set	noreorder
	.set	nomacro
	bgez	$2,$L284
	sra	$4,$2,16
	.set	macro
	.set	reorder

	.loc 1 2427 0 is_stmt 0 discriminator 1
	subu	$2,$0,$2
	sra	$4,$2,16
	andi	$2,$2,0xffff
	addu	$2,$4,$2
	sra	$4,$2,16
	addu	$2,$4,$2
	nor	$2,$0,$2
	.set	noreorder
	.set	nomacro
	j	$L285
	sh	$2,10($16)
	.set	macro
	.set	reorder

$L284:
	.loc 1 2427 0 discriminator 2
	andi	$2,$2,0xffff
	addu	$2,$4,$2
	sra	$4,$2,16
	addu	$2,$4,$2
	sh	$2,10($16)
$L285:
$LBE1479 = .
	.loc 1 2428 0 is_stmt 1
	lw	$6,40($sp)
	.set	noreorder
	.set	nomacro
	beq	$6,$0,$L385
	li	$2,17			# 0x11
	.set	macro
	.set	reorder

	.loc 1 2430 0
	.set	noreorder
	.set	nomacro
	bne	$20,$2,$L287
	lw	$7,36($sp)
	.set	macro
	.set	reorder

	.loc 1 2433 0
	beq	$7,$0,$L288
	.loc 1 2433 0 is_stmt 0 discriminator 1
	lhu	$2,0($7)
	beq	$2,$0,$L288
$LBB1480 = .
	.loc 1 2436 0 is_stmt 1
	lw	$4,32($17)
	lhu	$6,2($22)
	lw	$5,36($17)
	andi	$7,$4,0xffff
	subu	$3,$3,$7
	srl	$4,$4,16
	subu	$3,$3,$4
	addu	$3,$6,$3
	subu	$3,$3,$5
	addu	$2,$2,$3
	.set	noreorder
	.set	nomacro
	bgez	$2,$L289
	sra	$3,$2,16
	.set	macro
	.set	reorder

	.loc 1 2436 0 is_stmt 0 discriminator 1
	subu	$2,$0,$2
	sra	$3,$2,16
	andi	$2,$2,0xffff
	addu	$2,$3,$2
	sra	$3,$2,16
	lw	$9,36($sp)
	addu	$2,$3,$2
	nor	$2,$0,$2
	.set	noreorder
	.set	nomacro
	j	$L288
	sh	$2,0($9)
	.set	macro
	.set	reorder

$L289:
	.loc 1 2436 0 discriminator 2
	andi	$2,$2,0xffff
	addu	$2,$3,$2
	sra	$3,$2,16
	addu	$2,$3,$2
	lw	$3,36($sp)
$LBE1480 = .
$LBE1510 = .
	.set	noreorder
	.set	nomacro
	j	$L288
	sh	$2,0($3)
	.set	macro
	.set	reorder

$L287:
$LBB1511 = .
$LBB1481 = .
	.loc 1 2441 0 is_stmt 1
	lw	$2,32($17)
	lhu	$5,2($22)
	lw	$4,36($17)
	andi	$6,$2,0xffff
	subu	$3,$3,$6
	lw	$6,36($sp)
	srl	$2,$2,16
	subu	$2,$3,$2
	lhu	$3,0($6)
	addu	$2,$5,$2
	subu	$2,$2,$4
	addu	$2,$3,$2
	.set	noreorder
	.set	nomacro
	bgez	$2,$L290
	sra	$3,$2,16
	.set	macro
	.set	reorder

	.loc 1 2441 0 is_stmt 0 discriminator 1
	subu	$2,$0,$2
	sra	$3,$2,16
	andi	$2,$2,0xffff
	addu	$2,$3,$2
	sra	$3,$2,16
	addu	$2,$3,$2
	nor	$2,$0,$2
	.set	noreorder
	.set	nomacro
	j	$L288
	sh	$2,0($6)
	.set	macro
	.set	reorder

$L290:
	.loc 1 2441 0 discriminator 2
	andi	$2,$2,0xffff
	addu	$2,$3,$2
	lw	$7,36($sp)
	sra	$3,$2,16
	addu	$2,$3,$2
	sh	$2,0($7)
$L288:
$LBE1481 = .
	.loc 1 2443 0 is_stmt 1
	lw	$2,36($17)
$LBE1511 = .
	.set	noreorder
	.set	nomacro
	j	$L385
	sh	$2,2($22)
	.set	macro
	.set	reorder

$L252:
$LBB1512 = .
$LBB1482 = .
	.loc 1 2449 0
	lw	$3,24($17)
	andi	$4,$fp,0xffff
	srl	$fp,$fp,16
	andi	$2,$3,0xffff
	addu	$4,$4,$fp
	lhu	$5,10($16)
	subu	$2,$4,$2
	srl	$3,$3,16
	subu	$2,$2,$3
	addu	$2,$5,$2
	.set	noreorder
	.set	nomacro
	bgez	$2,$L291
	sra	$3,$2,16
	.set	macro
	.set	reorder

	.loc 1 2449 0 is_stmt 0 discriminator 1
	subu	$2,$0,$2
	sra	$3,$2,16
	andi	$2,$2,0xffff
	addu	$2,$3,$2
	sra	$3,$2,16
	addu	$2,$3,$2
	nor	$2,$0,$2
	.set	noreorder
	.set	nomacro
	j	$L292
	sh	$2,10($16)
	.set	macro
	.set	reorder

$L291:
	.loc 1 2449 0 discriminator 2
	andi	$2,$2,0xffff
	addu	$2,$3,$2
	sra	$3,$2,16
	addu	$2,$3,$2
	sh	$2,10($16)
$L292:
$LBE1482 = .
$LBB1483 = .
	.loc 1 2450 0 is_stmt 1
	lw	$5,32($17)
	lhu	$3,22($sp)
	lw	$9,32($sp)
	andi	$2,$5,0xffff
	lhu	$6,10($16)
	addu	$3,$3,$9
	subu	$2,$3,$2
	srl	$5,$5,16
	subu	$2,$2,$5
	addu	$2,$6,$2
	.set	noreorder
	.set	nomacro
	bgez	$2,$L293
	sra	$5,$2,16
	.set	macro
	.set	reorder

	.loc 1 2450 0 is_stmt 0 discriminator 1
	subu	$2,$0,$2
	sra	$5,$2,16
	andi	$2,$2,0xffff
	addu	$2,$5,$2
	sra	$5,$2,16
	addu	$2,$5,$2
	nor	$2,$0,$2
	.set	noreorder
	.set	nomacro
	j	$L294
	sh	$2,10($16)
	.set	macro
	.set	reorder

$L293:
	.loc 1 2450 0 discriminator 2
	andi	$2,$2,0xffff
	addu	$2,$5,$2
	sra	$5,$2,16
	addu	$2,$5,$2
	sh	$2,10($16)
$L294:
$LBE1483 = .
	.loc 1 2452 0 is_stmt 1
	lw	$2,40($sp)
	.set	noreorder
	.set	nomacro
	beq	$2,$0,$L295
	li	$2,17			# 0x11
	.set	macro
	.set	reorder

	.loc 1 2454 0
	.set	noreorder
	.set	nomacro
	bne	$20,$2,$L296
	lw	$5,36($sp)
	.set	macro
	.set	reorder

	.loc 1 2457 0
	beq	$5,$0,$L297
	.loc 1 2457 0 is_stmt 0 discriminator 1
	lhu	$2,0($5)
	beq	$2,$0,$L297
$LBB1484 = .
	.loc 1 2460 0 is_stmt 1
	lw	$5,24($17)
	lhu	$7,0($22)
	lw	$6,28($17)
	andi	$8,$5,0xffff
	subu	$4,$4,$8
	srl	$5,$5,16
	subu	$4,$4,$5
	addu	$4,$7,$4
	subu	$4,$4,$6
	addu	$2,$2,$4
	.set	noreorder
	.set	nomacro
	bgez	$2,$L298
	sra	$4,$2,16
	.set	macro
	.set	reorder

	.loc 1 2460 0 is_stmt 0 discriminator 1
	subu	$2,$0,$2
	sra	$4,$2,16
	andi	$2,$2,0xffff
	addu	$2,$4,$2
	sra	$4,$2,16
	lw	$6,36($sp)
	addu	$2,$4,$2
	nor	$2,$0,$2
	.set	noreorder
	.set	nomacro
	j	$L299
	sh	$2,0($6)
	.set	macro
	.set	reorder

$L298:
	.loc 1 2460 0 discriminator 2
	andi	$2,$2,0xffff
	addu	$2,$4,$2
	lw	$7,36($sp)
	sra	$4,$2,16
	addu	$2,$4,$2
	sh	$2,0($7)
$L299:
$LBE1484 = .
$LBB1485 = .
	.loc 1 2461 0 is_stmt 1
	lw	$2,32($17)
	lw	$9,36($sp)
	lhu	$5,2($22)
	andi	$6,$2,0xffff
	subu	$3,$3,$6
	lw	$4,36($17)
	srl	$2,$2,16
	subu	$2,$3,$2
	lhu	$3,0($9)
	addu	$2,$5,$2
	subu	$2,$2,$4
	addu	$2,$3,$2
	.set	noreorder
	.set	nomacro
	bgez	$2,$L300
	sra	$3,$2,16
	.set	macro
	.set	reorder

	.loc 1 2461 0 is_stmt 0 discriminator 1
	subu	$2,$0,$2
	sra	$3,$2,16
	andi	$2,$2,0xffff
	addu	$2,$3,$2
	sra	$3,$2,16
	addu	$2,$3,$2
	nor	$2,$0,$2
	.set	noreorder
	.set	nomacro
	j	$L297
	sh	$2,0($9)
	.set	macro
	.set	reorder

$L300:
	.loc 1 2461 0 discriminator 2
	andi	$2,$2,0xffff
	addu	$2,$3,$2
	sra	$3,$2,16
	addu	$2,$3,$2
	lw	$3,36($sp)
$LBE1485 = .
$LBE1512 = .
	.set	noreorder
	.set	nomacro
	j	$L297
	sh	$2,0($3)
	.set	macro
	.set	reorder

$L296:
$LBB1513 = .
$LBB1486 = .
	.loc 1 2466 0 is_stmt 1
	lw	$2,24($17)
	lhu	$6,0($22)
	lw	$5,28($17)
	andi	$7,$2,0xffff
	subu	$4,$4,$7
	lw	$7,36($sp)
	srl	$2,$2,16
	subu	$2,$4,$2
	lhu	$4,0($7)
	addu	$2,$6,$2
	subu	$2,$2,$5
	addu	$2,$4,$2
	.set	noreorder
	.set	nomacro
	bgez	$2,$L301
	sra	$4,$2,16
	.set	macro
	.set	reorder

	.loc 1 2466 0 is_stmt 0 discriminator 1
	subu	$2,$0,$2
	sra	$4,$2,16
	andi	$2,$2,0xffff
	addu	$2,$4,$2
	sra	$4,$2,16
	addu	$2,$4,$2
	nor	$2,$0,$2
	.set	noreorder
	.set	nomacro
	j	$L302
	sh	$2,0($7)
	.set	macro
	.set	reorder

$L301:
	.loc 1 2466 0 discriminator 2
	andi	$2,$2,0xffff
	addu	$2,$4,$2
	lw	$9,36($sp)
	sra	$4,$2,16
	addu	$2,$4,$2
	sh	$2,0($9)
$L302:
$LBE1486 = .
$LBB1487 = .
	.loc 1 2467 0 is_stmt 1
	lw	$2,32($17)
	lhu	$5,2($22)
	lw	$4,36($17)
	andi	$6,$2,0xffff
	subu	$3,$3,$6
	lw	$6,36($sp)
	srl	$2,$2,16
	subu	$2,$3,$2
	lhu	$3,0($6)
	addu	$2,$5,$2
	subu	$2,$2,$4
	addu	$2,$3,$2
	.set	noreorder
	.set	nomacro
	bgez	$2,$L303
	sra	$3,$2,16
	.set	macro
	.set	reorder

	.loc 1 2467 0 is_stmt 0 discriminator 1
	subu	$2,$0,$2
	sra	$3,$2,16
	andi	$2,$2,0xffff
	addu	$2,$3,$2
	sra	$3,$2,16
	addu	$2,$3,$2
	nor	$2,$0,$2
	.set	noreorder
	.set	nomacro
	j	$L297
	sh	$2,0($6)
	.set	macro
	.set	reorder

$L303:
	.loc 1 2467 0 discriminator 2
	andi	$2,$2,0xffff
	addu	$2,$3,$2
	lw	$7,36($sp)
	sra	$3,$2,16
	addu	$2,$3,$2
	sh	$2,0($7)
$L297:
$LBE1487 = .
	.loc 1 2469 0 is_stmt 1
	lw	$2,28($17)
	sh	$2,0($22)
	.loc 1 2470 0
	lw	$2,36($17)
	sh	$2,2($22)
$L295:
	.loc 1 2473 0
	lw	$2,24($17)
	sw	$2,12($16)
$L385:
	.loc 1 2474 0
	lw	$2,32($17)
	sw	$2,16($16)
$L253:
	.loc 1 2480 0
	lbu	$5,8($16)
$LBB1488 = .
	.loc 1 2483 0
	lbu	$4,9($16)
	lhu	$6,10($16)
$LBE1488 = .
	.loc 1 2481 0
	addiu	$3,$5,-1
	andi	$3,$3,0x00ff
$LBB1489 = .
	.loc 1 2483 0
	sll	$2,$5,8
	sll	$7,$3,8
	or	$2,$2,$4
	or	$4,$7,$4
	subu	$2,$2,$4
	addu	$2,$6,$2
	.set	noreorder
	.set	nomacro
	bgez	$2,$L304
	sb	$3,8($16)
	.set	macro
	.set	reorder

	.loc 1 2483 0 is_stmt 0 discriminator 1
	addiu	$2,$2,-1
	.set	noreorder
	.set	nomacro
	j	$L305
	sh	$2,10($16)
	.set	macro
	.set	reorder

$L304:
	.loc 1 2483 0 discriminator 2
	sra	$3,$2,16
	andi	$2,$2,0xffff
	addu	$2,$3,$2
	sra	$3,$2,16
	addu	$2,$3,$2
	sh	$2,10($16)
$L305:
$LBE1489 = .
	.loc 1 2486 0 is_stmt 1
	move	$4,$19
	.set	noreorder
	.set	nomacro
	jal	rtl_set_skb_ip_summed
	move	$5,$0
	.set	macro
	.set	reorder

	.loc 1 2487 0
	move	$4,$19
	.set	noreorder
	.set	nomacro
	jal	rtl_set_skb_dev
	move	$5,$0
	.set	macro
	.set	reorder

	.loc 1 2490 0
	lw	$5,48($17)
	lw	$6,52($17)
	.set	noreorder
	.set	nomacro
	jal	fastpath_set_qos_mark
	move	$4,$19
	.set	macro
	.set	reorder

	.loc 1 2511 0
	lui	$2,%hi(jiffies)
	lw	$2,%lo(jiffies)($2)
	.loc 1 2513 0
	move	$4,$16
	move	$5,$22
	.loc 1 2511 0
	sw	$2,40($17)
	.loc 1 2513 0
	.set	noreorder
	.set	nomacro
	jal	fast_path_post_process_xmit_check
	move	$6,$19
	.set	macro
	.set	reorder

	move	$18,$2
	li	$2,1			# 0x1
	.set	noreorder
	.set	nomacro
	bne	$18,$2,$L306
	lw	$3,24($sp)
	.set	macro
	.set	reorder

	.loc 1 2515 0
	lw	$9,24($sp)
	lw	$2,%lo(table_path)($9)
$L388:
$LBB1490 = .
$LBB1491 = .
$LBB1492 = .
$LBB1493 = .
$LBB1494 = .
$LBB1495 = .
	.loc 3 136 0
	lhu	$3,2($2)
	addiu	$3,$3,1
	.loc 3 137 0
#APP
 # 137 "/home/extra_home/marklee/rtk_OpenWRT_BB/BB_v1407/0629_co_2.4_pre_release/svn_test/rtk_BarrierBreaker_v14.07.x/build_dir/target-mips_24kec_uClibc-0.9.33.2/linux-rtkmips_rtl8198c/linux-3.10.49/arch/mips/include/asm/spinlock.h" 1
	.set	push
	.set	noreorder
	.set	mips2
	sync
	.set	pop
 # 0 "" 2
	.loc 3 138 0
#NO_APP
	sh	$3,2($2)
	.loc 3 139 0
#APP
 # 139 "/home/extra_home/marklee/rtk_OpenWRT_BB/BB_v1407/0629_co_2.4_pre_release/svn_test/rtk_BarrierBreaker_v14.07.x/build_dir/target-mips_24kec_uClibc-0.9.33.2/linux-rtkmips_rtl8198c/linux-3.10.49/arch/mips/include/asm/spinlock.h" 1
	.set	push
	.set	noreorder
	.set	mips2
	sync
	.set	pop
 # 0 "" 2
#NO_APP
$LBE1495 = .
$LBE1494 = .
$LBE1493 = .
	.loc 4 153 0
$LBE1492 = .
$LBE1491 = .
$LBE1490 = .
	.loc 1 2517 0
	.set	noreorder
	.set	nomacro
	j	$L393
	lw	$31,92($sp)
	.set	macro
	.set	reorder

$L306:
	.loc 1 2521 0
	lw	$2,%lo(table_path)($3)
$LBB1496 = .
$LBB1497 = .
$LBB1498 = .
$LBB1499 = .
$LBB1500 = .
$LBB1501 = .
	.loc 3 136 0
	lhu	$3,2($2)
	addiu	$3,$3,1
	.loc 3 137 0
#APP
 # 137 "/home/extra_home/marklee/rtk_OpenWRT_BB/BB_v1407/0629_co_2.4_pre_release/svn_test/rtk_BarrierBreaker_v14.07.x/build_dir/target-mips_24kec_uClibc-0.9.33.2/linux-rtkmips_rtl8198c/linux-3.10.49/arch/mips/include/asm/spinlock.h" 1
	.set	push
	.set	noreorder
	.set	mips2
	sync
	.set	pop
 # 0 "" 2
	.loc 3 138 0
#NO_APP
	sh	$3,2($2)
	.loc 3 139 0
#APP
 # 139 "/home/extra_home/marklee/rtk_OpenWRT_BB/BB_v1407/0629_co_2.4_pre_release/svn_test/rtk_BarrierBreaker_v14.07.x/build_dir/target-mips_24kec_uClibc-0.9.33.2/linux-rtkmips_rtl8198c/linux-3.10.49/arch/mips/include/asm/spinlock.h" 1
	.set	push
	.set	noreorder
	.set	mips2
	sync
	.set	pop
 # 0 "" 2
#NO_APP
$LBE1501 = .
$LBE1500 = .
$LBE1499 = .
	.loc 4 153 0
$LBE1498 = .
$LBE1497 = .
$LBE1496 = .
	.loc 1 2523 0
	lui	$2,%hi(statistic_fastpath)
	lw	$3,%lo(statistic_fastpath)($2)
	.loc 1 2524 0
	move	$4,$19
	.loc 1 2526 0
	li	$18,1			# 0x1
	.loc 1 2523 0
	addiu	$3,$3,1
	.loc 1 2524 0
	.set	noreorder
	.set	nomacro
	jal	ip_finish_output3
	sw	$3,%lo(statistic_fastpath)($2)
	.set	macro
	.set	reorder

	.loc 1 2526 0
	.set	noreorder
	.set	nomacro
	j	$L393
	lw	$31,92($sp)
	.set	macro
	.set	reorder

$L235:
$LBE1513 = .
	.loc 1 2251 0
	lw	$17,64($17)
$L234:
	.loc 1 2251 0 is_stmt 0 discriminator 1
	bne	$17,$0,$L307
$LBB1514 = .
$LBB1515 = .
$LBB1516 = .
$LBB1517 = .
$LBB1518 = .
$LBB1519 = .
	.loc 3 136 0 is_stmt 1
	lhu	$2,2($3)
	addiu	$2,$2,1
	.loc 3 137 0
#APP
 # 137 "/home/extra_home/marklee/rtk_OpenWRT_BB/BB_v1407/0629_co_2.4_pre_release/svn_test/rtk_BarrierBreaker_v14.07.x/build_dir/target-mips_24kec_uClibc-0.9.33.2/linux-rtkmips_rtl8198c/linux-3.10.49/arch/mips/include/asm/spinlock.h" 1
	.set	push
	.set	noreorder
	.set	mips2
	sync
	.set	pop
 # 0 "" 2
	.loc 3 138 0
#NO_APP
	sh	$2,2($3)
	.loc 3 139 0
#APP
 # 139 "/home/extra_home/marklee/rtk_OpenWRT_BB/BB_v1407/0629_co_2.4_pre_release/svn_test/rtk_BarrierBreaker_v14.07.x/build_dir/target-mips_24kec_uClibc-0.9.33.2/linux-rtkmips_rtl8198c/linux-3.10.49/arch/mips/include/asm/spinlock.h" 1
	.set	push
	.set	noreorder
	.set	mips2
	sync
	.set	pop
 # 0 "" 2
#NO_APP
$LBE1519 = .
$LBE1518 = .
$LBE1517 = .
	.loc 4 153 0
$LBE1516 = .
$LBE1515 = .
$LBE1514 = .
	.loc 1 2535 0
	.set	noreorder
	.set	nomacro
	jal	rtl_set_skb_inDev
	move	$4,$19
	.set	macro
	.set	reorder

	.loc 1 2539 0
	lw	$31,92($sp)
	lw	$fp,88($sp)
	lw	$23,84($sp)
	lw	$21,76($sp)
	lw	$20,72($sp)
	lw	$18,64($sp)
	lw	$17,60($sp)
	.loc 1 2538 0
	move	$4,$16
	move	$5,$22
	.loc 1 2539 0
	lw	$16,56($sp)
	lw	$22,80($sp)
	.loc 1 2538 0
	move	$6,$19
	.loc 1 2539 0
	lw	$19,68($sp)
	.cfi_remember_state
	.cfi_restore 16
	.cfi_restore 17
	.cfi_restore 18
	.cfi_restore 19
	.cfi_restore 20
	.cfi_restore 21
	.cfi_restore 22
	.cfi_restore 23
	.cfi_restore 30
	.cfi_restore 31
	.loc 1 2538 0
	.set	noreorder
	.set	nomacro
	j	fast_path_post_process_return_check
	addiu	$sp,$sp,96
	.set	macro
	.set	reorder

	.cfi_def_cfa_offset 0
$L210:
	.cfi_restore_state
	.loc 1 2177 0
	lw	$4,12($22)
$L392:
	ext	$5,$4,16,1
	.set	noreorder
	.set	nomacro
	beq	$5,$0,$L383
	lw	$5,20($sp)
	.set	macro
	.set	reorder

	.loc 1 712 0
	.set	noreorder
	.set	nomacro
	j	$L391
	lw	$6,16($sp)
	.set	macro
	.set	reorder

$L358:
	.loc 1 2539 0
	lw	$31,92($sp)
$L393:
	move	$2,$18
	lw	$fp,88($sp)
	lw	$23,84($sp)
	lw	$22,80($sp)
	lw	$21,76($sp)
	lw	$20,72($sp)
	lw	$19,68($sp)
	lw	$18,64($sp)
	lw	$17,60($sp)
	lw	$16,56($sp)
	.set	noreorder
	.set	nomacro
	j	$31
	addiu	$sp,$sp,96
	.set	macro
	.set	reorder

	.cfi_def_cfa_offset 0
	.cfi_restore 16
	.cfi_restore 17
	.cfi_restore 18
	.cfi_restore 19
	.cfi_restore 20
	.cfi_restore 21
	.cfi_restore 22
	.cfi_restore 23
	.cfi_restore 30
	.cfi_restore 31
	.end	enter_fast_path
	.cfi_endproc
$LFE3218:
	.size	enter_fast_path, .-enter_fast_path
	.section	.rodata.str1.4
	.align	2
$LC1:
	.ascii	"napt num: %d, path num: %d.\012\000"
	.text
	.align	2
	.globl	fastpath_dump_napt_entry_num
$LFB3219 = .
	.loc 1 2829 0
	.cfi_startproc
	.set	nomips16
	.ent	fastpath_dump_napt_entry_num
	.type	fastpath_dump_napt_entry_num, @function
fastpath_dump_napt_entry_num:
	.frame	$sp,24,$31		# vars= 0, regs= 2/0, args= 16, gp= 0
	.mask	0x80010000,-4
	.fmask	0x00000000,0
	.set	noreorder
	.set	nomacro
	addiu	$sp,$sp,-24
	.cfi_def_cfa_offset 24
	.loc 1 2838 0
	lui	$2,%hi(path_list_inuse)
	lw	$3,%lo(path_list_inuse)($2)
	.loc 1 2829 0
	sw	$16,16($sp)
	sw	$31,20($sp)
	.cfi_offset 16, -8
	.cfi_offset 31, -4
	.loc 1 2829 0
	move	$16,$5
	.loc 1 2838 0
	j	$L398
	move	$7,$0

$L399:
	.loc 1 2838 0 is_stmt 0 discriminator 2
	lw	$3,72($3)
	.loc 1 2839 0 is_stmt 1 discriminator 2
	addiu	$7,$7,1
$L398:
	.loc 1 2838 0 discriminator 1
	bne	$3,$0,$L399
	lui	$2,%hi(napt_list_inuse)

	.loc 1 2844 0
	lw	$3,%lo(napt_list_inuse)($2)
	j	$L400
	move	$6,$0

$L401:
	.loc 1 2844 0 is_stmt 0 discriminator 2
	lw	$3,44($3)
	.loc 1 2845 0 is_stmt 1 discriminator 2
	addiu	$6,$6,1
$L400:
	.loc 1 2844 0 discriminator 1
	bne	$3,$0,$L401
	lui	$5,%hi($LC1)

	.loc 1 2848 0
	addu	$4,$4,$16
	jal	sprintf
	addiu	$5,$5,%lo($LC1)

	.loc 1 2854 0
	lw	$31,20($sp)
	addu	$2,$2,$16
	lw	$16,16($sp)
	j	$31
	addiu	$sp,$sp,24

	.cfi_def_cfa_offset 0
	.cfi_restore 16
	.cfi_restore 31
	.set	macro
	.set	reorder
	.end	fastpath_dump_napt_entry_num
	.cfi_endproc
$LFE3219:
	.size	fastpath_dump_napt_entry_num, .-fastpath_dump_napt_entry_num
	.align	2
	.globl	init_table_napt
$LFB3220 = .
	.loc 1 3070 0
	.cfi_startproc
	.set	nomips16
	.ent	init_table_napt
	.type	init_table_napt, @function
init_table_napt:
	.frame	$sp,48,$31		# vars= 0, regs= 7/0, args= 16, gp= 0
	.mask	0x803f0000,-4
	.fmask	0x00000000,0
	.set	noreorder
	.set	nomacro
	addiu	$sp,$sp,-48
	.cfi_def_cfa_offset 48
	sw	$18,28($sp)
	.cfi_offset 18, -20
$LBB1520 = .
$LBB1521 = .
	.loc 5 170 0
	lui	$18,%hi(kmalloc_caches)
	addiu	$18,$18,%lo(kmalloc_caches)
$LBE1521 = .
$LBE1520 = .
	.loc 1 3070 0
	sw	$17,24($sp)
	.cfi_offset 17, -24
	move	$17,$4
$LBB1531 = .
$LBB1528 = .
$LBB1522 = .
$LBB1523 = .
	.loc 5 142 0
	lw	$4,28($18)
$LBE1523 = .
$LBE1522 = .
$LBE1528 = .
$LBE1531 = .
	.loc 1 3070 0
	sw	$19,32($sp)
	.cfi_offset 19, -16
	move	$19,$5
$LBB1532 = .
$LBB1529 = .
$LBB1526 = .
$LBB1524 = .
	.loc 5 142 0
	li	$5,32			# 0x20
$LBE1524 = .
$LBE1526 = .
$LBE1529 = .
$LBE1532 = .
	.loc 1 3070 0
	sw	$21,40($sp)
	sw	$20,36($sp)
	sw	$31,44($sp)
	sw	$16,20($sp)
	.cfi_offset 21, -8
	.cfi_offset 20, -12
	.cfi_offset 31, -4
	.cfi_offset 16, -28
$LBB1533 = .
$LBB1530 = .
$LBB1527 = .
$LBB1525 = .
	.loc 5 142 0
	jal	kmem_cache_alloc
	lui	$20,%hi(table_napt)

	move	$21,$2
$LBE1525 = .
$LBE1527 = .
$LBE1530 = .
$LBE1533 = .
	.loc 1 3074 0
	bne	$2,$0,$L404
	sw	$2,%lo(table_napt)($20)

$L406:
	.loc 1 3076 0
	j	$L405
	li	$2,-1			# 0xffffffffffffffff

$L404:
	.loc 1 3078 0
	lui	$6,%hi(napt_list_inuse)
	.loc 1 3079 0
	lui	$3,%hi(napt_list_free)
	.loc 1 3078 0
	addiu	$2,$6,%lo(napt_list_inuse)
	.loc 1 3082 0
	sll	$5,$17,4
	sll	$4,$17,2
	.loc 1 3079 0
	addiu	$16,$3,%lo(napt_list_free)
$LBB1534 = .
$LBB1535 = .
	.loc 5 174 0
	subu	$4,$5,$4
$LBE1535 = .
$LBE1534 = .
	.loc 1 3078 0
	sw	$0,8($2)
	sw	$2,4($2)
$LBB1538 = .
$LBB1536 = .
	.loc 5 174 0
	li	$5,32			# 0x20
$LBE1536 = .
$LBE1538 = .
	.loc 1 3081 0
	lui	$2,%hi(napt_table_list_max)
	.loc 1 3079 0
	sw	$0,%lo(napt_list_free)($3)
	.loc 1 3078 0
	sw	$0,%lo(napt_list_inuse)($6)
	.loc 1 3079 0
	sw	$0,8($16)
	sw	$16,4($16)
$LBB1539 = .
$LBB1537 = .
	.loc 5 174 0
	jal	__kmalloc
	sw	$17,%lo(napt_table_list_max)($2)

$LBE1537 = .
$LBE1539 = .
	.loc 1 3083 0
	lw	$3,%lo(table_napt)($20)
	.loc 1 3082 0
	sw	$2,4($21)
	.loc 1 3083 0
	lw	$2,4($3)
	beq	$2,$0,$L406
	move	$6,$0

	j	$L407
	move	$2,$0

$L408:
	.loc 1 3088 0 discriminator 2
	lw	$4,4($3)
	.loc 1 3087 0 discriminator 2
	addiu	$6,$6,1
	.loc 1 3088 0 discriminator 2
	addu	$4,$4,$2
	sw	$0,8($4)
	lw	$4,4($3)
	addu	$4,$4,$2
	sw	$0,0($4)
	lw	$5,4($3)
	addu	$5,$5,$2
	sw	$5,4($5)
	addiu	$2,$2,12
$L407:
	.loc 1 3087 0 discriminator 1
	slt	$4,$6,$17
	bne	$4,$0,$L408
	nop

	.loc 1 3087 0 is_stmt 0
	j	$L409
	move	$17,$0

$L410:
$LBB1540 = .
$LBB1541 = .
$LBB1542 = .
$LBB1543 = .
$LBB1544 = .
	.loc 5 142 0 is_stmt 1
	lw	$4,28($18)
	jal	kmem_cache_alloc
	addiu	$17,$17,1

$LBE1544 = .
$LBE1543 = .
$LBE1542 = .
$LBE1541 = .
	.loc 1 3094 0
	beq	$2,$0,$L411
	addiu	$4,$2,44

	.loc 1 3098 0
	lw	$3,4($16)
	sw	$0,44($2)
	sw	$3,48($2)
	sw	$2,0($3)
	lw	$2,8($16)
	sw	$4,4($16)
	addiu	$2,$2,1
	sw	$2,8($16)
$L409:
$LBE1540 = .
	.loc 1 3091 0 discriminator 1
	slt	$2,$17,$19
	bne	$2,$0,$L410
	li	$5,32			# 0x20

	.loc 1 3102 0
	lw	$3,%lo(table_napt)($20)
	.loc 1 3104 0
	move	$2,$0
	j	$L405
	sw	$0,0($3)

$L411:
$LBB1545 = .
	.loc 1 3096 0
	li	$2,-2			# 0xfffffffffffffffe
$L405:
$LBE1545 = .
	.loc 1 3106 0
	lw	$31,44($sp)
	lw	$21,40($sp)
	lw	$20,36($sp)
	lw	$19,32($sp)
	lw	$18,28($sp)
	lw	$17,24($sp)
	lw	$16,20($sp)
	j	$31
	addiu	$sp,$sp,48

	.cfi_def_cfa_offset 0
	.cfi_restore 16
	.cfi_restore 17
	.cfi_restore 18
	.cfi_restore 19
	.cfi_restore 20
	.cfi_restore 21
	.cfi_restore 31
	.set	macro
	.set	reorder
	.end	init_table_napt
	.cfi_endproc
$LFE3220:
	.size	init_table_napt, .-init_table_napt
	.align	2
	.globl	init_table_path
$LFB3221 = .
	.loc 1 3110 0
	.cfi_startproc
	.set	nomips16
	.ent	init_table_path
	.type	init_table_path, @function
init_table_path:
	.frame	$sp,48,$31		# vars= 0, regs= 7/0, args= 16, gp= 0
	.mask	0x803f0000,-4
	.fmask	0x00000000,0
	.set	noreorder
	.set	nomacro
	addiu	$sp,$sp,-48
	.cfi_def_cfa_offset 48
	sw	$19,32($sp)
	.cfi_offset 19, -16
$LBB1546 = .
$LBB1547 = .
	.loc 5 170 0
	lui	$19,%hi(kmalloc_caches)
	addiu	$19,$19,%lo(kmalloc_caches)
$LBE1547 = .
$LBE1546 = .
	.loc 1 3110 0
	sw	$17,24($sp)
	.cfi_offset 17, -24
	move	$17,$4
$LBB1557 = .
$LBB1554 = .
$LBB1548 = .
$LBB1549 = .
	.loc 5 142 0
	lw	$4,28($19)
$LBE1549 = .
$LBE1548 = .
$LBE1554 = .
$LBE1557 = .
	.loc 1 3110 0
	sw	$20,36($sp)
	.cfi_offset 20, -12
	move	$20,$5
$LBB1558 = .
$LBB1555 = .
$LBB1552 = .
$LBB1550 = .
	.loc 5 142 0
	li	$5,32			# 0x20
$LBE1550 = .
$LBE1552 = .
$LBE1555 = .
$LBE1558 = .
	.loc 1 3110 0
	sw	$21,40($sp)
	sw	$18,28($sp)
	sw	$31,44($sp)
	sw	$16,20($sp)
	.cfi_offset 21, -8
	.cfi_offset 18, -20
	.cfi_offset 31, -4
	.cfi_offset 16, -28
$LBB1559 = .
$LBB1556 = .
$LBB1553 = .
$LBB1551 = .
	.loc 5 142 0
	jal	kmem_cache_alloc
	lui	$18,%hi(table_path)

	move	$21,$2
$LBE1551 = .
$LBE1553 = .
$LBE1556 = .
$LBE1559 = .
	.loc 1 3114 0
	bne	$2,$0,$L417
	sw	$2,%lo(table_path)($18)

$L419:
	.loc 1 3116 0
	j	$L418
	li	$2,-1			# 0xffffffffffffffff

$L417:
	.loc 1 3118 0
	lui	$6,%hi(path_list_inuse)
	.loc 1 3119 0
	lui	$3,%hi(path_list_free)
	.loc 1 3118 0
	addiu	$2,$6,%lo(path_list_inuse)
	.loc 1 3122 0
	sll	$5,$17,4
	sll	$4,$17,2
	.loc 1 3119 0
	addiu	$16,$3,%lo(path_list_free)
$LBB1560 = .
$LBB1561 = .
	.loc 5 174 0
	subu	$4,$5,$4
$LBE1561 = .
$LBE1560 = .
	.loc 1 3118 0
	sw	$0,8($2)
	sw	$2,4($2)
$LBB1564 = .
$LBB1562 = .
	.loc 5 174 0
	li	$5,32			# 0x20
$LBE1562 = .
$LBE1564 = .
	.loc 1 3121 0
	lui	$2,%hi(path_table_list_max)
	.loc 1 3119 0
	sw	$0,%lo(path_list_free)($3)
	.loc 1 3118 0
	sw	$0,%lo(path_list_inuse)($6)
	.loc 1 3119 0
	sw	$0,8($16)
	sw	$16,4($16)
$LBB1565 = .
$LBB1563 = .
	.loc 5 174 0
	jal	__kmalloc
	sw	$17,%lo(path_table_list_max)($2)

$LBE1563 = .
$LBE1565 = .
	.loc 1 3123 0
	lw	$3,%lo(table_path)($18)
	.loc 1 3122 0
	sw	$2,4($21)
	.loc 1 3123 0
	lw	$2,4($3)
	beq	$2,$0,$L419
	move	$3,$0

	j	$L420
	move	$2,$0

$L421:
	.loc 1 3128 0 discriminator 2
	lw	$5,%lo(table_path)($18)
	lw	$4,4($5)
	addu	$4,$4,$2
	sw	$0,8($4)
	lw	$4,4($5)
	addu	$4,$4,$2
	sw	$0,0($4)
	lw	$4,%lo(table_path)($18)
	lw	$5,4($4)
	addu	$5,$5,$2
	sw	$5,4($5)
	addiu	$2,$2,12
$L420:
	.loc 1 3127 0 discriminator 1
	slt	$4,$3,$17
	bne	$4,$0,$L421
	addiu	$3,$3,1

	.loc 1 3127 0 is_stmt 0
	j	$L422
	move	$17,$0

$L423:
$LBB1566 = .
$LBB1567 = .
$LBB1568 = .
$LBB1569 = .
$LBB1570 = .
	.loc 5 142 0 is_stmt 1
	lw	$4,28($19)
	jal	kmem_cache_alloc
	addiu	$17,$17,1

$LBE1570 = .
$LBE1569 = .
$LBE1568 = .
$LBE1567 = .
	.loc 1 3134 0
	beq	$2,$0,$L424
	addiu	$4,$2,72

	.loc 1 3138 0
	lw	$3,4($16)
	sw	$0,72($2)
	sw	$3,76($2)
	sw	$2,0($3)
	lw	$2,8($16)
	sw	$4,4($16)
	addiu	$2,$2,1
	sw	$2,8($16)
$L422:
$LBE1566 = .
	.loc 1 3132 0 discriminator 1
	slt	$2,$17,$20
	bne	$2,$0,$L423
	li	$5,32			# 0x20

	.loc 1 3142 0
	lw	$3,%lo(table_path)($18)
	.loc 1 3144 0
	move	$2,$0
	j	$L418
	sw	$0,0($3)

$L424:
$LBB1571 = .
	.loc 1 3136 0
	li	$2,-2			# 0xfffffffffffffffe
$L418:
$LBE1571 = .
	.loc 1 3145 0
	lw	$31,44($sp)
	lw	$21,40($sp)
	lw	$20,36($sp)
	lw	$19,32($sp)
	lw	$18,28($sp)
	lw	$17,24($sp)
	lw	$16,20($sp)
	j	$31
	addiu	$sp,$sp,48

	.cfi_def_cfa_offset 0
	.cfi_restore 16
	.cfi_restore 17
	.cfi_restore 18
	.cfi_restore 19
	.cfi_restore 20
	.cfi_restore 21
	.cfi_restore 31
	.set	macro
	.set	reorder
	.end	init_table_path
	.cfi_endproc
$LFE3221:
	.size	init_table_path, .-init_table_path
	.section	.rodata.str1.4
	.align	2
$LC2:
	.ascii	"%s:%s\012\000"
	.align	2
$LC3:
	.ascii	"Realtek FastPath\000"
	.align	2
$LC4:
	.ascii	"v1.03\000"
	.text
	.align	2
	.globl	get_fastpath_module_info
$LFB3222 = .
	.loc 1 3148 0
	.cfi_startproc
	.set	nomips16
	.ent	get_fastpath_module_info
	.type	get_fastpath_module_info, @function
get_fastpath_module_info:
	.frame	$sp,0,$31		# vars= 0, regs= 0/0, args= 0, gp= 0
	.mask	0x00000000,0
	.fmask	0x00000000,0
	.set	noreorder
	.set	nomacro
	.loc 1 3149 0
	beq	$4,$0,$L431
	lui	$5,%hi($LC2)

	.loc 1 3153 0
	lui	$6,%hi($LC3)
	lui	$7,%hi($LC4)
	addiu	$5,$5,%lo($LC2)
	addiu	$6,$6,%lo($LC3)
	j	sprintf
	addiu	$7,$7,%lo($LC4)

$L431:
	j	$31
	nop

	.set	macro
	.set	reorder
	.end	get_fastpath_module_info
	.cfi_endproc
$LFE3222:
	.size	get_fastpath_module_info, .-get_fastpath_module_info
	.globl	negative_cache_table
	.section	.bss,"aw",@nobits
	.align	2
	.type	negative_cache_table, @object
	.size	negative_cache_table, 4
negative_cache_table:
	.space	4
	.globl	negative_cache_list_free
	.align	2
	.type	negative_cache_list_free, @object
	.size	negative_cache_list_free, 12
negative_cache_list_free:
	.space	12
	.local	max_udp_frag_entry
	.comm	max_udp_frag_entry,4,4
	.globl	udp_cache_table
	.align	2
	.type	udp_cache_table, @object
	.size	udp_cache_table, 4
udp_cache_table:
	.space	4
	.globl	udp_cache_list_free
	.align	2
	.type	udp_cache_list_free, @object
	.size	udp_cache_list_free, 12
udp_cache_list_free:
	.space	12
	.local	path_table_list_max
	.comm	path_table_list_max,4,4
	.globl	table_path
	.align	2
	.type	table_path, @object
	.size	table_path, 4
table_path:
	.space	4
	.globl	path_list_free
	.align	2
	.type	path_list_free, @object
	.size	path_list_free, 12
path_list_free:
	.space	12
	.globl	path_list_inuse
	.align	2
	.type	path_list_inuse, @object
	.size	path_list_inuse, 12
path_list_inuse:
	.space	12
	.local	napt_table_list_max
	.comm	napt_table_list_max,4,4
	.local	table_napt
	.comm	table_napt,4,4
	.globl	napt_list_free
	.align	2
	.type	napt_list_free, @object
	.size	napt_list_free, 12
napt_list_free:
	.space	12
	.globl	napt_list_inuse
	.align	2
	.type	napt_list_inuse, @object
	.size	napt_list_inuse, 12
napt_list_inuse:
	.space	12
	.globl	route_list_free
	.align	2
	.type	route_list_free, @object
	.size	route_list_free, 12
route_list_free:
	.space	12
	.globl	route_list_inuse
	.align	2
	.type	route_list_inuse, @object
	.size	route_list_inuse, 12
route_list_inuse:
	.space	12
	.text
$Letext0:
	.file 10 "include/uapi/asm-generic/int-ll64.h"
	.file 11 "include/asm-generic/int-ll64.h"
	.file 12 "/home/extra_home/marklee/rtk_OpenWRT_BB/BB_v1407/0629_co_2.4_pre_release/svn_test/rtk_BarrierBreaker_v14.07.x/build_dir/target-mips_24kec_uClibc-0.9.33.2/linux-rtkmips_rtl8198c/linux-3.10.49/include/uapi/asm-generic/posix_types.h"
	.file 13 "include/uapi/linux/types.h"
	.file 14 "include/linux/types.h"
	.file 15 "/home/extra_home/marklee/rtk_OpenWRT_BB/BB_v1407/0629_co_2.4_pre_release/svn_test/rtk_BarrierBreaker_v14.07.x/build_dir/target-mips_24kec_uClibc-0.9.33.2/linux-rtkmips_rtl8198c/linux-3.10.49/arch/mips/include/asm/spinlock_types.h"
	.file 16 "include/linux/spinlock_types.h"
	.file 17 "include/asm-generic/atomic-long.h"
	.file 18 "/home/extra_home/marklee/rtk_OpenWRT_BB/BB_v1407/0629_co_2.4_pre_release/svn_test/rtk_BarrierBreaker_v14.07.x/build_dir/target-mips_24kec_uClibc-0.9.33.2/linux-rtkmips_rtl8198c/linux-3.10.49/arch/mips/include/asm/page.h"
	.file 19 "include/linux/seqlock.h"
	.file 20 "include/uapi/linux/netfilter.h"
	.file 21 "include/uapi/linux/netfilter/nf_conntrack_tcp.h"
	.file 22 "include/net/netns/conntrack.h"
	.file 23 "include/uapi/linux/netfilter/nf_conntrack_common.h"
	.file 24 "/home/extra_home/marklee/rtk_OpenWRT_BB/BB_v1407/0629_co_2.4_pre_release/svn_test/rtk_BarrierBreaker_v14.07.x/build_dir/target-mips_24kec_uClibc-0.9.33.2/linux-rtkmips_rtl8198c/linux-3.10.49/include/uapi/linux/netfilter/nf_conntrack_tuple_common.h"
	.file 25 "include/net/rtl/rtl_types.h"
	.file 26 "include/net/rtl/fastpath/fastpath_core.h"
	.file 27 "include/linux/kmemleak.h"
	.file 28 "/home/extra_home/marklee/rtk_OpenWRT_BB/BB_v1407/0629_co_2.4_pre_release/svn_test/rtk_BarrierBreaker_v14.07.x/build_dir/target-mips_24kec_uClibc-0.9.33.2/linux-rtkmips_rtl8198c/linux-3.10.49/arch/mips/include/asm/bitops.h"
	.file 29 "include/linux/log2.h"
	.file 30 "include/asm-generic/getorder.h"
	.file 31 "include/linux/slab.h"
	.file 32 "/home/extra_home/marklee/rtk_OpenWRT_BB/BB_v1407/0629_co_2.4_pre_release/svn_test/rtk_BarrierBreaker_v14.07.x/build_dir/target-mips_24kec_uClibc-0.9.33.2/linux-rtkmips_rtl8198c/linux-3.10.49/arch/mips/include/asm/thread_info.h"
	.file 33 "include/net/inet_frag.h"
	.file 34 "include/linux/etherdevice.h"
	.file 35 "include/linux/export.h"
	.file 36 "/home/extra_home/marklee/rtk_OpenWRT_BB/BB_v1407/0629_co_2.4_pre_release/svn_test/rtk_BarrierBreaker_v14.07.x/build_dir/target-mips_24kec_uClibc-0.9.33.2/linux-rtkmips_rtl8198c/linux-3.10.49/arch/mips/include/asm/cpu-info.h"
	.file 37 "include/linux/printk.h"
	.file 38 "include/linux/kernel.h"
	.file 39 "include/linux/cpumask.h"
	.file 40 "/home/extra_home/marklee/rtk_OpenWRT_BB/BB_v1407/0629_co_2.4_pre_release/svn_test/rtk_BarrierBreaker_v14.07.x/build_dir/target-mips_24kec_uClibc-0.9.33.2/linux-rtkmips_rtl8198c/linux-3.10.49/arch/mips/include/asm/io.h"
	.file 41 "include/linux/mm.h"
	.file 42 "include/linux/time.h"
	.file 43 "include/linux/mmzone.h"
	.file 44 "include/linux/jiffies.h"
	.file 45 "include/linux/workqueue.h"
	.file 46 "/home/extra_home/marklee/rtk_OpenWRT_BB/BB_v1407/0629_co_2.4_pre_release/svn_test/rtk_BarrierBreaker_v14.07.x/build_dir/target-mips_24kec_uClibc-0.9.33.2/linux-rtkmips_rtl8198c/linux-3.10.49/arch/mips/include/asm/smp.h"
	.file 47 "/home/extra_home/marklee/rtk_OpenWRT_BB/BB_v1407/0629_co_2.4_pre_release/svn_test/rtk_BarrierBreaker_v14.07.x/build_dir/target-mips_24kec_uClibc-0.9.33.2/linux-rtkmips_rtl8198c/linux-3.10.49/arch/mips/include/asm/smp-ops.h"
	.file 48 "include/asm-generic/percpu.h"
	.file 49 "include/linux/ioport.h"
	.file 50 "include/linux/highuid.h"
	.file 51 "include/linux/cred.h"
	.file 52 "include/linux/debug_locks.h"
	.file 53 "/home/extra_home/marklee/rtk_OpenWRT_BB/BB_v1407/0629_co_2.4_pre_release/svn_test/rtk_BarrierBreaker_v14.07.x/build_dir/target-mips_24kec_uClibc-0.9.33.2/linux-rtkmips_rtl8198c/linux-3.10.49/arch/mips/include/asm/pgtable-32.h"
	.file 54 "/home/extra_home/marklee/rtk_OpenWRT_BB/BB_v1407/0629_co_2.4_pre_release/svn_test/rtk_BarrierBreaker_v14.07.x/build_dir/target-mips_24kec_uClibc-0.9.33.2/linux-rtkmips_rtl8198c/linux-3.10.49/arch/mips/include/asm/pgtable.h"
	.file 55 "include/asm-generic/pgtable.h"
	.file 56 "include/linux/vmstat.h"
	.file 57 "include/linux/netfilter.h"
	.file 58 "include/linux/percpu_counter.h"
	.file 59 "include/linux/sched.h"
	.file 60 "include/linux/quota.h"
	.file 61 "include/net/netfilter/nf_conntrack.h"
	.file 62 "include/linux/netfilter/x_tables.h"
	.file 63 "include/linux/interrupt.h"
	.file 64 "include/net/sock.h"
	.file 65 "include/net/inet_sock.h"
	.file 66 "include/net/inet_connection_sock.h"
	.file 67 "include/net/ndisc.h"
	.file 68 "include/net/route.h"
	.file 69 "include/net/sch_generic.h"
	.file 70 "include/net/netfilter/nf_conntrack_l3proto.h"
	.file 71 "include/uapi/linux/in.h"
	.file 72 "/home/extra_home/marklee/rtk_OpenWRT_BB/BB_v1407/0629_co_2.4_pre_release/svn_test/rtk_BarrierBreaker_v14.07.x/build_dir/target-mips_24kec_uClibc-0.9.33.2/linux-rtkmips_rtl8198c/linux-3.10.49/arch/mips/include/asm/bug.h"