	.section .mdebug.abi32
	.previous
	.gnu_attribute 4, 3
	.text
$Ltext0:
	.cfi_sections	.debug_frame
	.align	2
$LFB3047 = .
	.file 1 "/home/extra_home/marklee/rtk_OpenWRT_BB/BB_v1407/0629_co_2.4_pre_release/svn_test/rtk_BarrierBreaker_v14.07.x/build_dir/target-mips_24kec_uClibc-0.9.33.2/linux-rtkmips_rtl8198c/fastpath-0.1/fast_l2tp_core.c"
	.loc 1 446 0
	.cfi_startproc
	.set	nomips16
	.ent	get_fast_l2tp_lastxmit
	.type	get_fast_l2tp_lastxmit, @function
get_fast_l2tp_lastxmit:
	.frame	$sp,0,$31		# vars= 0, regs= 0/0, args= 0, gp= 0
	.mask	0x00000000,0
	.fmask	0x00000000,0
	.set	noreorder
	.set	nomacro
	.loc 1 447 0
	lui	$3,%hi(l2tpInfo)
	addiu	$3,$3,%lo(l2tpInfo)
	lhu	$5,38($3)
	li	$4,1			# 0x1
	bne	$5,$4,$L5
	move	$2,$0

	.loc 1 448 0
	lw	$2,8($3)
$L5:
	.loc 1 450 0
	j	$31
	nop

	.set	macro
	.set	reorder
	.end	get_fast_l2tp_lastxmit
	.cfi_endproc
$LFE3047:
	.size	get_fast_l2tp_lastxmit, .-get_fast_l2tp_lastxmit
	.section	.rodata.str1.4,"aMS",@progbits,1
	.align	2
$LC0:
	.ascii	"ppp0\000"
	.align	2
$LC1:
	.ascii	"eth1\000"
	.text
	.align	2
	.globl	l2tp_tx_id
$LFB3045 = .
	.loc 1 101 0
	.cfi_startproc
	.set	nomips16
	.ent	l2tp_tx_id
	.type	l2tp_tx_id, @function
l2tp_tx_id:
	.frame	$sp,32,$31		# vars= 0, regs= 4/0, args= 16, gp= 0
	.mask	0x80070000,-4
	.fmask	0x00000000,0
	.set	noreorder
	.set	nomacro
	addiu	$sp,$sp,-32
	.cfi_def_cfa_offset 32
	sw	$16,16($sp)
	.cfi_offset 16, -16
	move	$16,$4
	sw	$17,20($sp)
	sw	$31,28($sp)
	.cfi_offset 17, -12
	.cfi_offset 31, -4
	.cfi_offset 18, -8
	.loc 1 111 0
	jal	rtl_get_skb_data
	sw	$18,24($sp)

	.loc 1 112 0
	move	$4,$16
	jal	rtl_ip_hdr
	move	$17,$2

	.loc 1 113 0
	beq	$2,$0,$L6
	li	$4,1701			# 0x6a5

	.loc 1 115 0
	lw	$3,0($2)
	ext	$3,$3,24,4
	sll	$3,$3,2
	addu	$3,$2,$3
	.loc 1 117 0
	lhu	$5,0($3)
	bne	$5,$4,$L35
	lw	$31,28($sp)

	.loc 1 117 0 is_stmt 0 discriminator 1
	lhu	$4,2($3)
	bne	$4,$5,$L35
	nop

	lhu	$5,8($3)
	seh	$4,$5
	bgez	$4,$L10
	addiu	$6,$3,10

	.loc 1 119 0 is_stmt 1
	andi	$5,$5,0x4000
	.loc 1 120 0
	addiu	$3,$3,12
	movn	$6,$3,$5
	.loc 1 124 0
	lhu	$3,14($6)
	.loc 1 125 0
	li	$4,4			# 0x4
	bne	$3,$4,$L13
	li	$4,11			# 0xb

	.loc 1 125 0 is_stmt 0 discriminator 1
	lui	$4,%hi(l2tpInfo)
	addiu	$4,$4,%lo(l2tpInfo)
	lhu	$3,20($4)
	lhu	$2,0($6)
	bne	$3,$2,$L36
	lw	$18,24($sp)

$LBB44 = .
	.loc 1 127 0 is_stmt 1
	move	$5,$0
	jal	memset
	li	$6,40			# 0x28

$LBE44 = .
	.loc 1 131 0
	lui	$4,%hi($LC0)
	addiu	$4,$4,%lo($LC0)
	jal	rtl865x_setNetifType
	li	$5,2			# 0x2

	.loc 1 133 0
	lui	$2,%hi(state)
	j	$L6
	sw	$0,%lo(state)($2)

$L13:
	.loc 1 136 0
	bne	$3,$4,$L16
	li	$4,12			# 0xc

	.loc 1 145 0
	lui	$18,%hi(state)
	lw	$2,%lo(state)($18)
	bne	$2,$0,$L35
	lw	$31,28($sp)

	.loc 1 145 0 is_stmt 0 discriminator 1
	jal	rtl_get_skb_dev_name
	move	$4,$16

	lui	$5,%hi($LC1)
	move	$4,$2
	addiu	$5,$5,%lo($LC1)
	jal	memcmp
	li	$6,4			# 0x4

	bne	$2,$0,$L35
	lw	$31,28($sp)

	.loc 1 148 0 is_stmt 1
	jal	rtl_get_skb_dev
	move	$4,$16

	lui	$3,%hi(l2tpInfo)
	sw	$2,%lo(l2tpInfo)($3)
$LBB45 = .
	.loc 1 149 0
	addiu	$3,$17,-8
	lwl	$5,0($3)
	lui	$6,%hi(l2tpInfo+24)
	addiu	$7,$6,%lo(l2tpInfo+24)
	lwr	$5,3($3)
$LBE45 = .
$LBB46 = .
	.loc 1 150 0
	addiu	$2,$17,-14
	lui	$4,%hi(l2tpInfo+30)
$LBE46 = .
$LBB47 = .
	.loc 1 149 0
	sw	$5,%lo(l2tpInfo+24)($6)
	lbu	$8,4($3)
$LBE47 = .
$LBB48 = .
	.loc 1 150 0
	addiu	$5,$4,%lo(l2tpInfo+30)
$LBE48 = .
$LBB49 = .
	.loc 1 151 0
	lui	$6,%hi(l2tpInfo+36)
$LBE49 = .
$LBB50 = .
	.loc 1 149 0
	sb	$8,4($7)
	lbu	$3,5($3)
$LBE50 = .
$LBB51 = .
	.loc 1 151 0
	addiu	$8,$6,%lo(l2tpInfo+36)
$LBE51 = .
$LBB52 = .
	.loc 1 149 0
	sb	$3,5($7)
$LBE52 = .
$LBB53 = .
	.loc 1 150 0
	lwl	$3,0($2)
	lwr	$3,3($2)
	swl	$3,%lo(l2tpInfo+30)($4)
	swr	$3,3($5)
	lbu	$3,4($2)
	sb	$3,4($5)
	lbu	$2,5($2)
$LBE53 = .
	.loc 1 153 0
	li	$3,1			# 0x1
$LBB54 = .
	.loc 1 150 0
	sb	$2,5($5)
$LBE54 = .
$LBB55 = .
	.loc 1 151 0
	lbu	$2,-2($17)
	sb	$2,%lo(l2tpInfo+36)($6)
	lbu	$2,-1($17)
$LBE55 = .
	.loc 1 153 0
	sw	$3,%lo(state)($18)
	.loc 1 151 0
	j	$L6
	sb	$2,1($8)

$L16:
	.loc 1 157 0
	bne	$3,$4,$L35
	lw	$31,28($sp)

	.loc 1 157 0 is_stmt 0 discriminator 1
	lhu	$3,2($6)
	beq	$3,$0,$L35
	lui	$16,%hi(state)

	.loc 1 160 0 is_stmt 1
	lw	$3,%lo(state)($16)
	sltu	$3,$3,2
	beq	$3,$0,$L36
	lw	$18,24($sp)

	.loc 1 162 0
	lhu	$3,0($6)
	lui	$17,%hi(l2tpInfo)
	addiu	$17,$17,%lo(l2tpInfo)
	sh	$3,20($17)
	.loc 1 163 0
	lhu	$3,2($6)
	sh	$3,22($17)
	.loc 1 164 0
	lw	$3,12($2)
	sw	$3,16($17)
	.loc 1 165 0
	lw	$2,16($2)
	.loc 1 167 0
	move	$4,$2
	jal	filter_addconnect
	sw	$2,12($17)

	.loc 1 172 0
	lui	$4,%hi($LC0)
	.loc 1 169 0
	li	$2,1			# 0x1
	.loc 1 172 0
	addiu	$4,$4,%lo($LC0)
	li	$5,4			# 0x4
	jal	rtl865x_setNetifType
	sh	$2,38($17)

	.loc 1 175 0
	li	$2,2			# 0x2
	j	$L6
	sw	$2,%lo(state)($16)

$L34:
	.loc 1 192 0
	jal	filter_addconnect
	lw	$4,12($17)

$L18:
	.loc 1 196 0
	lhu	$3,6($16)
	li	$2,49185			# 0xc021
	bne	$3,$2,$L35
	lw	$31,28($sp)

	.loc 1 199 0
	lbu	$2,8($16)
	li	$3,5			# 0x5
	bne	$2,$3,$L37
	li	$3,6			# 0x6

$LBB56 = .
	.loc 1 201 0
	sw	$0,%lo(l2tpInfo)($18)
	sw	$0,4($17)
	sw	$0,8($17)
	sw	$0,12($17)
	sw	$0,16($17)
	sw	$0,20($17)
	sw	$0,24($17)
	sw	$0,28($17)
	sw	$0,32($17)
	sw	$0,36($17)
	lbu	$2,8($16)
$LBE56 = .
	.loc 1 202 0
	lui	$3,%hi(state)
	sw	$0,%lo(state)($3)
	.loc 1 205 0
	li	$3,6			# 0x6
$L37:
	bne	$2,$3,$L38
	li	$3,1			# 0x1

	.loc 1 207 0
	lhu	$3,20($17)
	lhu	$2,0($16)
	bne	$3,$2,$L35
	lw	$31,28($sp)

	.loc 1 207 0 is_stmt 0 discriminator 1
	lhu	$3,22($17)
	lhu	$2,2($16)
	bne	$3,$2,$L36
	lw	$18,24($sp)

$LBB57 = .
	.loc 1 209 0 is_stmt 1
	move	$4,$17
	move	$5,$0
	jal	memset
	li	$6,40			# 0x28

	lbu	$2,8($16)
$LBE57 = .
	.loc 1 210 0
	lui	$3,%hi(state)
	sw	$0,%lo(state)($3)
	.loc 1 215 0
	li	$3,1			# 0x1
$L38:
	bne	$2,$3,$L6
	addiu	$7,$16,8

	lhu	$6,10($16)
$LBB58 = .
	.loc 1 221 0
	li	$2,4			# 0x4
	.loc 1 222 0
	j	$L21
	li	$8,5			# 0x5

$L23:
	.loc 1 226 0
	lbu	$4,0($3)
	bne	$4,$8,$L22
	lbu	$5,1($3)

	.loc 1 228 0
	lw	$3,2($3)
	lui	$2,%hi(l2tp_ppp_imagic)
	.loc 1 229 0
	j	$L6
	sw	$3,%lo(l2tp_ppp_imagic)($2)

$L22:
	.loc 1 231 0
	addu	$2,$2,$5
$L21:
	.loc 1 222 0 discriminator 1
	slt	$4,$2,$6
	bne	$4,$0,$L23
	addu	$3,$7,$2

$LBE58 = .
	.loc 1 239 0
	j	$L35
	lw	$31,28($sp)

$L10:
	.loc 1 191 0
	lui	$18,%hi(l2tpInfo)
	addiu	$17,$18,%lo(l2tpInfo)
	lw	$4,12($17)
	.loc 1 187 0
	addiu	$16,$3,12
	.loc 1 184 0
	andi	$5,$5,0x4000
	.loc 1 187 0
	addiu	$3,$3,10
	.loc 1 191 0
	jal	filter_checkConnect
	movz	$16,$3,$5

	beq	$2,$0,$L18
	nop

	j	$L34
	nop

$L6:
	.loc 1 239 0
	lw	$31,28($sp)
$L35:
	lw	$18,24($sp)
$L36:
	lw	$17,20($sp)
	lw	$16,16($sp)
	j	$31
	addiu	$sp,$sp,32

	.cfi_def_cfa_offset 0
	.cfi_restore 16
	.cfi_restore 17
	.cfi_restore 18
	.cfi_restore 31
	.set	macro
	.set	reorder
	.end	l2tp_tx_id
	.cfi_endproc
$LFE3045:
	.size	l2tp_tx_id, .-l2tp_tx_id
	.align	2
	.globl	fastpath_l2tp_single_open
$LFB3052 = .
	.loc 1 621 0
	.cfi_startproc
	.set	nomips16
	.ent	fastpath_l2tp_single_open
	.type	fastpath_l2tp_single_open, @function
fastpath_l2tp_single_open:
	.frame	$sp,0,$31		# vars= 0, regs= 0/0, args= 0, gp= 0
	.mask	0x00000000,0
	.fmask	0x00000000,0
	.set	noreorder
	.set	nomacro
	.loc 1 622 0
	move	$4,$5
	lui	$5,%hi(l2tp_read_proc)
	move	$6,$0
	j	single_open
	addiu	$5,$5,%lo(l2tp_read_proc)

	.set	macro
	.set	reorder
	.end	fastpath_l2tp_single_open
	.cfi_endproc
$LFE3052:
	.size	fastpath_l2tp_single_open, .-fastpath_l2tp_single_open
	.section	.rodata.str1.4
	.align	2
$LC2:
	.ascii	"%c\012\000"
	.text
	.align	2
$LFB3051 = .
	.loc 1 614 0
	.cfi_startproc
	.set	nomips16
	.ent	l2tp_read_proc
	.type	l2tp_read_proc, @function
l2tp_read_proc:
	.frame	$sp,24,$31		# vars= 0, regs= 1/0, args= 16, gp= 0
	.mask	0x80000000,-4
	.fmask	0x00000000,0
	.set	noreorder
	.set	nomacro
	.loc 1 615 0
	lui	$2,%hi(fast_l2tp_fw)
	lw	$6,%lo(fast_l2tp_fw)($2)
	lui	$5,%hi($LC2)
	.loc 1 614 0
	addiu	$sp,$sp,-24
	.cfi_def_cfa_offset 24
	.loc 1 615 0
	addiu	$5,$5,%lo($LC2)
	.loc 1 614 0
	sw	$31,20($sp)
	.cfi_offset 31, -4
	.loc 1 615 0
	jal	seq_printf
	addiu	$6,$6,48

	.loc 1 618 0
	lw	$31,20($sp)
	move	$2,$0
	j	$31
	addiu	$sp,$sp,24

	.cfi_def_cfa_offset 0
	.cfi_restore 31
	.set	macro
	.set	reorder
	.end	l2tp_read_proc
	.cfi_endproc
$LFE3051:
	.size	l2tp_read_proc, .-l2tp_read_proc
	.align	2
$LFB3042 = .
	.loc 1 65 0
	.cfi_startproc
	.set	nomips16
	.ent	is_l2tp_device
	.type	is_l2tp_device, @function
is_l2tp_device:
	.frame	$sp,24,$31		# vars= 0, regs= 2/0, args= 16, gp= 0
	.mask	0x80010000,-4
	.fmask	0x00000000,0
	.loc 1 66 0
	lui	$2,%hi(l2tpInfo+4)
	lw	$2,%lo(l2tpInfo+4)($2)
	beq	$2,$0,$L44
	.loc 1 65 0 discriminator 1
	addiu	$sp,$sp,-24
	.cfi_def_cfa_offset 24
	sw	$16,16($sp)
	.cfi_offset 16, -8
	move	$16,$4
	sw	$31,20($sp)
	.cfi_offset 31, -4
	.loc 1 66 0 discriminator 1
	.set	noreorder
	.set	nomacro
	jal	rtl_get_ppp_dev_name
	move	$4,$2
	.set	macro
	.set	reorder

$LBB59 = .
$LBB60 = .
	.file 2 "/home/extra_home/marklee/rtk_OpenWRT_BB/BB_v1407/0629_co_2.4_pre_release/svn_test/rtk_BarrierBreaker_v14.07.x/build_dir/target-mips_24kec_uClibc-0.9.33.2/linux-rtkmips_rtl8198c/linux-3.10.49/arch/mips/include/asm/string.h"
	.loc 2 77 0 discriminator 1
	move	$4,$16
#APP
 # 77 "/home/extra_home/marklee/rtk_OpenWRT_BB/BB_v1407/0629_co_2.4_pre_release/svn_test/rtk_BarrierBreaker_v14.07.x/build_dir/target-mips_24kec_uClibc-0.9.33.2/linux-rtkmips_rtl8198c/linux-3.10.49/arch/mips/include/asm/string.h" 1
	.set	noreorder
	.set	noat
	lbu	$3,($2)
1:	lbu	$1,($4)
	addiu	$2,1
	bne	$1,$3,2f
	addiu	$4,1
	bnez	$3,1b
	lbu	$3,($2)
	move	$3,$1
2:	subu	$3,$1
3:	.set	at
	.set	reorder
 # 0 "" 2
#NO_APP
$LBE60 = .
$LBE59 = .
	.loc 1 66 0 discriminator 1
	sltu	$2,$3,1
	.loc 1 72 0 discriminator 1
	lw	$31,20($sp)
	lw	$16,16($sp)
	.set	noreorder
	.set	nomacro
	j	$31
	addiu	$sp,$sp,24
	.set	macro
	.set	reorder

	.cfi_def_cfa_offset 0
	.cfi_restore 16
	.cfi_restore 31
$L44:
	.loc 1 71 0
	.set	noreorder
	.set	nomacro
	j	$31
	move	$2,$0
	.set	macro
	.set	reorder

	.end	is_l2tp_device
	.cfi_endproc
$LFE3042:
	.size	is_l2tp_device, .-is_l2tp_device
	.align	2
$LFB3048 = .
	.loc 1 455 0
	.cfi_startproc
	.set	nomips16
	.ent	check_for_fast_l2tp_to_wan
	.type	check_for_fast_l2tp_to_wan, @function
check_for_fast_l2tp_to_wan:
	.frame	$sp,24,$31		# vars= 0, regs= 2/0, args= 16, gp= 0
	.mask	0x80010000,-4
	.fmask	0x00000000,0
	.set	noreorder
	.set	nomacro
	addiu	$sp,$sp,-24
	.cfi_def_cfa_offset 24
	sw	$16,16($sp)
	sw	$31,20($sp)
	.cfi_offset 16, -8
	.cfi_offset 31, -4
	.loc 1 458 0
	jal	rtl_ip_hdr
	move	$16,$4

	.loc 1 460 0
	lbu	$5,9($2)
	li	$3,1			# 0x1
	beq	$5,$3,$L48
	move	$2,$0

$LBB63 = .
$LBB64 = .
	.loc 1 468 0
	jal	rtl_ip_hdr
	move	$4,$16

	lw	$3,12($2)
	li	$2,-256			# 0xffffffffffffff00
	and	$2,$3,$2
	li	$3,-172032000			# 0xfffffffff5bf0000
	ori	$3,$3,0xc000
	addu	$2,$2,$3
	sltu	$2,$0,$2
$L48:
$LBE64 = .
$LBE63 = .
	.loc 1 472 0
	lw	$31,20($sp)
	lw	$16,16($sp)
	j	$31
	addiu	$sp,$sp,24

	.cfi_def_cfa_offset 0
	.cfi_restore 16
	.cfi_restore 31
	.set	macro
	.set	reorder
	.end	check_for_fast_l2tp_to_wan
	.cfi_endproc
$LFE3048:
	.size	check_for_fast_l2tp_to_wan, .-check_for_fast_l2tp_to_wan
	.align	2
$LFB3043 = .
	.loc 1 75 0
	.cfi_startproc
	.set	nomips16
	.ent	set_l2tp_device
	.type	set_l2tp_device, @function
set_l2tp_device:
	.frame	$sp,24,$31		# vars= 0, regs= 1/0, args= 16, gp= 0
	.mask	0x80000000,-4
	.fmask	0x00000000,0
	.set	noreorder
	.set	nomacro
	.loc 1 76 0
	lui	$2,%hi(fast_l2tp_fw)
	lw	$2,%lo(fast_l2tp_fw)($2)
	beq	$2,$0,$L58
	nop

	.loc 1 75 0
	addiu	$sp,$sp,-24
	.cfi_def_cfa_offset 24
	sw	$31,20($sp)
	.cfi_offset 31, -4
$LBB67 = .
$LBB68 = .
	.loc 1 79 0
	jal	rtl_get_dev_by_name
	nop

	lui	$3,%hi(l2tpInfo+4)
$LBE68 = .
$LBE67 = .
	.loc 1 81 0
	lw	$31,20($sp)
$LBB70 = .
$LBB69 = .
	.loc 1 79 0
	sw	$2,%lo(l2tpInfo+4)($3)
$LBE69 = .
$LBE70 = .
	.loc 1 81 0
	addiu	$sp,$sp,24
	.cfi_restore 31
	.cfi_def_cfa_offset 0
$L58:
	j	$31
	nop

	.set	macro
	.set	reorder
	.end	set_l2tp_device
	.cfi_endproc
$LFE3043:
	.size	set_l2tp_device, .-set_l2tp_device
	.align	2
$LFB3053 = .
	.loc 1 627 0
	.cfi_startproc
	.set	nomips16
	.ent	fastpath_l2tp_single_write
	.type	fastpath_l2tp_single_write, @function
fastpath_l2tp_single_write:
	.frame	$sp,16,$31		# vars= 8, regs= 1/0, args= 0, gp= 0
	.mask	0x80000000,-4
	.fmask	0x00000000,0
$LBB79 = .
$LBB80 = .
	.loc 1 593 0
	sltu	$4,$6,2
	.set	noreorder
	.set	nomacro
	beq	$4,$0,$L60
	move	$2,$6
	.set	macro
	.set	reorder

$LBE80 = .
$LBE79 = .
	.loc 1 594 0
	.set	noreorder
	.set	nomacro
	j	$31
	li	$2,-14			# 0xfffffffffffffff2
	.set	macro
	.set	reorder

$L62:
	.cfi_def_cfa_offset 16
	.cfi_offset 31, -4
	.set	noreorder
	.set	nomacro
	j	$L61
	li	$2,-14			# 0xfffffffffffffff2
	.set	macro
	.set	reorder

$L60:
	.cfi_def_cfa_offset 0
	.cfi_restore 31
$LBB89 = .
$LBB85 = .
	.loc 1 596 0
	.set	noreorder
	.set	nomacro
	beq	$5,$0,$L69
	addiu	$4,$5,1
	.set	macro
	.set	reorder

$LBE85 = .
$LBE89 = .
	.loc 1 627 0
	addiu	$sp,$sp,-16
	.cfi_def_cfa_offset 16
	sw	$31,12($sp)
	.cfi_offset 31, -4
$LBB90 = .
$LBB86 = .
$LBB81 = .
$LBB82 = .
	.loc 1 596 0
	or	$3,$4,$5
	lw	$4,24($28)
	and	$3,$3,$4
$LBE82 = .
	.set	noreorder
	.set	nomacro
	bne	$3,$0,$L62
	move	$4,$sp
	.set	macro
	.set	reorder

$LBB83 = .
	li	$6,1			# 0x1
#APP
 # 596 "/home/extra_home/marklee/rtk_OpenWRT_BB/BB_v1407/0629_co_2.4_pre_release/svn_test/rtk_BarrierBreaker_v14.07.x/build_dir/target-mips_24kec_uClibc-0.9.33.2/linux-rtkmips_rtl8198c/fastpath-0.1/fast_l2tp_core.c" 1
	.set	noreorder
	.set	noat
	la	$1, __copy_user
	jalr	$1
	.set	at
	.set	noat
	addu	$1, $5, $6
	.set	at
	.set	reorder
 # 0 "" 2
#NO_APP
$LBE83 = .
$LBE81 = .
	.set	noreorder
	.set	nomacro
	bne	$6,$0,$L62
	lb	$3,0($sp)
	.set	macro
	.set	reorder

	.loc 1 597 0
	lui	$4,%hi(fast_l2tp_fw)
	addiu	$3,$3,-48
	sw	$3,%lo(fast_l2tp_fw)($4)
	.loc 1 598 0
	li	$4,1			# 0x1
	.set	noreorder
	.set	nomacro
	bne	$3,$4,$L63
	lui	$3,%hi(l2tp_tx_id_hook)
	.set	macro
	.set	reorder

	.loc 1 599 0
	lui	$4,%hi(l2tp_tx_id)
	addiu	$4,$4,%lo(l2tp_tx_id)
$LBE86 = .
$LBE90 = .
	.set	noreorder
	.set	nomacro
	j	$L64
	sw	$4,%lo(l2tp_tx_id_hook)($3)
	.set	macro
	.set	reorder

$L63:
$LBB91 = .
$LBB87 = .
	.loc 1 603 0
	sw	$0,%lo(l2tp_tx_id_hook)($3)
$L64:
$LBB84 = .
	.loc 1 606 0
	lui	$4,%hi(l2tpInfo)
	addiu	$3,$4,%lo(l2tpInfo)
	sw	$0,%lo(l2tpInfo)($4)
	sw	$0,4($3)
	sw	$0,8($3)
	sw	$0,12($3)
	sw	$0,16($3)
	sw	$0,20($3)
	sw	$0,24($3)
	sw	$0,28($3)
	sw	$0,32($3)
	sw	$0,36($3)
$LBE84 = .
	.loc 1 607 0
	lui	$3,%hi(state)
	sw	$0,%lo(state)($3)
$L61:
$LBE87 = .
$LBE91 = .
	.loc 1 629 0
	lw	$31,12($sp)
	.set	noreorder
	.set	nomacro
	j	$31
	addiu	$sp,$sp,16
	.set	macro
	.set	reorder

	.cfi_def_cfa_offset 0
	.cfi_restore 31
$L69:
$LBB92 = .
$LBB88 = .
	.loc 1 594 0
	li	$2,-14			# 0xfffffffffffffff2
$LBE88 = .
$LBE92 = .
	.loc 1 629 0
	j	$31
	.end	fastpath_l2tp_single_write
	.cfi_endproc
$LFE3053:
	.size	fastpath_l2tp_single_write, .-fastpath_l2tp_single_write
	.align	2
$LFB3049 = .
	.loc 1 476 0
	.cfi_startproc
	.set	nomips16
	.ent	fast_l2tp_to_wan
	.type	fast_l2tp_to_wan, @function
fast_l2tp_to_wan:
	.frame	$sp,88,$31		# vars= 40, regs= 8/0, args= 16, gp= 0
	.mask	0x807f0000,-4
	.fmask	0x00000000,0
	.loc 1 484 0
	lui	$2,%hi(fast_l2tp_fw)
	lw	$3,%lo(fast_l2tp_fw)($2)
	.set	noreorder
	.set	nomacro
	beq	$3,$0,$L98
	move	$2,$0
	.set	macro
	.set	reorder

	.loc 1 476 0 discriminator 1
	addiu	$sp,$sp,-88
	.cfi_def_cfa_offset 88
	sw	$17,60($sp)
	.cfi_offset 17, -28
	.loc 1 484 0 discriminator 1
	lui	$17,%hi(l2tpInfo)
	.loc 1 476 0 discriminator 1
	sw	$16,56($sp)
	sw	$31,84($sp)
	sw	$22,80($sp)
	sw	$21,76($sp)
	sw	$20,72($sp)
	sw	$19,68($sp)
	sw	$18,64($sp)
	.cfi_offset 16, -32
	.cfi_offset 31, -4
	.cfi_offset 22, -8
	.cfi_offset 21, -12
	.cfi_offset 20, -16
	.cfi_offset 19, -20
	.cfi_offset 18, -24
	.loc 1 484 0 discriminator 1
	addiu	$16,$17,%lo(l2tpInfo)
	lhu	$3,20($16)
	beq	$3,$0,$L72
	lhu	$3,22($16)
	.set	noreorder
	.set	nomacro
	beq	$3,$0,$L72
	lw	$3,%lo(l2tpInfo)($17)
	.set	macro
	.set	reorder

	.set	noreorder
	.set	nomacro
	beq	$3,$0,$L72
	li	$3,1			# 0x1
	.set	macro
	.set	reorder

	.loc 1 487 0
	lhu	$5,38($16)
	.set	noreorder
	.set	nomacro
	bne	$5,$3,$L101
	lw	$31,84($sp)
	.set	macro
	.set	reorder

$LBB105 = .
$LBB106 = .
	.loc 1 490 0
	.set	noreorder
	.set	nomacro
	jal	rtl_ip_hdr
	move	$18,$4
	.set	macro
	.set	reorder

	.loc 1 493 0
	move	$4,$18
	.loc 1 490 0
	move	$20,$2
	.loc 1 493 0
	.set	noreorder
	.set	nomacro
	jal	rtl_skb_headroom
	lhu	$21,2($2)
	.set	macro
	.set	reorder

	sltu	$2,$2,52
	.set	noreorder
	.set	nomacro
	beq	$2,$0,$L73
	move	$4,$18
	.set	macro
	.set	reorder

$L100:
$LBB107 = .
	.loc 1 495 0
	.set	noreorder
	.set	nomacro
	jal	skb_realloc_headroom
	li	$5,52			# 0x34
	.set	macro
	.set	reorder

	.loc 1 496 0
	.set	noreorder
	.set	nomacro
	bne	$2,$0,$L95
	move	$19,$2
	.set	macro
	.set	reorder

$LBE107 = .
$LBE106 = .
$LBE105 = .
	.loc 1 498 0
	.set	noreorder
	.set	nomacro
	j	$L99
	move	$2,$0
	.set	macro
	.set	reorder

$L73:
$LBB133 = .
$LBB130 = .
	.loc 1 493 0
	.set	noreorder
	.set	nomacro
	jal	rtl_skb_cloned
	move	$4,$18
	.set	macro
	.set	reorder

	.set	noreorder
	.set	nomacro
	bne	$2,$0,$L100
	move	$4,$18
	.set	macro
	.set	reorder

	.set	noreorder
	.set	nomacro
	jal	rtl_skb_shared
	move	$4,$18
	.set	macro
	.set	reorder

	.set	noreorder
	.set	nomacro
	beq	$2,$0,$L77
	move	$19,$18
	.set	macro
	.set	reorder

$LBE130 = .
$LBE133 = .
	.loc 1 495 0
	.set	noreorder
	.set	nomacro
	j	$L100
	move	$4,$18
	.set	macro
	.set	reorder

$L95:
$LBB134 = .
$LBB131 = .
$LBB108 = .
	.loc 1 500 0
	.set	noreorder
	.set	nomacro
	jal	consume_skb
	move	$4,$18
	.set	macro
	.set	reorder

$L77:
$LBE108 = .
$LBB109 = .
	.loc 1 507 0
	move	$4,$19
	li	$5,52			# 0x34
	.set	noreorder
	.set	nomacro
	jal	skb_push
	lbu	$22,1($20)
	.set	macro
	.set	reorder

	lw	$5,24($16)
	move	$3,$2
	lw	$4,28($16)
	lw	$2,32($16)
	swl	$5,0($3)
	swr	$5,3($3)
	swl	$4,4($3)
	swr	$4,7($3)
	swl	$2,8($3)
	swr	$2,11($3)
	lbu	$4,36($16)
$LBE109 = .
	.loc 1 511 0
	lbu	$2,16($sp)
	li	$5,4			# 0x4
$LBB110 = .
	.loc 1 507 0
	sb	$4,12($3)
	lbu	$4,37($16)
$LBE110 = .
	.loc 1 511 0
	ins	$2,$5,4,4
	.loc 1 520 0
	move	$5,$0
$LBB111 = .
	.loc 1 507 0
	sb	$4,13($3)
$LBE111 = .
	.loc 1 512 0
	li	$3,5			# 0x5
	ins	$2,$3,0,4
	.loc 1 517 0
	lw	$18,12($16)
	.loc 1 518 0
	lw	$20,16($16)
	.loc 1 512 0
	sb	$2,16($sp)
	.loc 1 514 0
	li	$2,16384			# 0x4000
	sh	$2,22($sp)
	.loc 1 515 0
	li	$2,17			# 0x11
	.loc 1 520 0
	move	$4,$19
	.loc 1 515 0
	sb	$2,25($sp)
	.loc 1 519 0
	li	$2,64			# 0x40
	.loc 1 517 0
	sw	$18,32($sp)
	.loc 1 518 0
	sw	$20,28($sp)
	.loc 1 519 0
	sb	$2,24($sp)
	.loc 1 520 0
	.set	noreorder
	.set	nomacro
	jal	rtl_set_skb_ip_summed
	sb	$22,17($sp)
	.set	macro
	.set	reorder

	.loc 1 521 0
	.set	noreorder
	.set	nomacro
	jal	rtl_get_skb_len
	move	$4,$19
	.set	macro
	.set	reorder

	addiu	$2,$2,-14
	sh	$2,18($sp)
	.loc 1 522 0
	sh	$0,20($sp)
$LBB112 = .
$LBB113 = .
	.file 3 "/home/extra_home/marklee/rtk_OpenWRT_BB/BB_v1407/0629_co_2.4_pre_release/svn_test/rtk_BarrierBreaker_v14.07.x/build_dir/target-mips_24kec_uClibc-0.9.33.2/linux-rtkmips_rtl8198c/linux-3.10.49/arch/mips/include/asm/checksum.h"
	.loc 3 109 0
	lw	$3,20($sp)
$LBE113 = .
$LBE112 = .
	.loc 1 524 0
	sh	$0,26($sp)
$LBB119 = .
$LBB116 = .
	.loc 3 109 0
	lw	$4,16($sp)
	.loc 3 113 0
	lw	$2,24($sp)
$LBE116 = .
$LBE119 = .
	.loc 1 530 0
	addiu	$21,$21,18
$LBB120 = .
$LBB117 = .
	.loc 3 109 0
	addu	$4,$3,$4
	.loc 3 110 0
	sltu	$3,$4,$3
	.loc 3 111 0
	addu	$4,$4,$2
	.loc 3 113 0
	addu	$3,$4,$3
	.loc 3 114 0
	sltu	$2,$3,$2
	.loc 3 115 0
	addu	$3,$3,$20
	.loc 3 117 0
	addu	$2,$3,$2
	.loc 3 118 0
	sltu	$20,$2,$20
	.loc 3 119 0
	addu	$2,$2,$18
	.loc 3 123 0
	addu	$20,$2,$20
$LBE117 = .
$LBE120 = .
$LBB121 = .
	.loc 1 526 0
	move	$4,$19
$LBE121 = .
$LBB122 = .
$LBB118 = .
	.loc 3 124 0
	sltu	$18,$20,$18
	.loc 3 125 0
	addu	$18,$18,$20
$LBB114 = .
$LBB115 = .
	.loc 3 78 0
#APP
 # 78 "/home/extra_home/marklee/rtk_OpenWRT_BB/BB_v1407/0629_co_2.4_pre_release/svn_test/rtk_BarrierBreaker_v14.07.x/build_dir/target-mips_24kec_uClibc-0.9.33.2/linux-rtkmips_rtl8198c/linux-3.10.49/arch/mips/include/asm/checksum.h" 1
		.set	push		# csum_fold
	.set	noat		
	sll	$1, $18, 16	
	addu	$18, $1		
	sltu	$1, $18, $1	
	srl	$18, $18, 16	
	addu	$18, $1		
	xori	$18, 0xffff	
	.set	pop
 # 0 "" 2
#NO_APP
$LBE115 = .
$LBE114 = .
$LBE118 = .
$LBE122 = .
$LBB123 = .
	.loc 1 526 0
	.set	noreorder
	.set	nomacro
	jal	rtl_get_skb_data
	sh	$18,26($sp)
	.set	macro
	.set	reorder

	lw	$5,16($sp)
	lw	$4,20($sp)
	addiu	$3,$2,14
	swl	$5,14($2)
	swr	$5,3($3)
	lw	$5,24($sp)
	swl	$4,4($3)
	swr	$4,7($3)
	lw	$4,28($sp)
	swl	$5,8($3)
	swr	$5,11($3)
	lw	$2,32($sp)
	swl	$4,12($3)
	swr	$4,15($3)
	swl	$2,16($3)
$LBE123 = .
	.loc 1 528 0
	li	$4,1701			# 0x6a5
$LBB124 = .
	.loc 1 526 0
	swr	$2,19($3)
$LBE124 = .
	.loc 1 528 0
	sh	$4,36($sp)
	.loc 1 529 0
	sh	$4,38($sp)
	.loc 1 530 0
	sh	$21,40($sp)
	.loc 1 531 0
	sh	$0,42($sp)
	.loc 1 534 0
	lhu	$2,22($16)
	.loc 1 533 0
	lhu	$3,20($16)
	.loc 1 532 0
	li	$5,2			# 0x2
	.loc 1 534 0
	sh	$2,48($sp)
	.loc 1 535 0
	li	$2,-253			# 0xffffffffffffff03
$LBB125 = .
	.loc 1 537 0
	move	$4,$19
$LBE125 = .
	.loc 1 535 0
	sh	$2,50($sp)
	.loc 1 536 0
	li	$2,33			# 0x21
	.loc 1 533 0
	sh	$3,46($sp)
	.loc 1 532 0
	sh	$5,44($sp)
$LBB126 = .
	.loc 1 537 0
	.set	noreorder
	.set	nomacro
	jal	rtl_get_skb_data
	sh	$2,52($sp)
	.set	macro
	.set	reorder

	lw	$5,36($sp)
	lw	$4,40($sp)
	addiu	$3,$2,34
	swl	$5,34($2)
	swr	$5,3($3)
	lw	$5,44($sp)
	swl	$4,4($3)
	swr	$4,7($3)
	lw	$2,48($sp)
	swl	$5,8($3)
	lbu	$7,52($sp)
	lbu	$6,53($sp)
	swr	$5,11($3)
$LBE126 = .
	.loc 1 539 0
	lw	$5,%lo(l2tpInfo)($17)
$LBB127 = .
	.loc 1 537 0
	swl	$2,12($3)
	swr	$2,15($3)
$LBE127 = .
	.loc 1 539 0
	move	$4,$19
$LBB128 = .
	.loc 1 537 0
	sb	$7,16($3)
$LBE128 = .
	.loc 1 539 0
	.set	noreorder
	.set	nomacro
	jal	rtl_set_skb_dev
	sb	$6,17($3)
	.set	macro
	.set	reorder

	.loc 1 543 0
	.set	noreorder
	.set	nomacro
	jal	rtl_get_skb_data
	move	$4,$19
	.set	macro
	.set	reorder

	.loc 1 545 0
	.set	noreorder
	.set	nomacro
	jal	timeoutCheck_skipp_pkt
	addiu	$4,$2,52
	.set	macro
	.set	reorder

	li	$3,1			# 0x1
	.set	noreorder
	.set	nomacro
	beq	$2,$3,$L78
	lui	$2,%hi(jiffies)
	.set	macro
	.set	reorder

	.loc 1 546 0
	lw	$2,%lo(jiffies)($2)
	sw	$2,8($16)
$L78:
$LBB129 = .
	.loc 1 553 0
	lw	$4,4($16)
	.set	noreorder
	.set	nomacro
	beq	$4,$0,$L102
	lui	$2,%hi(gQosEnabled)
	.set	macro
	.set	reorder

	jal	rtl_get_ppp_dev_priv
	.set	noreorder
	.set	nomacro
	beq	$2,$0,$L102
	lui	$2,%hi(gQosEnabled)
	.set	macro
	.set	reorder

	.loc 1 554 0
	.set	noreorder
	.set	nomacro
	jal	rtl_get_ppp_dev_priv
	lw	$4,4($16)
	.set	macro
	.set	reorder

	.loc 1 555 0
	move	$4,$19
	.set	noreorder
	.set	nomacro
	jal	rtl_get_skb_len
	move	$16,$2
	.set	macro
	.set	reorder

	move	$6,$2
	move	$4,$16
	.set	noreorder
	.set	nomacro
	jal	rtl_inc_ppp_stats
	li	$5,1			# 0x1
	.set	macro
	.set	reorder

$LBE129 = .
	.loc 1 563 0
	lui	$2,%hi(gQosEnabled)
$L102:
	lw	$2,%lo(gQosEnabled)($2)
	.set	noreorder
	.set	nomacro
	beq	$2,$0,$L82
	move	$4,$19
	.set	macro
	.set	reorder

	.loc 1 566 0
	jal	dev_queue_xmit
$LBE131 = .
$LBE134 = .
	.loc 1 567 0
	.set	noreorder
	.set	nomacro
	j	$L72
	li	$2,1			# 0x1
	.set	macro
	.set	reorder

$L82:
$LBB135 = .
$LBB132 = .
	.loc 1 573 0
	jal	rtl_call_skb_ndo_start_xmit
	li	$2,1			# 0x1
$L99:
$L72:
$LBE132 = .
$LBE135 = .
	.loc 1 575 0
	lw	$31,84($sp)
$L101:
	lw	$22,80($sp)
	lw	$21,76($sp)
	lw	$20,72($sp)
	lw	$19,68($sp)
	lw	$18,64($sp)
	lw	$17,60($sp)
	lw	$16,56($sp)
	addiu	$sp,$sp,88
	.cfi_restore 16
	.cfi_restore 17
	.cfi_restore 18
	.cfi_restore 19
	.cfi_restore 20
	.cfi_restore 21
	.cfi_restore 22
	.cfi_restore 31
	.cfi_def_cfa_offset 0
$L98:
	j	$31
	.end	fast_l2tp_to_wan
	.cfi_endproc
$LFE3049:
	.size	fast_l2tp_to_wan, .-fast_l2tp_to_wan
	.align	2
$LFB3044 = .
	.loc 1 85 0
	.cfi_startproc
	.set	nomips16
	.ent	event_ppp_dev_down
	.type	event_ppp_dev_down, @function
event_ppp_dev_down:
	.frame	$sp,32,$31		# vars= 0, regs= 4/0, args= 16, gp= 0
	.mask	0x80070000,-4
	.fmask	0x00000000,0
	addiu	$sp,$sp,-32
	.cfi_def_cfa_offset 32
	sw	$17,20($sp)
	.cfi_offset 17, -12
	.loc 1 86 0
	lui	$17,%hi(l2tpInfo)
	.loc 1 85 0
	sw	$16,16($sp)
	.cfi_offset 16, -16
	.loc 1 86 0
	addiu	$16,$17,%lo(l2tpInfo)
	lhu	$2,38($16)
	.loc 1 85 0
	sw	$31,28($sp)
	.cfi_offset 31, -4
	.loc 1 86 0
	.set	noreorder
	.set	nomacro
	beq	$2,$0,$L103
	sw	$18,24($sp)
	.set	macro
	.set	reorder

	.cfi_offset 18, -8
	move	$18,$4
	.loc 1 88 0
	lw	$4,4($16)
	.set	noreorder
	.set	nomacro
	beq	$4,$0,$L111
	lw	$31,28($sp)
	.set	macro
	.set	reorder

	.loc 1 88 0 is_stmt 0 discriminator 1
	jal	rtl_get_ppp_dev_name
$LBB143 = .
$LBB144 = .
	.loc 2 77 0 is_stmt 1 discriminator 1
	move	$4,$18
#APP
 # 77 "/home/extra_home/marklee/rtk_OpenWRT_BB/BB_v1407/0629_co_2.4_pre_release/svn_test/rtk_BarrierBreaker_v14.07.x/build_dir/target-mips_24kec_uClibc-0.9.33.2/linux-rtkmips_rtl8198c/linux-3.10.49/arch/mips/include/asm/string.h" 1
	.set	noreorder
	.set	noat
	lbu	$3,($2)
1:	lbu	$1,($4)
	addiu	$2,1
	bne	$1,$3,2f
	addiu	$4,1
	bnez	$3,1b
	lbu	$3,($2)
	move	$3,$1
2:	subu	$3,$1
3:	.set	at
	.set	reorder
 # 0 "" 2
#NO_APP
$LBE144 = .
$LBE143 = .
	.loc 1 88 0 discriminator 1
	.set	noreorder
	.set	nomacro
	bne	$3,$0,$L111
	lw	$31,28($sp)
	.set	macro
	.set	reorder

$LBB145 = .
$LBB146 = .
	.loc 1 91 0
	lui	$2,%hi(state)
$LBB147 = .
	.loc 1 90 0
	sw	$0,%lo(l2tpInfo)($17)
$LBE147 = .
	.loc 1 91 0
	sw	$0,%lo(state)($2)
$LBB148 = .
	.loc 1 90 0
	sw	$0,4($16)
	sw	$0,8($16)
	sw	$0,12($16)
	sw	$0,16($16)
	sw	$0,20($16)
	sw	$0,24($16)
	sw	$0,28($16)
	sw	$0,32($16)
	sw	$0,36($16)
$L103:
$LBE148 = .
$LBE146 = .
$LBE145 = .
	.loc 1 94 0
	lw	$31,28($sp)
$L111:
	lw	$18,24($sp)
	lw	$17,20($sp)
	lw	$16,16($sp)
	.set	noreorder
	.set	nomacro
	j	$31
	addiu	$sp,$sp,32
	.set	macro
	.set	reorder

	.cfi_def_cfa_offset 0
	.cfi_restore 16
	.cfi_restore 17
	.cfi_restore 18
	.cfi_restore 31
	.end	event_ppp_dev_down
	.cfi_endproc
$LFE3044:
	.size	event_ppp_dev_down, .-event_ppp_dev_down
	.align	2
	.globl	fast_l2tp_rx
$LFB3046 = .
	.loc 1 346 0
	.cfi_startproc
	.set	nomips16
	.ent	fast_l2tp_rx
	.type	fast_l2tp_rx, @function
fast_l2tp_rx:
	.frame	$sp,40,$31		# vars= 0, regs= 6/0, args= 16, gp= 0
	.mask	0x801f0000,-4
	.fmask	0x00000000,0
	.set	noreorder
	.set	nomacro
	addiu	$sp,$sp,-40
	.cfi_def_cfa_offset 40
	sw	$31,36($sp)
	sw	$19,28($sp)
	sw	$18,24($sp)
	sw	$17,20($sp)
	sw	$16,16($sp)
	sw	$20,32($sp)
	.cfi_offset 31, -4
	.cfi_offset 19, -12
	.cfi_offset 18, -16
	.cfi_offset 17, -20
	.cfi_offset 16, -24
	.cfi_offset 20, -8
	.loc 1 347 0
	jal	rtl_ip_hdr
	move	$16,$4

	move	$17,$2
	.loc 1 348 0
	lw	$2,0($2)
	.loc 1 356 0
	move	$4,$16
	jal	rtl_get_skb_data
	ext	$18,$2,24,4

	.loc 1 358 0
	move	$4,$16
	jal	rtl_get_skb_len
	move	$19,$2

	sltu	$2,$2,40
	bne	$2,$0,$L143
	sll	$18,$18,2

	.loc 1 348 0
	addu	$18,$17,$18
	.loc 1 361 0
	lhu	$3,0($18)
	li	$5,1701			# 0x6a5
	bne	$3,$5,$L114
	move	$2,$0

	.loc 1 361 0 is_stmt 0 discriminator 1
	lhu	$2,2($18)
	bne	$2,$3,$L114
	move	$2,$0

	.loc 1 362 0 is_stmt 1
	lui	$20,%hi(l2tpInfo)
	lw	$2,%lo(l2tpInfo)($20)
	bne	$2,$0,$L116
	nop

	.loc 1 363 0
	jal	l2tp_tx_id
	move	$4,$16

$L116:
	.loc 1 372 0
	lbu	$2,28($19)
	.loc 1 349 0
	li	$3,2			# 0x2
	.loc 1 395 0
	move	$4,$19
	.loc 1 372 0
	andi	$18,$2,0x40
	.loc 1 349 0
	movz	$3,$0,$18
	.loc 1 375 0
	andi	$2,$2,0x2
	.loc 1 376 0
	addu	$18,$3,$2
	.loc 1 395 0
	move	$5,$18
	jal	fast_l2tp_tx_lcp_echo_reply
	move	$6,$16

	li	$3,1			# 0x1
	beq	$2,$3,$L114
	addiu	$20,$20,%lo(l2tpInfo)

	.loc 1 397 0
	lhu	$2,20($20)
	beq	$2,$0,$L114
	move	$2,$0

	.loc 1 397 0 is_stmt 0 discriminator 1
	lhu	$2,22($20)
	beq	$2,$0,$L143
	addu	$2,$19,$18

	lbu	$3,36($2)
	bne	$3,$0,$L143
	nop

	lbu	$3,37($2)
	li	$2,33			# 0x21
	bne	$3,$2,$L114
	move	$2,$0

	lui	$2,%hi(l2tpInfo)
	lw	$2,%lo(l2tpInfo)($2)
	beq	$2,$0,$L114
	move	$2,$0

	.loc 1 398 0 is_stmt 1
	lw	$3,16($20)
	lw	$2,16($17)
	bne	$3,$2,$L114
	move	$2,$0

	.loc 1 408 0
	lw	$5,4($20)
	bne	$5,$0,$L144
	addiu	$18,$18,38

	addiu	$18,$18,-38
	.loc 1 410 0
	lui	$4,%hi($LC0)
	jal	rtl_get_dev_by_name
	addiu	$4,$4,%lo($LC0)

	.loc 1 413 0
	beq	$2,$0,$L143
	sw	$2,4($20)

	move	$5,$2
	.loc 1 414 0
	addiu	$18,$18,38
$L144:
	addu	$19,$19,$18
	lbu	$3,9($19)
	li	$4,6			# 0x6
	beq	$3,$4,$L120
	li	$4,17			# 0x11

	.loc 1 414 0 is_stmt 0 discriminator 1
	bne	$3,$4,$L114
	move	$2,$0

$L120:
	.loc 1 417 0 is_stmt 1
	jal	rtl_set_skb_dev
	move	$4,$16

	.loc 1 418 0
	move	$5,$18
	jal	skb_pull
	move	$4,$16

	.loc 1 419 0
	jal	rtl_skb_reset_network_header
	move	$4,$16

	.loc 1 420 0
	jal	rtl_skb_reset_transport_header
	move	$4,$16

$LBB149 = .
	.loc 1 425 0
	lw	$4,4($20)
	beq	$4,$0,$L114
	move	$2,$0

	.loc 1 425 0 is_stmt 0 discriminator 1
	jal	rtl_get_ppp_dev_priv
	nop

	beq	$2,$0,$L114
	move	$2,$0

	.loc 1 426 0 is_stmt 1
	jal	rtl_get_ppp_dev_priv
	lw	$4,4($20)

	.loc 1 427 0
	move	$4,$16
	jal	rtl_get_skb_len
	move	$17,$2

	move	$6,$2
	move	$4,$17
	jal	rtl_inc_ppp_stats
	move	$5,$0

$L143:
$LBE149 = .
	.loc 1 441 0
	move	$2,$0
$L114:
	.loc 1 443 0
	lw	$31,36($sp)
	lw	$20,32($sp)
	lw	$19,28($sp)
	lw	$18,24($sp)
	lw	$17,20($sp)
	lw	$16,16($sp)
	j	$31
	addiu	$sp,$sp,40

	.cfi_def_cfa_offset 0
	.cfi_restore 16
	.cfi_restore 17
	.cfi_restore 18
	.cfi_restore 19
	.cfi_restore 20
	.cfi_restore 31
	.set	macro
	.set	reorder
	.end	fast_l2tp_rx
	.cfi_endproc
$LFE3046:
	.size	fast_l2tp_rx, .-fast_l2tp_rx
	.section	.rodata.str1.4
	.align	2
$LC3:
	.ascii	"fast_l2tp\000"
	.section	.init.text,"ax",@progbits
	.align	2
	.globl	fast_l2tp_init
$LFB3054 = .
	.loc 1 670 0
	.cfi_startproc
	.set	nomips16
	.ent	fast_l2tp_init
	.type	fast_l2tp_init, @function
fast_l2tp_init:
	.frame	$sp,32,$31		# vars= 0, regs= 1/0, args= 24, gp= 0
	.mask	0x80000000,-4
	.fmask	0x00000000,0
	.set	noreorder
	.set	nomacro
	.loc 1 671 0
	lui	$3,%hi(event_ppp_dev_down)
	addiu	$3,$3,%lo(event_ppp_dev_down)
	lui	$2,%hi(event_ppp_dev_down_fphook)
	sw	$3,%lo(event_ppp_dev_down_fphook)($2)
	.loc 1 672 0
	lui	$3,%hi(set_l2tp_device)
	addiu	$3,$3,%lo(set_l2tp_device)
	lui	$2,%hi(set_l2tp_device_fphook)
	sw	$3,%lo(set_l2tp_device_fphook)($2)
	.loc 1 673 0
	lui	$3,%hi(get_fast_l2tp_lastxmit)
	addiu	$3,$3,%lo(get_fast_l2tp_lastxmit)
	lui	$2,%hi(get_fast_l2tp_lastxmit_fphook)
	sw	$3,%lo(get_fast_l2tp_lastxmit_fphook)($2)
	.loc 1 674 0
	lui	$3,%hi(is_l2tp_device)
	addiu	$3,$3,%lo(is_l2tp_device)
	lui	$2,%hi(is_l2tp_device_fphook)
	sw	$3,%lo(is_l2tp_device_fphook)($2)
	.loc 1 675 0
	lui	$3,%hi(check_for_fast_l2tp_to_wan)
	addiu	$3,$3,%lo(check_for_fast_l2tp_to_wan)
	lui	$2,%hi(check_for_fast_l2tp_to_wan_fphook)
	.loc 1 670 0
	addiu	$sp,$sp,-32
	.cfi_def_cfa_offset 32
	.loc 1 675 0
	sw	$3,%lo(check_for_fast_l2tp_to_wan_fphook)($2)
	.loc 1 680 0
	lui	$4,%hi($LC3)
	lui	$6,%hi(proc_root)
	lui	$7,%hi(fastpath_l2tp_proc_fops)
	.loc 1 676 0
	lui	$3,%hi(fast_l2tp_to_wan)
	addiu	$3,$3,%lo(fast_l2tp_to_wan)
	.loc 1 680 0
	addiu	$4,$4,%lo($LC3)
	move	$5,$0
	addiu	$6,$6,%lo(proc_root)
	addiu	$7,$7,%lo(fastpath_l2tp_proc_fops)
	sw	$0,16($sp)
	.loc 1 676 0
	lui	$2,%hi(fast_l2tp_to_wan_fphook)
	.loc 1 670 0
	sw	$31,28($sp)
	.cfi_offset 31, -4
	.loc 1 680 0
	jal	proc_create_data
	sw	$3,%lo(fast_l2tp_to_wan_fphook)($2)

	lui	$3,%hi(res1)
	sw	$2,%lo(res1)($3)
	.loc 1 691 0
	lui	$2,%hi(l2tp_tx_id_hook)
	sw	$0,%lo(l2tp_tx_id_hook)($2)
$LBB150 = .
	.loc 1 694 0
	lui	$4,%hi(l2tpInfo)
$LBE150 = .
	.loc 1 692 0
	lui	$2,%hi(fast_l2tp_fw)
	sw	$0,%lo(fast_l2tp_fw)($2)
$LBB151 = .
	.loc 1 694 0
	addiu	$4,$4,%lo(l2tpInfo)
$LBE151 = .
	.loc 1 693 0
	lui	$2,%hi(state)
$LBB152 = .
	.loc 1 694 0
	move	$5,$0
	li	$6,40			# 0x28
	jal	memset
	sw	$0,%lo(state)($2)

$LBE152 = .
	.loc 1 696 0
	lw	$31,28($sp)
	move	$2,$0
	j	$31
	addiu	$sp,$sp,32

	.cfi_def_cfa_offset 0
	.cfi_restore 31
	.set	macro
	.set	reorder
	.end	fast_l2tp_init
	.cfi_endproc
$LFE3054:
	.size	fast_l2tp_init, .-fast_l2tp_init
	.section	.exit.text,"ax",@progbits
	.align	2
	.globl	fast_l2tp_exit
$LFB3055 = .
	.loc 1 699 0
	.cfi_startproc
	.set	nomips16
	.ent	fast_l2tp_exit
	.type	fast_l2tp_exit, @function
fast_l2tp_exit:
	.frame	$sp,24,$31		# vars= 0, regs= 2/0, args= 16, gp= 0
	.mask	0x80010000,-4
	.fmask	0x00000000,0
	.set	noreorder
	.set	nomacro
	.loc 1 700 0
	lui	$3,%hi(event_ppp_dev_down_fphook)
	sw	$0,%lo(event_ppp_dev_down_fphook)($3)
	.loc 1 701 0
	lui	$3,%hi(set_l2tp_device_fphook)
	.loc 1 699 0
	addiu	$sp,$sp,-24
	.cfi_def_cfa_offset 24
	.loc 1 701 0
	sw	$0,%lo(set_l2tp_device_fphook)($3)
	.loc 1 702 0
	lui	$3,%hi(get_fast_l2tp_lastxmit_fphook)
	sw	$0,%lo(get_fast_l2tp_lastxmit_fphook)($3)
	.loc 1 699 0
	sw	$16,16($sp)
	.loc 1 703 0
	lui	$3,%hi(is_l2tp_device_fphook)
	.cfi_offset 16, -8
	.loc 1 708 0
	lui	$16,%hi(res1)
	.loc 1 703 0
	sw	$0,%lo(is_l2tp_device_fphook)($3)
	.loc 1 708 0
	lw	$2,%lo(res1)($16)
	.loc 1 704 0
	lui	$3,%hi(check_for_fast_l2tp_to_wan_fphook)
	sw	$0,%lo(check_for_fast_l2tp_to_wan_fphook)($3)
	.loc 1 705 0
	lui	$3,%hi(fast_l2tp_to_wan_fphook)
	sw	$0,%lo(fast_l2tp_to_wan_fphook)($3)
	.loc 1 706 0
	lui	$3,%hi(fast_l2tp_fw)
	.loc 1 699 0
	sw	$31,20($sp)
	.cfi_offset 31, -4
	.loc 1 708 0
	beq	$2,$0,$L147
	sw	$0,%lo(fast_l2tp_fw)($3)

	.loc 1 710 0
	lui	$4,%hi($LC3)
	lui	$5,%hi(proc_root)
	addiu	$4,$4,%lo($LC3)
	jal	remove_proc_entry
	addiu	$5,$5,%lo(proc_root)

	.loc 1 714 0
	sw	$0,%lo(res1)($16)
$L147:
	.loc 1 717 0
	lw	$31,20($sp)
	lw	$16,16($sp)
	j	$31
	addiu	$sp,$sp,24

	.cfi_def_cfa_offset 0
	.cfi_restore 16
	.cfi_restore 31
	.set	macro
	.set	reorder
	.end	fast_l2tp_exit
	.cfi_endproc
$LFE3055:
	.size	fast_l2tp_exit, .-fast_l2tp_exit
	.local	res1
	.comm	res1,4,4
	.globl	fastpath_l2tp_proc_fops
	.data
	.align	2
	.type	fastpath_l2tp_proc_fops, @object
	.size	fastpath_l2tp_proc_fops, 108
fastpath_l2tp_proc_fops:
	.space	4
	.word	seq_lseek
	.word	seq_read
	.word	fastpath_l2tp_single_write
	.space	28
	.word	fastpath_l2tp_single_open
	.space	4
	.word	single_release
	.space	52
	.globl	l2tp_ppp_imagic
	.section	.bss,"aw",@nobits
	.align	2
	.type	l2tp_ppp_imagic, @object
	.size	l2tp_ppp_imagic, 4
l2tp_ppp_imagic:
	.space	4
	.globl	l2tpInfo
	.align	2
	.type	l2tpInfo, @object
	.size	l2tpInfo, 40
l2tpInfo:
	.space	40
	.globl	l2tp_tx_id_hook
	.align	2
	.type	l2tp_tx_id_hook, @object
	.size	l2tp_tx_id_hook, 4
l2tp_tx_id_hook:
	.space	4
	.text
$Letext0:
	.file 4 "include/uapi/asm-generic/int-ll64.h"
	.file 5 "include/asm-generic/int-ll64.h"
	.file 6 "/home/extra_home/marklee/rtk_OpenWRT_BB/BB_v1407/0629_co_2.4_pre_release/svn_test/rtk_BarrierBreaker_v14.07.x/build_dir/target-mips_24kec_uClibc-0.9.33.2/linux-rtkmips_rtl8198c/linux-3.10.49/include/uapi/asm-generic/posix_types.h"
	.file 7 "include/uapi/linux/types.h"
	.file 8 "include/linux/types.h"
	.file 9 "include/asm-generic/atomic-long.h"
	.file 10 "/home/extra_home/marklee/rtk_OpenWRT_BB/BB_v1407/0629_co_2.4_pre_release/svn_test/rtk_BarrierBreaker_v14.07.x/build_dir/target-mips_24kec_uClibc-0.9.33.2/linux-rtkmips_rtl8198c/linux-3.10.49/arch/mips/include/asm/page.h"
	.file 11 "include/uapi/linux/in.h"
	.file 12 "include/uapi/linux/if_link.h"
	.file 13 "include/uapi/linux/rtnetlink.h"
	.file 14 "include/net/ndisc.h"
	.file 15 "include/net/rtl/rtl_types.h"
	.file 16 "/home/extra_home/marklee/rtk_OpenWRT_BB/BB_v1407/0629_co_2.4_pre_release/svn_test/rtk_BarrierBreaker_v14.07.x/build_dir/target-mips_24kec_uClibc-0.9.33.2/linux-rtkmips_rtl8198c/linux-3.10.49/arch/mips/include/asm/thread_info.h"
	.file 17 "include/net/inet_frag.h"
	.file 18 "include/linux/etherdevice.h"
	.file 19 "include/linux/export.h"
	.file 20 "/home/extra_home/marklee/rtk_OpenWRT_BB/BB_v1407/0629_co_2.4_pre_release/svn_test/rtk_BarrierBreaker_v14.07.x/build_dir/target-mips_24kec_uClibc-0.9.33.2/linux-rtkmips_rtl8198c/linux-3.10.49/arch/mips/include/asm/cpu-info.h"
	.file 21 "include/linux/printk.h"
	.file 22 "include/linux/kernel.h"
	.file 23 "include/linux/cpumask.h"
	.file 24 "include/linux/time.h"
	.file 25 "include/linux/highuid.h"
	.file 26 "include/linux/seq_file.h"
	.file 27 "/home/extra_home/marklee/rtk_OpenWRT_BB/BB_v1407/0629_co_2.4_pre_release/svn_test/rtk_BarrierBreaker_v14.07.x/build_dir/target-mips_24kec_uClibc-0.9.33.2/linux-rtkmips_rtl8198c/linux-3.10.49/arch/mips/include/asm/io.h"
	.file 28 "include/linux/mm.h"
	.file 29 "include/linux/mmzone.h"
	.file 30 "include/linux/jiffies.h"
	.file 31 "include/linux/workqueue.h"
	.file 32 "/home/extra_home/marklee/rtk_OpenWRT_BB/BB_v1407/0629_co_2.4_pre_release/svn_test/rtk_BarrierBreaker_v14.07.x/build_dir/target-mips_24kec_uClibc-0.9.33.2/linux-rtkmips_rtl8198c/linux-3.10.49/arch/mips/include/asm/smp.h"
	.file 33 "/home/extra_home/marklee/rtk_OpenWRT_BB/BB_v1407/0629_co_2.4_pre_release/svn_test/rtk_BarrierBreaker_v14.07.x/build_dir/target-mips_24kec_uClibc-0.9.33.2/linux-rtkmips_rtl8198c/linux-3.10.49/arch/mips/include/asm/smp-ops.h"
	.file 34 "include/asm-generic/percpu.h"
	.file 35 "include/linux/sched.h"
	.file 36 "include/linux/percpu_counter.h"
	.file 37 "include/linux/quota.h"
	.file 38 "include/linux/interrupt.h"
	.file 39 "include/linux/kernel_stat.h"
	.file 40 "include/linux/slab.h"
	.file 41 "include/linux/ioport.h"
	.file 42 "include/linux/debug_locks.h"
	.file 43 "/home/extra_home/marklee/rtk_OpenWRT_BB/BB_v1407/0629_co_2.4_pre_release/svn_test/rtk_BarrierBreaker_v14.07.x/build_dir/target-mips_24kec_uClibc-0.9.33.2/linux-rtkmips_rtl8198c/linux-3.10.49/arch/mips/include/asm/pgtable-32.h"
	.file 44 "/home/extra_home/marklee/rtk_OpenWRT_BB/BB_v1407/0629_co_2.4_pre_release/svn_test/rtk_BarrierBreaker_v14.07.x/build_dir/target-mips_24kec_uClibc-0.9.33.2/linux-rtkmips_rtl8198c/linux-3.10.49/arch/mips/include/asm/pgtable.h"
	.file 45 "include/asm-generic/pgtable.h"
	.file 46 "include/linux/vmstat.h"
	.file 47 "include/linux/netfilter.h"
	.file 48 "include/net/net_namespace.h"
	.file 49 "include/linux/netdevice.h"
	.file 50 "include/net/sock.h"
	.file 51 "include/net/inet_sock.h"
	.file 52 "include/net/ip.h"
	.file 53 "include/net/inet_connection_sock.h"
	.file 54 "include/net/route.h"
	.file 55 "include/net/arp.h"
	.file 56 "include/net/rtl/fastpath/fastpath_core.h"
	.file 57 "/home/extra_home/marklee/rtk_OpenWRT_BB/BB_v1407/0629_co_2.4_pre_release/svn_test/rtk_BarrierBreaker_v14.07.x/build_dir/target-mips_24kec_uClibc-0.9.33.2/linux-rtkmips_rtl8198c/fastpath-0.1/fast_l2tp_core.h"