	.section .mdebug.abi32
	.previous
	.gnu_attribute 4, 3
	.text
$Ltext0:
	.cfi_sections	.debug_frame
	.align	2
$LFB3309 = .
	.file 1 "/home/extra_home/marklee/rtk_OpenWRT_BB/BB_v1407/0629_co_2.4_pre_release/svn_test/rtk_BarrierBreaker_v14.07.x/build_dir/target-mips_24kec_uClibc-0.9.33.2/linux-rtkmips_rtl8198c/fastpath-0.1/filter_v2.c"
	.loc 1 503 0
	.cfi_startproc
	.set	nomips16
	.ent	rtl_ip_range_filter_fastpath
	.type	rtl_ip_range_filter_fastpath, @function
rtl_ip_range_filter_fastpath:
	.frame	$sp,24,$31		# vars= 0, regs= 2/0, args= 16, gp= 0
	.mask	0x80010000,-4
	.fmask	0x00000000,0
	.set	noreorder
	.set	nomacro
	addiu	$sp,$sp,-24
	.cfi_def_cfa_offset 24
	sw	$16,16($sp)
	sw	$31,20($sp)
	.cfi_offset 16, -8
	.cfi_offset 31, -4
	.loc 1 507 0
	jal	rtl_ip_hdr
	move	$16,$5

	.loc 1 513 0
	lw	$3,12($2)
	lw	$4,0($16)
	sltu	$4,$3,$4
	bne	$4,$0,$L2
	move	$2,$0

	.loc 1 513 0 is_stmt 0 discriminator 1
	lw	$2,4($16)
	sltu	$2,$2,$3
	xori	$2,$2,0x1
$L2:
	.loc 1 518 0 is_stmt 1
	lw	$31,20($sp)
	lw	$16,16($sp)
	j	$31
	addiu	$sp,$sp,24

	.cfi_def_cfa_offset 0
	.cfi_restore 16
	.cfi_restore 31
	.set	macro
	.set	reorder
	.end	rtl_ip_range_filter_fastpath
	.cfi_endproc
$LFE3309:
	.size	rtl_ip_range_filter_fastpath, .-rtl_ip_range_filter_fastpath
	.align	2
	.globl	rtl_mac_filter_fastpath
$LFB3308 = .
	.loc 1 483 0
	.cfi_startproc
	.set	nomips16
	.ent	rtl_mac_filter_fastpath
	.type	rtl_mac_filter_fastpath, @function
rtl_mac_filter_fastpath:
	.frame	$sp,40,$31		# vars= 0, regs= 6/0, args= 16, gp= 0
	.mask	0x801f0000,-4
	.fmask	0x00000000,0
	.set	noreorder
	.set	nomacro
	addiu	$sp,$sp,-40
	.cfi_def_cfa_offset 40
	sw	$20,32($sp)
	sw	$19,28($sp)
	sw	$18,24($sp)
	sw	$16,16($sp)
	sw	$31,36($sp)
	sw	$17,20($sp)
	.cfi_offset 20, -8
	.cfi_offset 19, -12
	.cfi_offset 18, -16
	.cfi_offset 16, -24
	.cfi_offset 31, -4
	.cfi_offset 17, -20
	.loc 1 483 0
	move	$19,$4
	move	$18,$5
	li	$16,6			# 0x6
	.loc 1 487 0
	li	$20,12			# 0xc
$L8:
	addu	$2,$18,$16
	.loc 1 490 0
	move	$4,$19
	jal	rtl_skb_mac_header
	lbu	$17,-6($2)

	addu	$2,$2,$16
	lbu	$2,0($2)
	bne	$17,$2,$L9
	addiu	$16,$16,1

	.loc 1 487 0
	bne	$16,$20,$L8
	li	$2,1			# 0x1

	.loc 1 498 0
	j	$L13
	lw	$31,36($sp)

$L9:
	move	$2,$0
	lw	$31,36($sp)
$L13:
	lw	$20,32($sp)
	lw	$19,28($sp)
	lw	$18,24($sp)
	lw	$17,20($sp)
	lw	$16,16($sp)
	j	$31
	addiu	$sp,$sp,40

	.cfi_def_cfa_offset 0
	.cfi_restore 16
	.cfi_restore 17
	.cfi_restore 18
	.cfi_restore 19
	.cfi_restore 20
	.cfi_restore 31
	.set	macro
	.set	reorder
	.end	rtl_mac_filter_fastpath
	.cfi_endproc
$LFE3308:
	.size	rtl_mac_filter_fastpath, .-rtl_mac_filter_fastpath
	.align	2
$LFB3310 = .
	.loc 1 523 0
	.cfi_startproc
	.set	nomips16
	.ent	rtl_schedule_filter_fastpath
	.type	rtl_schedule_filter_fastpath, @function
rtl_schedule_filter_fastpath:
	.frame	$sp,32,$31		# vars= 8, regs= 2/0, args= 16, gp= 0
	.mask	0x80010000,-4
	.fmask	0x00000000,0
	.set	noreorder
	.set	nomacro
	addiu	$sp,$sp,-32
	.cfi_def_cfa_offset 32
	.loc 1 533 0
	addiu	$4,$sp,16
	.loc 1 523 0
	sw	$16,24($sp)
	sw	$31,28($sp)
	.cfi_offset 16, -8
	.cfi_offset 31, -4
	.loc 1 533 0
	jal	do_gettimeofday
	move	$16,$5

	.loc 1 534 0
	lw	$3,16($sp)
	li	$4,-1037172736			# 0xffffffffc22e0000
	addiu	$4,$4,17671
	mult	$3,$4
	.loc 1 536 0
	li	$6,-1851654144			# 0xffffffff91a20000
	ori	$6,$6,0xb3c5
	.loc 1 538 0
	li	$8,-2004353024			# 0xffffffff88880000
	ori	$8,$8,0x8889
	.loc 1 536 0
	sra	$7,$3,31
	.loc 1 534 0
	li	$12,-1840709632			# 0xffffffff92490000
	addiu	$12,$12,9363
	lw	$11,8($16)
	mfhi	$4
	addu	$4,$4,$3
	sra	$4,$4,16
	.loc 1 536 0
	mult	$3,$6
	.loc 1 534 0
	subu	$4,$4,$7
	addiu	$4,$4,4
	sra	$2,$4,31
	.loc 1 536 0
	mfhi	$6
	addu	$6,$6,$3
	sra	$6,$6,11
	.loc 1 538 0
	mult	$3,$8
	.loc 1 536 0
	subu	$6,$6,$7
	sra	$10,$6,31
	.loc 1 538 0
	mfhi	$5
	addu	$3,$5,$3
	.loc 1 536 0
	li	$5,715784192			# 0x2aaa0000
	.loc 1 534 0
	mult	$4,$12
	.loc 1 536 0
	ori	$5,$5,0xaaab
	.loc 1 538 0
	sra	$3,$3,5
	subu	$3,$3,$7
	sra	$9,$3,31
	.loc 1 534 0
	mfhi	$12
	addu	$7,$12,$4
	sra	$7,$7,2
	.loc 1 536 0
	mult	$6,$5
	.loc 1 534 0
	subu	$7,$7,$2
	sll	$2,$7,3
	subu	$7,$2,$7
	subu	$4,$4,$7
	.loc 1 543 0
	li	$2,1			# 0x1
	sll	$2,$2,$4
	ori	$2,$2,0x80
	and	$2,$2,$11
	.loc 1 536 0
	mfhi	$5
	sra	$5,$5,2
	subu	$5,$5,$10
	.loc 1 538 0
	mult	$3,$8
	.loc 1 536 0
	sll	$7,$5,3
	sll	$5,$5,5
	subu	$5,$5,$7
	subu	$6,$6,$5
	.loc 1 539 0
	sll	$5,$6,2
	sll	$6,$6,6
	subu	$6,$6,$5
	.loc 1 538 0
	mfhi	$4
	addu	$4,$4,$3
	sra	$4,$4,5
	subu	$4,$4,$9
	sll	$5,$4,2
	sll	$4,$4,6
	subu	$4,$4,$5
	subu	$3,$3,$4
	.loc 1 543 0
	beq	$2,$0,$L15
	addu	$3,$6,$3

	.loc 1 545 0
	lw	$5,0($16)
	bne	$5,$0,$L16
	nop

	.loc 1 545 0 is_stmt 0 discriminator 1
	lw	$6,4($16)
	bne	$6,$0,$L17
	li	$2,1			# 0x1

	.loc 1 553 0 is_stmt 1
	j	$L25
	lw	$31,28($sp)

$L16:
	.loc 1 545 0 discriminator 2
	sltu	$5,$3,$5
	bne	$5,$0,$L15
	move	$2,$0

	lw	$6,4($16)
$L17:
	.loc 1 545 0 is_stmt 0 discriminator 1
	sltu	$3,$6,$3
	xori	$2,$3,0x1
$L15:
	.loc 1 553 0 is_stmt 1
	lw	$31,28($sp)
$L25:
	lw	$16,24($sp)
	j	$31
	addiu	$sp,$sp,32

	.cfi_def_cfa_offset 0
	.cfi_restore 16
	.cfi_restore 31
	.set	macro
	.set	reorder
	.end	rtl_schedule_filter_fastpath
	.cfi_endproc
$LFE3310:
	.size	rtl_schedule_filter_fastpath, .-rtl_schedule_filter_fastpath
	.align	2
	.globl	filter_table_single_open
$LFB3318 = .
	.loc 1 1167 0
	.cfi_startproc
	.set	nomips16
	.ent	filter_table_single_open
	.type	filter_table_single_open, @function
filter_table_single_open:
	.frame	$sp,0,$31		# vars= 0, regs= 0/0, args= 0, gp= 0
	.mask	0x00000000,0
	.fmask	0x00000000,0
	.set	noreorder
	.set	nomacro
	.loc 1 1168 0
	move	$4,$5
	lui	$5,%hi(filter_table_read_proc)
	move	$6,$0
	j	single_open
	addiu	$5,$5,%lo(filter_table_read_proc)

	.set	macro
	.set	reorder
	.end	filter_table_single_open
	.cfi_endproc
$LFE3318:
	.size	filter_table_single_open, .-filter_table_single_open
	.align	2
$LFB3355 = .
	.file 2 "/home/extra_home/marklee/rtk_OpenWRT_BB/BB_v1407/0629_co_2.4_pre_release/svn_test/rtk_BarrierBreaker_v14.07.x/build_dir/target-mips_24kec_uClibc-0.9.33.2/linux-rtkmips_rtl8198c/fastpath-0.1/filter.c"
	.loc 2 3132 0
	.cfi_startproc
	.set	nomips16
	.ent	dos_single_open
	.type	dos_single_open, @function
dos_single_open:
	.frame	$sp,0,$31		# vars= 0, regs= 0/0, args= 0, gp= 0
	.mask	0x00000000,0
	.fmask	0x00000000,0
	.set	noreorder
	.set	nomacro
	.loc 2 3133 0
	move	$4,$5
	lui	$5,%hi(dos_read_proc)
	move	$6,$0
	j	single_open
	addiu	$5,$5,%lo(dos_read_proc)

	.set	macro
	.set	reorder
	.end	dos_single_open
	.cfi_endproc
$LFE3355:
	.size	dos_single_open, .-dos_single_open
	.section	.rodata.str1.4,"aMS",@progbits,1
	.align	2
$LC0:
	.ascii	"type=%d num=%d\012\000"
	.align	2
$LC1:
	.ascii	"index=%d\011\000"
	.align	2
$LC2:
	.ascii	"mac=%02x:%02x:%02x:%02x:%02x:%02x\012\000"
	.align	2
$LC3:
	.ascii	"index=%d\011\011\000"
	.align	2
$LC4:
	.ascii	"url=%s\012\000"
	.align	2
$LC5:
	.ascii	"start=%x\011\000"
	.align	2
$LC6:
	.ascii	"end=%x\011\000"
	.align	2
$LC7:
	.ascii	"day=%x\012\000"
	.align	2
$LC8:
	.ascii	"unknow table type\012\000"
	.align	2
$LC9:
	.ascii	"Mode:%d %s\012\000"
	.text
	.align	2
$LFB3317 = .
	.loc 1 1046 0
	.cfi_startproc
	.set	nomips16
	.ent	filter_table_read_proc
	.type	filter_table_read_proc, @function
filter_table_read_proc:
	.frame	$sp,72,$31		# vars= 0, regs= 10/0, args= 32, gp= 0
	.mask	0xc0ff0000,-4
	.fmask	0x00000000,0
	.set	noreorder
	.set	nomacro
	addiu	$sp,$sp,-72
	.cfi_def_cfa_offset 72
	sw	$16,32($sp)
	.cfi_offset 16, -40
$LBB527 = .
$LBB528 = .
	.file 3 "include/linux/slub_def.h"
	.loc 3 170 0
	lui	$16,%hi(kmalloc_caches)
$LBE528 = .
$LBE527 = .
	.loc 1 1046 0
	sw	$17,36($sp)
	sw	$31,68($sp)
	sw	$fp,64($sp)
	sw	$23,60($sp)
	sw	$22,56($sp)
	sw	$21,52($sp)
	sw	$20,48($sp)
	sw	$19,44($sp)
	sw	$18,40($sp)
	.cfi_offset 17, -36
	.cfi_offset 31, -4
	.cfi_offset 30, -8
	.cfi_offset 23, -12
	.cfi_offset 22, -16
	.cfi_offset 21, -20
	.cfi_offset 20, -24
	.cfi_offset 19, -28
	.cfi_offset 18, -32
$LBB533 = .
$LBB531 = .
	.loc 3 170 0
	addiu	$16,$16,%lo(kmalloc_caches)
$LBE531 = .
$LBE533 = .
	.loc 1 1046 0
	sw	$4,72($sp)
$LBB534 = .
$LBB532 = .
$LBB529 = .
$LBB530 = .
	.loc 3 142 0
	lw	$4,36($16)
	jal	kmem_cache_alloc
	li	$5,208			# 0xd0

$LBE530 = .
$LBE529 = .
$LBE532 = .
$LBE534 = .
	.loc 1 1053 0
	beq	$2,$0,$L29
	move	$17,$2

$LBB535 = .
	.loc 1 1055 0
	move	$4,$2
	move	$5,$0
	jal	memset
	li	$6,512			# 0x200

$LBE535 = .
$LBB536 = .
$LBB537 = .
$LBB538 = .
$LBB539 = .
	.loc 3 142 0
	lw	$4,32($16)
	jal	kmem_cache_alloc
	li	$5,208			# 0xd0

$LBE539 = .
$LBE538 = .
$LBE537 = .
$LBE536 = .
	.loc 1 1058 0
	bne	$2,$0,$L30
	move	$16,$2

	.loc 1 1060 0
	jal	kfree
	move	$4,$17

	.loc 1 1061 0
	j	$L50
	lw	$31,68($sp)

$L30:
$LBB540 = .
	.loc 1 1063 0
	move	$4,$2
	move	$5,$0
	jal	memset
	li	$6,256			# 0x100

$LBE540 = .
	.loc 1 1095 0
	lui	$22,%hi($LC3)
	.loc 1 1065 0
	lui	$2,%hi(table_list_head)
$LBB541 = .
	.loc 1 1134 0
	lui	$20,%hi($LC1)
$LBE541 = .
	.loc 1 1065 0
	lw	$19,%lo(table_list_head)($2)
	.loc 1 1095 0
	addiu	$22,$22,%lo($LC3)
	.loc 1 1065 0
	j	$L51
	addiu	$20,$20,%lo($LC1)

$L44:
	.loc 1 1075 0
	lw	$7,24($19)
	lw	$6,16($19)
	move	$4,$17
	addiu	$5,$2,%lo($LC0)
	jal	sprintf
	addiu	$7,$7,-1

	.loc 1 1077 0
	lw	$2,16($19)
	li	$3,3			# 0x3
	beq	$2,$3,$L33
	li	$3,4			# 0x4

	beq	$2,$3,$L34
	li	$3,2			# 0x2

	bne	$2,$3,$L48
	move	$4,$16

	.loc 1 1086 0
	lui	$23,%hi($LC2)
	.loc 1 1080 0
	lw	$18,8($19)
	addiu	$21,$19,8
	j	$L52
	addiu	$23,$23,%lo($LC2)

$L37:
	.loc 1 1083 0 discriminator 2
	jal	sprintf
	lw	$6,20($18)

	.loc 1 1085 0 discriminator 2
	move	$4,$17
	jal	strcat
	move	$5,$16

	.loc 1 1086 0 discriminator 2
	lbu	$2,30($18)
	lbu	$6,28($18)
	lbu	$7,29($18)
	sw	$2,16($sp)
	lbu	$2,31($18)
	move	$4,$16
	move	$5,$23
	sw	$2,20($sp)
	lbu	$2,32($18)
	sw	$2,24($sp)
	lbu	$2,33($18)
	jal	sprintf
	sw	$2,28($sp)

	.loc 1 1087 0 discriminator 2
	move	$4,$17
	jal	strcat
	move	$5,$16

	.loc 1 1080 0 discriminator 2
	lw	$18,0($18)
	.loc 1 1083 0 discriminator 1
	move	$4,$16
$L52:
	.loc 1 1080 0 discriminator 1
	bne	$18,$21,$L37
	move	$5,$20

	.loc 1 1065 0
	j	$L31
	lw	$19,0($19)

$L33:
	.loc 1 1092 0
	lw	$18,8($19)
	j	$L39
	addiu	$21,$19,8

$L40:
	.loc 1 1095 0 discriminator 2
	jal	sprintf
	lw	$6,20($18)

	.loc 1 1096 0 discriminator 2
	move	$4,$17
	jal	strcat
	move	$5,$16

	.loc 1 1101 0 discriminator 2
	lui	$5,%hi($LC4)
	addiu	$6,$18,28
	move	$4,$16
	jal	sprintf
	addiu	$5,$5,%lo($LC4)

	.loc 1 1103 0 discriminator 2
	move	$4,$17
	jal	strcat
	move	$5,$16

	.loc 1 1092 0 discriminator 2
	lw	$18,0($18)
$L39:
	.loc 1 1095 0 discriminator 1
	move	$4,$16
	.loc 1 1092 0 discriminator 1
	bne	$18,$21,$L40
	move	$5,$22

	.loc 1 1065 0
	j	$L31
	lw	$19,0($19)

$L34:
$LBB542 = .
	.loc 1 1140 0
	lui	$2,%hi($LC5)
	.loc 1 1143 0
	lui	$23,%hi($LC6)
	.loc 1 1131 0
	lw	$18,8($19)
	addiu	$21,$19,8
	.loc 1 1140 0
	addiu	$fp,$2,%lo($LC5)
	.loc 1 1131 0
	j	$L42
	addiu	$23,$23,%lo($LC6)

$L43:
	.loc 1 1134 0 discriminator 2
	jal	sprintf
	lw	$6,20($18)

	.loc 1 1135 0 discriminator 2
	move	$4,$17
	jal	strcat
	move	$5,$16

	.loc 1 1140 0 discriminator 2
	lw	$6,28($18)
	move	$4,$16
	jal	sprintf
	move	$5,$fp

	.loc 1 1141 0 discriminator 2
	move	$4,$17
	jal	strcat
	move	$5,$16

	.loc 1 1143 0 discriminator 2
	lw	$6,32($18)
	move	$4,$16
	jal	sprintf
	move	$5,$23

	.loc 1 1144 0 discriminator 2
	move	$4,$17
	jal	strcat
	move	$5,$16

	.loc 1 1146 0 discriminator 2
	lw	$6,36($18)
	lui	$5,%hi($LC7)
	move	$4,$16
	jal	sprintf
	addiu	$5,$5,%lo($LC7)

	.loc 1 1147 0 discriminator 2
	move	$4,$17
	jal	strcat
	move	$5,$16

	.loc 1 1131 0 discriminator 2
	lw	$18,0($18)
$L42:
	.loc 1 1134 0 discriminator 1
	move	$4,$16
	.loc 1 1131 0 discriminator 1
	bne	$18,$21,$L43
	move	$5,$20

$LBE542 = .
	.loc 1 1065 0
	j	$L31
	lw	$19,0($19)

$L48:
	.loc 1 1153 0
	lui	$5,%hi($LC8)
	jal	sprintf
	addiu	$5,$5,%lo($LC8)

	.loc 1 1154 0
	move	$4,$17
	jal	strcat
	move	$5,$16

	.loc 1 1065 0
	lw	$19,0($19)
$L31:
	.loc 1 1065 0 is_stmt 0 discriminator 1
	lui	$2,%hi(table_list_head)
$L51:
	addiu	$2,$2,%lo(table_list_head)
	bne	$19,$2,$L44
	lui	$2,%hi($LC0)

	.loc 1 1159 0 is_stmt 1
	lui	$2,%hi(url_filter_mode)
	lw	$6,%lo(url_filter_mode)($2)
	lw	$4,72($sp)
	lui	$5,%hi($LC9)
	addiu	$5,$5,%lo($LC9)
	jal	seq_printf
	move	$7,$17

	.loc 1 1161 0
	jal	kfree
	move	$4,$17

	.loc 1 1162 0
	jal	kfree
	move	$4,$16

$L29:
	.loc 1 1164 0
	lw	$31,68($sp)
$L50:
	lw	$fp,64($sp)
	lw	$23,60($sp)
	lw	$22,56($sp)
	lw	$21,52($sp)
	lw	$20,48($sp)
	lw	$19,44($sp)
	lw	$18,40($sp)
	lw	$17,36($sp)
	lw	$16,32($sp)
	move	$2,$0
	j	$31
	addiu	$sp,$sp,72

	.cfi_def_cfa_offset 0
	.cfi_restore 16
	.cfi_restore 17
	.cfi_restore 18
	.cfi_restore 19
	.cfi_restore 20
	.cfi_restore 21
	.cfi_restore 22
	.cfi_restore 23
	.cfi_restore 30
	.cfi_restore 31
	.set	macro
	.set	reorder
	.end	filter_table_read_proc
	.cfi_endproc
$LFE3317:
	.size	filter_table_read_proc, .-filter_table_read_proc
	.section	.rodata.str1.4
	.align	2
$LC10:
	.ascii	"%s\012\000"
	.text
	.align	2
$LFB3354 = .
	.loc 2 3125 0
	.cfi_startproc
	.set	nomips16
	.ent	dos_read_proc
	.type	dos_read_proc, @function
dos_read_proc:
	.frame	$sp,24,$31		# vars= 0, regs= 1/0, args= 16, gp= 0
	.mask	0x80000000,-4
	.fmask	0x00000000,0
	.set	noreorder
	.set	nomacro
	.loc 2 3126 0
	lui	$5,%hi($LC10)
	lui	$6,%hi(dos_flag)
	.loc 2 3125 0
	addiu	$sp,$sp,-24
	.cfi_def_cfa_offset 24
	.loc 2 3126 0
	addiu	$5,$5,%lo($LC10)
	.loc 2 3125 0
	sw	$31,20($sp)
	.cfi_offset 31, -4
	.loc 2 3126 0
	jal	seq_printf
	addiu	$6,$6,%lo(dos_flag)

	.loc 2 3129 0
	lw	$31,20($sp)
	move	$2,$0
	j	$31
	addiu	$sp,$sp,24

	.cfi_def_cfa_offset 0
	.cfi_restore 31
	.set	macro
	.set	reorder
	.end	dos_read_proc
	.cfi_endproc
$LFE3354:
	.size	dos_read_proc, .-dos_read_proc
	.section	.rodata.str1.4
	.align	2
$LC11:
	.ascii	"br-lan\000"
	.align	2
$LC12:
	.ascii	"HTTP/1.1 401 The web site is blocked by administrator\015"
	.ascii	"\012Server: Embedded HTTP Server 2.00\015\012Connection:"
	.ascii	" close\015\012\015\012<HTML><HEAD><TITLE>401 The web sit"
	.ascii	"e is blocked by administrator</TITLE></HEAD>\012<BODY BG"
	.ascii	"COLOR=\"#ffffff\"><H4>401 The web site is blocked by adm"
	.ascii	"inistrator</H4></BODY></HTML>\012\000"
	.text
	.align	2
	.globl	GenerateHTTP401
$LFB3329 = .
	.loc 2 741 0
	.cfi_startproc
	.set	nomips16
	.ent	GenerateHTTP401
	.type	GenerateHTTP401, @function
GenerateHTTP401:
	.frame	$sp,184,$31		# vars= 128, regs= 9/0, args= 16, gp= 0
	.mask	0x80ff0000,-4
	.fmask	0x00000000,0
	addiu	$sp,$sp,-184
	.cfi_def_cfa_offset 184
	sw	$19,160($sp)
	.cfi_offset 19, -24
	move	$19,$4
	.loc 2 777 0
	lui	$4,%hi($LC11)
	addiu	$4,$4,%lo($LC11)
	.loc 2 741 0
	sw	$31,180($sp)
	sw	$16,148($sp)
	sw	$23,176($sp)
	sw	$22,172($sp)
	sw	$21,168($sp)
	sw	$20,164($sp)
	sw	$18,156($sp)
	.cfi_offset 31, -4
	.cfi_offset 16, -36
	.cfi_offset 23, -8
	.cfi_offset 22, -12
	.cfi_offset 21, -16
	.cfi_offset 20, -20
	.cfi_offset 18, -28
	.cfi_offset 17, -32
	.loc 2 777 0
	.set	noreorder
	.set	nomacro
	jal	rtl_get_dev_by_name
	sw	$17,152($sp)
	.set	macro
	.set	reorder

	.loc 2 779 0
	move	$4,$19
	.set	noreorder
	.set	nomacro
	jal	rtl_ip_hdr
	move	$16,$2
	.set	macro
	.set	reorder

	.loc 2 782 0
	addiu	$4,$2,12
	.set	noreorder
	.set	nomacro
	jal	rtl_neigh_lookup
	move	$5,$16
	.set	macro
	.set	reorder

	.loc 2 783 0
	.set	noreorder
	.set	nomacro
	beq	$2,$0,$L85
	move	$16,$2
	.set	macro
	.set	reorder

	.loc 2 783 0 is_stmt 0 discriminator 1
	.set	noreorder
	.set	nomacro
	jal	rtl_get_hh_from_neigh
	move	$4,$2
	.set	macro
	.set	reorder

	.set	noreorder
	.set	nomacro
	bne	$2,$0,$L88
	lui	$20,%hi(block_message)
	.set	macro
	.set	reorder

	.file 4 "include/net/neighbour.h"
	.loc 4 300 0 is_stmt 1
	.set	noreorder
	.set	nomacro
	j	$L96
	addiu	$2,$16,24
	.set	macro
	.set	reorder

$L82:
$LBB543 = .
$LBB544 = .
$LBB545 = .
$LBB546 = .
$LBB547 = .
	.file 5 "/home/extra_home/marklee/rtk_OpenWRT_BB/BB_v1407/0629_co_2.4_pre_release/svn_test/rtk_BarrierBreaker_v14.07.x/build_dir/target-mips_24kec_uClibc-0.9.33.2/linux-rtkmips_rtl8198c/linux-3.10.49/arch/mips/include/asm/atomic.h"
	.loc 5 207 0
#APP
 # 207 "/home/extra_home/marklee/rtk_OpenWRT_BB/BB_v1407/0629_co_2.4_pre_release/svn_test/rtk_BarrierBreaker_v14.07.x/build_dir/target-mips_24kec_uClibc-0.9.33.2/linux-rtkmips_rtl8198c/linux-3.10.49/arch/mips/include/asm/atomic.h" 1
		.set	mips3				
	ll	$3, 0($2)	# atomic_sub_return	
	subu	$4, $3, 1			
	sc	$4, 0($2)				
	.set	mips0				

 # 0 "" 2
	.loc 5 215 0
#NO_APP
	bne	$4,$0,$L95
	j	$L82
$L88:
$LBE547 = .
$LBE546 = .
$LBE545 = .
$LBE544 = .
$LBE543 = .
	.loc 2 857 0
	lw	$4,%lo(block_message)($20)
	bne	$4,$0,$L92
	.loc 2 860 0
	lui	$4,%hi($LC12)
	addiu	$4,$4,%lo($LC12)
$L92:
	jal	strlen
	move	$6,$2
	move	$4,$19
	li	$5,128			# 0x80
	.set	noreorder
	.set	nomacro
	jal	skb_copy_expand
	li	$7,32			# 0x20
	.set	macro
	.set	reorder

	.loc 2 862 0
	.set	noreorder
	.set	nomacro
	bne	$2,$0,$L89
	move	$18,$2
	.set	macro
	.set	reorder

$LBB551 = .
$LBB552 = .
	.loc 4 300 0
	addiu	$2,$16,24
$LBB553 = .
$LBB554 = .
	.loc 5 185 0
#APP
 # 185 "/home/extra_home/marklee/rtk_OpenWRT_BB/BB_v1407/0629_co_2.4_pre_release/svn_test/rtk_BarrierBreaker_v14.07.x/build_dir/target-mips_24kec_uClibc-0.9.33.2/linux-rtkmips_rtl8198c/linux-3.10.49/arch/mips/include/asm/atomic.h" 1
			

 # 0 "" 2
#NO_APP
$L65:
$LBB555 = .
	.loc 5 207 0
#APP
 # 207 "/home/extra_home/marklee/rtk_OpenWRT_BB/BB_v1407/0629_co_2.4_pre_release/svn_test/rtk_BarrierBreaker_v14.07.x/build_dir/target-mips_24kec_uClibc-0.9.33.2/linux-rtkmips_rtl8198c/linux-3.10.49/arch/mips/include/asm/atomic.h" 1
		.set	mips3				
	ll	$3, 0($2)	# atomic_sub_return	
	subu	$4, $3, 1			
	sc	$4, 0($2)				
	.set	mips0				

 # 0 "" 2
	.loc 5 215 0
#NO_APP
	beq	$4,$0,$L65
$L95:
$LBE555 = .
	.loc 5 228 0
#APP
 # 228 "/home/extra_home/marklee/rtk_OpenWRT_BB/BB_v1407/0629_co_2.4_pre_release/svn_test/rtk_BarrierBreaker_v14.07.x/build_dir/target-mips_24kec_uClibc-0.9.33.2/linux-rtkmips_rtl8198c/linux-3.10.49/arch/mips/include/asm/atomic.h" 1
			

 # 0 "" 2
#NO_APP
$LBE554 = .
$LBE553 = .
	.loc 4 300 0
	li	$2,1			# 0x1
	bne	$3,$2,$L85
	.loc 4 301 0
	.set	noreorder
	.set	nomacro
	jal	neigh_destroy
	move	$4,$16
	.set	macro
	.set	reorder

$LBE552 = .
$LBE551 = .
	.loc 2 967 0
	.set	noreorder
	.set	nomacro
	j	$L97
	lw	$31,180($sp)
	.set	macro
	.set	reorder

$L89:
	.loc 2 870 0
	.set	noreorder
	.set	nomacro
	jal	rtl_ip_hdr
	move	$4,$18
	.set	macro
	.set	reorder

	move	$17,$2
	.loc 2 871 0
	lw	$2,0($2)
	.loc 2 874 0
	move	$4,$18
	.loc 2 871 0
	ext	$2,$2,24,4
	sll	$21,$2,2
	addu	$21,$17,$21
	.loc 2 874 0
	lw	$3,12($21)
	srl	$3,$3,28
	addu	$5,$2,$3
	.set	noreorder
	.set	nomacro
	jal	skb_trim
	sll	$5,$5,2
	.set	macro
	.set	reorder

	.loc 2 876 0
	lw	$4,%lo(block_message)($20)
	bne	$4,$0,$L91
	.loc 2 879 0
	lui	$4,%hi($LC12)
	addiu	$4,$4,%lo($LC12)
$L91:
	jal	strlen
	move	$5,$2
	.set	noreorder
	.set	nomacro
	jal	skb_put
	move	$4,$18
	.set	macro
	.set	reorder

	.loc 2 881 0
	.set	noreorder
	.set	nomacro
	jal	rtl_get_hh_from_neigh
	move	$4,$16
	.set	macro
	.set	reorder

	.loc 2 882 0
	move	$5,$2
	addiu	$4,$sp,136
	.set	noreorder
	.set	nomacro
	jal	rtl_get_lock_from_hh
	move	$22,$2
	.set	macro
	.set	reorder

	lw	$2,136($sp)
	.loc 2 883 0
	addiu	$4,$sp,116
	.loc 2 882 0
	sw	$2,116($sp)
	lw	$2,140($sp)
	.loc 2 883 0
	.set	noreorder
	.set	nomacro
	jal	_raw_read_lock_bh
	sw	$2,120($sp)
	.set	macro
	.set	reorder

$LBB556 = .
	.loc 2 884 0
	.set	noreorder
	.set	nomacro
	jal	rtl_get_skb_data
	move	$4,$18
	.set	macro
	.set	reorder

	move	$4,$22
	.set	noreorder
	.set	nomacro
	jal	rtl_get_data_from_hh
	move	$23,$2
	.set	macro
	.set	reorder

	lwl	$7,0($2)
	lwl	$6,4($2)
	lwl	$4,8($2)
	lwr	$7,3($2)
	lwl	$5,12($2)
	lwr	$6,7($2)
	addiu	$3,$23,-16
	lwr	$4,11($2)
	lwr	$5,15($2)
	swl	$7,0($3)
	swr	$7,3($3)
	swl	$6,4($3)
	swr	$6,7($3)
	swl	$4,8($3)
	swr	$4,11($3)
$LBE556 = .
	.loc 2 885 0
	addiu	$4,$sp,116
$LBB557 = .
	.loc 2 884 0
	swl	$5,12($3)
$LBE557 = .
	.loc 2 885 0
	.set	noreorder
	.set	nomacro
	jal	_raw_read_unlock_bh
	swr	$5,15($3)
	.set	macro
	.set	reorder

	.loc 2 886 0
	.set	noreorder
	.set	nomacro
	jal	rtl_get_len_from_hh
	move	$4,$22
	.set	macro
	.set	reorder

	move	$5,$2
	.set	noreorder
	.set	nomacro
	jal	skb_push
	move	$4,$18
	.set	macro
	.set	reorder

$LBB558 = .
$LBB559 = .
	.loc 4 300 0
	addiu	$2,$16,24
$LBB560 = .
$LBB561 = .
	.loc 5 185 0
#APP
 # 185 "/home/extra_home/marklee/rtk_OpenWRT_BB/BB_v1407/0629_co_2.4_pre_release/svn_test/rtk_BarrierBreaker_v14.07.x/build_dir/target-mips_24kec_uClibc-0.9.33.2/linux-rtkmips_rtl8198c/linux-3.10.49/arch/mips/include/asm/atomic.h" 1
			

 # 0 "" 2
#NO_APP
$L69:
$LBB562 = .
	.loc 5 207 0
#APP
 # 207 "/home/extra_home/marklee/rtk_OpenWRT_BB/BB_v1407/0629_co_2.4_pre_release/svn_test/rtk_BarrierBreaker_v14.07.x/build_dir/target-mips_24kec_uClibc-0.9.33.2/linux-rtkmips_rtl8198c/linux-3.10.49/arch/mips/include/asm/atomic.h" 1
		.set	mips3				
	ll	$3, 0($2)	# atomic_sub_return	
	subu	$4, $3, 1			
	sc	$4, 0($2)				
	.set	mips0				

 # 0 "" 2
	.loc 5 215 0
#NO_APP
	beq	$4,$0,$L69
$LBE562 = .
	.loc 5 228 0
#APP
 # 228 "/home/extra_home/marklee/rtk_OpenWRT_BB/BB_v1407/0629_co_2.4_pre_release/svn_test/rtk_BarrierBreaker_v14.07.x/build_dir/target-mips_24kec_uClibc-0.9.33.2/linux-rtkmips_rtl8198c/linux-3.10.49/arch/mips/include/asm/atomic.h" 1
			

 # 0 "" 2
#NO_APP
$LBE561 = .
$LBE560 = .
	.loc 4 300 0
	li	$2,1			# 0x1
	.set	noreorder
	.set	nomacro
	bne	$3,$2,$L99
	move	$4,$18
	.set	macro
	.set	reorder

	.loc 4 301 0
	.set	noreorder
	.set	nomacro
	jal	neigh_destroy
	move	$4,$16
	.set	macro
	.set	reorder

$LBE559 = .
$LBE558 = .
	.loc 2 889 0 discriminator 1
	move	$4,$18
$L99:
	.set	noreorder
	.set	nomacro
	jal	rtl_set_skb_nfct
	move	$5,$0
	.set	macro
	.set	reorder

	.loc 2 895 0 discriminator 1
	lw	$16,0($17)
	.loc 2 892 0 discriminator 1
	lw	$2,12($17)
	.loc 2 893 0 discriminator 1
	lw	$3,16($17)
	.loc 2 895 0 discriminator 1
	ext	$16,$16,24,4
	sll	$16,$16,2
	addu	$16,$17,$16
	.loc 2 894 0 discriminator 1
	sw	$2,16($17)
	.loc 2 893 0 discriminator 1
	sw	$3,12($17)
	.loc 2 896 0 discriminator 1
	lw	$4,12($16)
	.loc 2 897 0 discriminator 1
	lhu	$3,0($16)
	.loc 2 898 0 discriminator 1
	lhu	$5,2($16)
	.loc 2 901 0 discriminator 1
	lw	$2,%lo(block_message)($20)
	.loc 2 896 0 discriminator 1
	srl	$4,$4,28
	sll	$4,$4,2
	addu	$20,$16,$4
	.loc 2 898 0 discriminator 1
	sh	$5,0($16)
	.loc 2 901 0 discriminator 1
	.set	noreorder
	.set	nomacro
	beq	$2,$0,$L71
	sh	$3,2($16)
	.set	macro
	.set	reorder

$LBB563 = .
	.loc 2 902 0
	.set	noreorder
	.set	nomacro
	jal	strlen
	move	$4,$2
	.set	macro
	.set	reorder

	lui	$3,%hi(block_message)
	lw	$5,%lo(block_message)($3)
	move	$4,$20
	.set	noreorder
	.set	nomacro
	jal	memcpy
	addiu	$6,$2,1
	.set	macro
	.set	reorder

$LBE563 = .
	.set	noreorder
	.set	nomacro
	j	$L98
	lw	$2,8($16)
	.set	macro
	.set	reorder

$L71:
$LBB564 = .
	.loc 2 904 0
	lui	$22,%hi($LC12)
	.set	noreorder
	.set	nomacro
	jal	strlen
	addiu	$4,$22,%lo($LC12)
	.set	macro
	.set	reorder

	move	$6,$2
	move	$4,$20
	.set	noreorder
	.set	nomacro
	jal	memcpy
	addiu	$5,$22,%lo($LC12)
	.set	macro
	.set	reorder

$LBE564 = .
	.loc 2 907 0
	lw	$2,8($16)
$L98:
	.loc 2 906 0
	lw	$22,4($16)
	.loc 2 909 0
	move	$4,$19
	.set	noreorder
	.set	nomacro
	jal	rtl_get_skb_len
	sw	$2,4($16)
	.set	macro
	.set	reorder

	lw	$6,12($21)
	lw	$5,0($17)
	.loc 2 911 0
	sb	$0,13($16)
	.loc 2 912 0
	lhu	$3,12($16)
	.loc 2 909 0
	srl	$6,$6,28
	ext	$5,$5,24,4
	subu	$6,$0,$6
	.loc 2 910 0
	lui	$20,%hi(url_cache)
	.loc 2 913 0
	li	$4,1			# 0x1
	.loc 2 909 0
	subu	$6,$6,$5
	.loc 2 912 0
	ins	$3,$0,2,1
	.loc 2 910 0
	addiu	$19,$20,%lo(url_cache)
	lhu	$5,12($19)
	.loc 2 913 0
	ins	$3,$4,4,1
	.loc 2 909 0
	sll	$6,$6,2
	.loc 2 914 0
	ins	$3,$4,3,1
	.loc 2 909 0
	addu	$22,$6,$22
	.loc 2 915 0
	ins	$3,$0,0,1
	.loc 2 909 0
	addu	$2,$22,$2
	.loc 2 910 0
	sh	$5,14($16)
	.loc 2 915 0
	sh	$3,12($16)
	.loc 2 918 0
	move	$4,$18
	.loc 2 909 0
	sw	$2,8($16)
	.loc 2 918 0
	.set	noreorder
	.set	nomacro
	jal	rtl_get_skb_len
	sh	$0,18($16)
	.set	macro
	.set	reorder

	lw	$5,0($17)
	.loc 2 920 0
	lw	$4,12($21)
	.loc 2 767 0
	li	$3,20			# 0x14
	.loc 2 918 0
	ext	$21,$5,24,4
	subu	$21,$0,$21
	sll	$21,$21,2
	addiu	$21,$21,-14
	.loc 2 920 0
	srl	$4,$4,28
	.loc 2 918 0
	addu	$21,$21,$2
	.loc 2 920 0
	sll	$4,$4,2
	.loc 2 922 0
	.set	noreorder
	.set	nomacro
	j	$L73
	li	$5,8			# 0x8
	.set	macro
	.set	reorder

$L78:
	.loc 2 924 0
	lbu	$7,0($6)
	.loc 2 925 0
	sltu	$2,$7,2
	beq	$2,$0,$L74
	.loc 2 928 0
	.set	noreorder
	.set	nomacro
	j	$L73
	addiu	$3,$3,1
	.set	macro
	.set	reorder

$L74:
	.loc 2 933 0
	.set	noreorder
	.set	nomacro
	bne	$7,$5,$L76
	lbu	$2,1($6)
	.set	macro
	.set	reorder

$LBB565 = .
	.loc 2 936 0
	addiu	$2,$3,6
	addu	$2,$16,$2
	lwl	$5,0($2)
$LBE565 = .
	.loc 2 932 0
	addiu	$3,$3,2
$LBB566 = .
	.loc 2 935 0
	addu	$3,$16,$3
	lwl	$4,0($3)
$LBE566 = .
$LBB567 = .
	.loc 2 936 0
	lwr	$5,3($2)
$LBE567 = .
$LBB568 = .
	.loc 2 935 0
	lwr	$4,3($3)
$LBE568 = .
$LBB569 = .
	.loc 2 937 0
	swl	$5,0($3)
	swr	$5,3($3)
$LBE569 = .
$LBB570 = .
	.loc 2 938 0
	swl	$4,0($2)
$LBE570 = .
$LBB571 = .
	.loc 2 935 0
	sw	$4,128($sp)
$LBE571 = .
$LBB572 = .
	.loc 2 936 0
	sw	$5,124($sp)
$LBE572 = .
	.loc 2 939 0
	.set	noreorder
	.set	nomacro
	j	$L77
	swr	$4,3($2)
	.set	macro
	.set	reorder

$L76:
	.loc 2 941 0
	addu	$3,$3,$2
$L73:
	.loc 2 922 0 discriminator 1
	sltu	$2,$3,$4
	.set	noreorder
	.set	nomacro
	bne	$2,$0,$L78
	addu	$6,$16,$3
	.set	macro
	.set	reorder

$L77:
	.loc 2 944 0
	sh	$0,16($16)
	.loc 2 945 0
	lw	$23,16($17)
	move	$5,$21
	move	$6,$0
	move	$4,$16
	andi	$21,$21,0xffff
	lw	$22,12($17)
	.set	noreorder
	.set	nomacro
	jal	csum_partial
	addiu	$21,$21,6
	.set	macro
	.set	reorder

	.loc 2 946 0
	move	$4,$18
$LBB573 = .
$LBB574 = .
$LBB575 = .
	.file 6 "/home/extra_home/marklee/rtk_OpenWRT_BB/BB_v1407/0629_co_2.4_pre_release/svn_test/rtk_BarrierBreaker_v14.07.x/build_dir/target-mips_24kec_uClibc-0.9.33.2/linux-rtkmips_rtl8198c/linux-3.10.49/arch/mips/include/asm/checksum.h"
	.loc 6 136 0
	move	$3,$23
#APP
 # 136 "/home/extra_home/marklee/rtk_OpenWRT_BB/BB_v1407/0629_co_2.4_pre_release/svn_test/rtk_BarrierBreaker_v14.07.x/build_dir/target-mips_24kec_uClibc-0.9.33.2/linux-rtkmips_rtl8198c/linux-3.10.49/arch/mips/include/asm/checksum.h" 1
		.set	push		# csum_tcpudp_nofold
	.set	noat		
	addu	$3, $22		
	sltu	$1, $3, $22	
	addu	$3, $1		
	addu	$3, $21		
	sltu	$1, $3, $21	
	addu	$3, $1		
	addu	$3, $2		
	sltu	$1, $3, $2	
	addu	$3, $1		
	.set	pop
 # 0 "" 2
#NO_APP
$LBE575 = .
$LBE574 = .
$LBB576 = .
$LBB577 = .
	.loc 6 78 0
#APP
 # 78 "/home/extra_home/marklee/rtk_OpenWRT_BB/BB_v1407/0629_co_2.4_pre_release/svn_test/rtk_BarrierBreaker_v14.07.x/build_dir/target-mips_24kec_uClibc-0.9.33.2/linux-rtkmips_rtl8198c/linux-3.10.49/arch/mips/include/asm/checksum.h" 1
		.set	push		# csum_fold
	.set	noat		
	sll	$1, $3, 16	
	addu	$3, $1		
	sltu	$1, $3, $1	
	srl	$3, $3, 16	
	addu	$3, $1		
	xori	$3, 0xffff	
	.set	pop
 # 0 "" 2
#NO_APP
$LBE577 = .
$LBE576 = .
$LBE573 = .
	.loc 2 946 0
	.set	noreorder
	.set	nomacro
	jal	rtl_get_skb_len
	sh	$3,16($16)
	.set	macro
	.set	reorder

	.loc 2 949 0
	lhu	$4,%lo(url_cache)($20)
	.loc 2 947 0
	lbu	$3,14($19)
	.loc 2 946 0
	addiu	$2,$2,-14
	.loc 2 949 0
	addiu	$4,$4,2
	.loc 2 946 0
	sh	$2,2($17)
	.loc 2 949 0
	sh	$4,4($17)
	.loc 2 948 0
	sh	$0,6($17)
	.loc 2 952 0
	lw	$4,0($17)
$LBB578 = .
$LBB579 = .
	.loc 6 109 0
	lw	$6,4($17)
$LBE579 = .
$LBE578 = .
	.loc 2 947 0
	sb	$3,8($17)
	.loc 2 951 0
	sh	$0,10($17)
$LBB587 = .
$LBB584 = .
	.loc 6 113 0
	lw	$2,8($17)
	.loc 6 109 0
	addu	$5,$6,$4
	.loc 6 117 0
	lw	$3,12($17)
	.loc 6 110 0
	sltu	$6,$5,$6
	.loc 6 111 0
	addu	$5,$5,$2
	.loc 6 113 0
	addu	$6,$5,$6
	.loc 6 114 0
	sltu	$2,$6,$2
	.loc 6 115 0
	addu	$6,$6,$3
	.loc 6 117 0
	addu	$2,$6,$2
$LBE584 = .
$LBE587 = .
	.loc 2 952 0
	ext	$4,$4,24,4
$LBB588 = .
$LBB585 = .
	.loc 6 118 0
	sltu	$5,$2,$3
	.loc 6 104 0
	sll	$4,$4,2
	addu	$4,$17,$4
	.loc 6 119 0
	addu	$5,$5,$2
	.loc 6 121 0
	addiu	$3,$17,16
$L80:
	.loc 6 123 0
	lw	$2,0($3)
	.loc 6 126 0
	addiu	$3,$3,4
	.loc 6 123 0
	addu	$5,$5,$2
	.loc 6 124 0
	sltu	$2,$5,$2
	.loc 6 127 0
	.set	noreorder
	.set	nomacro
	bne	$4,$3,$L80
	addu	$5,$2,$5
	.set	macro
	.set	reorder

$LBB580 = .
$LBB581 = .
	.loc 6 78 0
#APP
 # 78 "/home/extra_home/marklee/rtk_OpenWRT_BB/BB_v1407/0629_co_2.4_pre_release/svn_test/rtk_BarrierBreaker_v14.07.x/build_dir/target-mips_24kec_uClibc-0.9.33.2/linux-rtkmips_rtl8198c/linux-3.10.49/arch/mips/include/asm/checksum.h" 1
		.set	push		# csum_fold
	.set	noat		
	sll	$1, $5, 16	
	addu	$5, $1		
	sltu	$1, $5, $1	
	srl	$5, $5, 16	
	addu	$5, $1		
	xori	$5, 0xffff	
	.set	pop
 # 0 "" 2
#NO_APP
$LBE581 = .
$LBE580 = .
$LBE585 = .
$LBE588 = .
	.loc 2 953 0
	li	$2,1			# 0x1
$LBB589 = .
	.loc 2 954 0
	move	$4,$18
$LBE589 = .
$LBB590 = .
$LBB586 = .
$LBB583 = .
$LBB582 = .
	.loc 6 91 0
	sh	$5,10($17)
$LBE582 = .
$LBE583 = .
$LBE586 = .
$LBE590 = .
$LBB591 = .
	.loc 2 954 0
	.set	noreorder
	.set	nomacro
	jal	rtl_get_skb_data
	sb	$2,15($19)
	.set	macro
	.set	reorder

	addiu	$8,$2,48
	addiu	$3,$sp,16
$L81:
	lwl	$7,0($2)
	lwl	$6,4($2)
	lwl	$5,8($2)
	lwl	$4,12($2)
	lwr	$7,3($2)
	lwr	$6,7($2)
	lwr	$5,11($2)
	lwr	$4,15($2)
	addiu	$2,$2,16
	sw	$7,0($3)
	sw	$6,4($3)
	sw	$5,8($3)
	sw	$4,12($3)
	.set	noreorder
	.set	nomacro
	bne	$2,$8,$L81
	addiu	$3,$3,16
	.set	macro
	.set	reorder

	lwl	$5,0($2)
$LBE591 = .
	.loc 2 965 0
	move	$4,$18
$LBB592 = .
	.loc 2 954 0
	lwr	$5,3($2)
	sw	$5,0($3)
	lbu	$5,4($2)
	sb	$5,4($3)
	lbu	$2,5($2)
	sb	$2,5($3)
$LBE592 = .
	.loc 2 956 0
	lhu	$5,2($16)
	.loc 2 957 0
	lw	$3,8($16)
	.loc 2 956 0
	lui	$2,%hi(finStateClientPort)
	sh	$5,%lo(finStateClientPort)($2)
	.loc 2 957 0
	lui	$2,%hi(finStateClientSeq)
	.loc 2 965 0
	.set	noreorder
	.set	nomacro
	jal	dev_queue_xmit
	sw	$3,%lo(finStateClientSeq)($2)
	.set	macro
	.set	reorder

	.loc 2 966 0
	.set	noreorder
	.set	nomacro
	j	$L97
	lw	$31,180($sp)
	.set	macro
	.set	reorder

$L96:
$LBB593 = .
$LBB550 = .
$LBB549 = .
$LBB548 = .
	.loc 5 185 0
#APP
 # 185 "/home/extra_home/marklee/rtk_OpenWRT_BB/BB_v1407/0629_co_2.4_pre_release/svn_test/rtk_BarrierBreaker_v14.07.x/build_dir/target-mips_24kec_uClibc-0.9.33.2/linux-rtkmips_rtl8198c/linux-3.10.49/arch/mips/include/asm/atomic.h" 1
			

 # 0 "" 2
#NO_APP
	j	$L82
$L85:
$LBE548 = .
$LBE549 = .
$LBE550 = .
$LBE593 = .
	.loc 2 967 0
	lw	$31,180($sp)
$L97:
	lw	$23,176($sp)
	lw	$22,172($sp)
	lw	$21,168($sp)
	lw	$20,164($sp)
	lw	$19,160($sp)
	lw	$18,156($sp)
	lw	$17,152($sp)
	lw	$16,148($sp)
	move	$2,$0
	.set	noreorder
	.set	nomacro
	j	$31
	addiu	$sp,$sp,184
	.set	macro
	.set	reorder

	.cfi_def_cfa_offset 0
	.cfi_restore 16
	.cfi_restore 17
	.cfi_restore 18
	.cfi_restore 19
	.cfi_restore 20
	.cfi_restore 21
	.cfi_restore 22
	.cfi_restore 23
	.cfi_restore 31
	.end	GenerateHTTP401
	.cfi_endproc
$LFE3329:
	.size	GenerateHTTP401, .-GenerateHTTP401
	.align	2
$LFB3327 = .
	.loc 2 452 0
	.cfi_startproc
	.set	nomips16
	.ent	GenerateTCPENDACK
	.type	GenerateTCPENDACK, @function
GenerateTCPENDACK:
	.frame	$sp,112,$31		# vars= 56, regs= 9/0, args= 16, gp= 0
	.mask	0x80ff0000,-4
	.fmask	0x00000000,0
	addiu	$sp,$sp,-112
	.cfi_def_cfa_offset 112
	sw	$18,84($sp)
	.cfi_offset 18, -28
	move	$18,$4
	.loc 2 476 0
	lui	$4,%hi($LC11)
	addiu	$4,$4,%lo($LC11)
	.loc 2 452 0
	sw	$31,108($sp)
	sw	$19,88($sp)
	sw	$17,80($sp)
	sw	$16,76($sp)
	sw	$23,104($sp)
	sw	$22,100($sp)
	sw	$21,96($sp)
	.cfi_offset 31, -4
	.cfi_offset 19, -24
	.cfi_offset 17, -32
	.cfi_offset 16, -36
	.cfi_offset 23, -8
	.cfi_offset 22, -12
	.cfi_offset 21, -16
	.cfi_offset 20, -20
	.loc 2 476 0
	.set	noreorder
	.set	nomacro
	jal	rtl_get_dev_by_name
	sw	$20,92($sp)
	.set	macro
	.set	reorder

	.loc 2 477 0
	move	$4,$18
	.set	noreorder
	.set	nomacro
	jal	rtl_ip_hdr
	move	$19,$2
	.set	macro
	.set	reorder

	.loc 2 479 0
	lw	$17,0($2)
	.loc 2 477 0
	move	$16,$2
	.loc 2 481 0
	lui	$2,%hi(endStateClientPort)
	.loc 2 479 0
	ext	$17,$17,24,4
	sll	$17,$17,2
	addu	$17,$16,$17
	.loc 2 481 0
	lhu	$3,%lo(endStateClientPort)($2)
	lhu	$4,0($17)
	.set	noreorder
	.set	nomacro
	bne	$4,$3,$L131
	lw	$31,108($sp)
	.set	macro
	.set	reorder

	.loc 2 481 0 is_stmt 0 discriminator 1
	lui	$2,%hi(endStateClientSeq)
	lw	$3,4($17)
	lw	$2,%lo(endStateClientSeq)($2)
	.set	noreorder
	.set	nomacro
	bne	$3,$2,$L131
	addiu	$4,$16,12
	.set	macro
	.set	reorder

	.loc 2 486 0 is_stmt 1
	.set	noreorder
	.set	nomacro
	jal	rtl_neigh_lookup
	move	$5,$19
	.set	macro
	.set	reorder

	.loc 2 487 0
	.set	noreorder
	.set	nomacro
	beq	$2,$0,$L123
	move	$20,$2
	.set	macro
	.set	reorder

	.loc 2 487 0 is_stmt 0 discriminator 1
	.set	noreorder
	.set	nomacro
	jal	rtl_get_hh_from_neigh
	move	$4,$2
	.set	macro
	.set	reorder

	.set	noreorder
	.set	nomacro
	bne	$2,$0,$L127
	move	$4,$18
	.set	macro
	.set	reorder

	.loc 4 300 0 is_stmt 1
	.set	noreorder
	.set	nomacro
	j	$L130
	addiu	$2,$20,24
	.set	macro
	.set	reorder

$L121:
$LBB594 = .
$LBB595 = .
$LBB596 = .
$LBB597 = .
$LBB598 = .
	.loc 5 207 0
#APP
 # 207 "/home/extra_home/marklee/rtk_OpenWRT_BB/BB_v1407/0629_co_2.4_pre_release/svn_test/rtk_BarrierBreaker_v14.07.x/build_dir/target-mips_24kec_uClibc-0.9.33.2/linux-rtkmips_rtl8198c/linux-3.10.49/arch/mips/include/asm/atomic.h" 1
		.set	mips3				
	ll	$3, 0($2)	# atomic_sub_return	
	subu	$4, $3, 1			
	sc	$4, 0($2)				
	.set	mips0				

 # 0 "" 2
	.loc 5 215 0
#NO_APP
	beq	$4,$0,$L121
$LBE598 = .
	.loc 5 228 0
#APP
 # 228 "/home/extra_home/marklee/rtk_OpenWRT_BB/BB_v1407/0629_co_2.4_pre_release/svn_test/rtk_BarrierBreaker_v14.07.x/build_dir/target-mips_24kec_uClibc-0.9.33.2/linux-rtkmips_rtl8198c/linux-3.10.49/arch/mips/include/asm/atomic.h" 1
			

 # 0 "" 2
#NO_APP
$LBE597 = .
$LBE596 = .
	.loc 4 300 0
	li	$2,1			# 0x1
	bne	$3,$2,$L123
	j	$L129
$L127:
$LBE595 = .
$LBE594 = .
	.loc 2 496 0
	li	$5,128			# 0x80
	move	$6,$0
	.set	noreorder
	.set	nomacro
	jal	skb_copy_expand
	li	$7,32			# 0x20
	.set	macro
	.set	reorder

	.loc 2 497 0
	.set	noreorder
	.set	nomacro
	bne	$2,$0,$L107
	move	$19,$2
	.set	macro
	.set	reorder

$LBB602 = .
$LBB603 = .
	.loc 4 300 0
	addiu	$2,$20,24
$LBB604 = .
$LBB605 = .
	.loc 5 185 0
#APP
 # 185 "/home/extra_home/marklee/rtk_OpenWRT_BB/BB_v1407/0629_co_2.4_pre_release/svn_test/rtk_BarrierBreaker_v14.07.x/build_dir/target-mips_24kec_uClibc-0.9.33.2/linux-rtkmips_rtl8198c/linux-3.10.49/arch/mips/include/asm/atomic.h" 1
			

 # 0 "" 2
#NO_APP
$L109:
$LBB606 = .
	.loc 5 207 0
#APP
 # 207 "/home/extra_home/marklee/rtk_OpenWRT_BB/BB_v1407/0629_co_2.4_pre_release/svn_test/rtk_BarrierBreaker_v14.07.x/build_dir/target-mips_24kec_uClibc-0.9.33.2/linux-rtkmips_rtl8198c/linux-3.10.49/arch/mips/include/asm/atomic.h" 1
		.set	mips3				
	ll	$4, 0($2)	# atomic_sub_return	
	subu	$3, $4, 1			
	sc	$3, 0($2)				
	.set	mips0				

 # 0 "" 2
	.loc 5 215 0
#NO_APP
	beq	$3,$0,$L109
$LBE606 = .
	.loc 5 228 0
#APP
 # 228 "/home/extra_home/marklee/rtk_OpenWRT_BB/BB_v1407/0629_co_2.4_pre_release/svn_test/rtk_BarrierBreaker_v14.07.x/build_dir/target-mips_24kec_uClibc-0.9.33.2/linux-rtkmips_rtl8198c/linux-3.10.49/arch/mips/include/asm/atomic.h" 1
			

 # 0 "" 2
#NO_APP
$LBE605 = .
$LBE604 = .
	.loc 4 300 0
	li	$2,1			# 0x1
	bne	$4,$2,$L123
$L129:
	.loc 4 301 0
	.set	noreorder
	.set	nomacro
	jal	neigh_destroy
	move	$4,$20
	.set	macro
	.set	reorder

$LBE603 = .
$LBE602 = .
	.loc 2 586 0
	.set	noreorder
	.set	nomacro
	j	$L131
	lw	$31,108($sp)
	.set	macro
	.set	reorder

$L107:
	.loc 2 505 0
	.set	noreorder
	.set	nomacro
	jal	rtl_ip_hdr
	move	$4,$2
	.set	macro
	.set	reorder

	.loc 2 506 0
	lw	$5,0($2)
	move	$4,$19
	ext	$5,$5,24,4
	sll	$5,$5,2
	.set	noreorder
	.set	nomacro
	jal	skb_trim
	addiu	$5,$5,20
	.set	macro
	.set	reorder

	.loc 2 507 0
	move	$5,$0
	.set	noreorder
	.set	nomacro
	jal	skb_put
	move	$4,$19
	.set	macro
	.set	reorder

	.loc 2 508 0
	.set	noreorder
	.set	nomacro
	jal	rtl_get_hh_from_neigh
	move	$4,$20
	.set	macro
	.set	reorder

	.loc 2 509 0
	move	$5,$2
	addiu	$4,$sp,56
	.set	noreorder
	.set	nomacro
	jal	rtl_get_lock_from_hh
	move	$21,$2
	.set	macro
	.set	reorder

	lw	$2,56($sp)
	andi	$2,$2,0x1
$L111:
$LBB607 = .
$LBB608 = .
$LBB609 = .
$LBB610 = .
$LBB611 = .
	.file 7 "include/linux/seqlock.h"
	.loc 7 65 0
	beq	$2,$0,$L110
	.loc 7 66 0
	j	$L111
$L110:
$LBE611 = .
$LBE610 = .
	.loc 7 84 0
#APP
 # 84 "include/linux/seqlock.h" 1
	sync
 # 0 "" 2
#NO_APP
$LBE609 = .
$LBE608 = .
$LBE607 = .
$LBB612 = .
	.loc 2 513 0
	.set	noreorder
	.set	nomacro
	jal	rtl_get_skb_data
	move	$4,$19
	.set	macro
	.set	reorder

	move	$4,$21
	.set	noreorder
	.set	nomacro
	jal	rtl_get_data_from_hh
	move	$22,$2
	.set	macro
	.set	reorder

	lwl	$7,0($2)
	lwl	$5,4($2)
	move	$6,$2
	lwl	$4,8($2)
	lwr	$7,3($6)
	lwl	$2,12($2)
	lwr	$5,7($6)
	addiu	$3,$22,-16
	lwr	$4,11($6)
	lwr	$2,15($6)
	swl	$7,0($3)
	swr	$7,3($3)
	swl	$5,4($3)
	swr	$5,7($3)
	swl	$4,8($3)
	swr	$4,11($3)
	swl	$2,12($3)
	swr	$2,15($3)
$LBE612 = .
$LBB613 = .
$LBB614 = .
$LBB615 = .
	.loc 7 140 0
#APP
 # 140 "include/linux/seqlock.h" 1
	sync
 # 0 "" 2
#NO_APP
$LBE615 = .
$LBE614 = .
$LBE613 = .
	.loc 2 516 0
	.set	noreorder
	.set	nomacro
	jal	rtl_get_len_from_hh
	move	$4,$21
	.set	macro
	.set	reorder

	move	$5,$2
	.set	noreorder
	.set	nomacro
	jal	skb_push
	move	$4,$19
	.set	macro
	.set	reorder

$LBB616 = .
$LBB617 = .
	.loc 4 300 0
	addiu	$2,$20,24
$LBB618 = .
$LBB619 = .
	.loc 5 185 0
#APP
 # 185 "/home/extra_home/marklee/rtk_OpenWRT_BB/BB_v1407/0629_co_2.4_pre_release/svn_test/rtk_BarrierBreaker_v14.07.x/build_dir/target-mips_24kec_uClibc-0.9.33.2/linux-rtkmips_rtl8198c/linux-3.10.49/arch/mips/include/asm/atomic.h" 1
			

 # 0 "" 2
#NO_APP
$L113:
$LBB620 = .
	.loc 5 207 0
#APP
 # 207 "/home/extra_home/marklee/rtk_OpenWRT_BB/BB_v1407/0629_co_2.4_pre_release/svn_test/rtk_BarrierBreaker_v14.07.x/build_dir/target-mips_24kec_uClibc-0.9.33.2/linux-rtkmips_rtl8198c/linux-3.10.49/arch/mips/include/asm/atomic.h" 1
		.set	mips3				
	ll	$3, 0($2)	# atomic_sub_return	
	subu	$4, $3, 1			
	sc	$4, 0($2)				
	.set	mips0				

 # 0 "" 2
	.loc 5 215 0
#NO_APP
	beq	$4,$0,$L113
$LBE620 = .
	.loc 5 228 0
#APP
 # 228 "/home/extra_home/marklee/rtk_OpenWRT_BB/BB_v1407/0629_co_2.4_pre_release/svn_test/rtk_BarrierBreaker_v14.07.x/build_dir/target-mips_24kec_uClibc-0.9.33.2/linux-rtkmips_rtl8198c/linux-3.10.49/arch/mips/include/asm/atomic.h" 1
			

 # 0 "" 2
#NO_APP
$LBE619 = .
$LBE618 = .
	.loc 4 300 0
	li	$2,1			# 0x1
	bne	$3,$2,$L114
	.loc 4 301 0
	.set	noreorder
	.set	nomacro
	jal	neigh_destroy
	move	$4,$20
	.set	macro
	.set	reorder

$L114:
$LBE617 = .
$LBE616 = .
	.loc 2 519 0
	move	$4,$19
	.set	noreorder
	.set	nomacro
	jal	rtl_set_skb_nfct
	move	$5,$0
	.set	macro
	.set	reorder

	.loc 2 524 0
	lhu	$3,2($17)
	.loc 2 529 0
	lhu	$2,28($sp)
	.loc 2 526 0
	lw	$5,4($17)
	.loc 2 524 0
	sh	$3,16($sp)
	.loc 2 529 0
	li	$3,5			# 0x5
	ins	$2,$3,12,4
	.loc 2 525 0
	lhu	$7,0($17)
	.loc 2 527 0
	lw	$6,8($17)
	.loc 2 529 0
	sh	$2,28($sp)
	.loc 2 530 0
	sb	$0,29($sp)
	.loc 2 531 0
	lhu	$2,28($sp)
	.loc 2 535 0
	lui	$21,%hi(url_cache)
	.loc 2 532 0
	li	$3,1			# 0x1
	.loc 2 531 0
	ins	$2,$0,2,1
	.loc 2 535 0
	addiu	$20,$21,%lo(url_cache)
	.loc 2 532 0
	ins	$2,$3,4,1
	.loc 2 535 0
	lhu	$3,12($20)
	.loc 2 528 0
	addiu	$5,$5,1
	.loc 2 533 0
	ins	$2,$0,0,1
	.loc 2 536 0
	move	$4,$19
	.loc 2 528 0
	sw	$5,24($sp)
	.loc 2 535 0
	sh	$3,30($sp)
	.loc 2 525 0
	sh	$7,18($sp)
	.loc 2 527 0
	sw	$6,20($sp)
	.loc 2 533 0
	sh	$2,28($sp)
	.loc 2 536 0
	.set	noreorder
	.set	nomacro
	jal	rtl_get_skb_len
	sh	$0,34($sp)
	.set	macro
	.set	reorder

	.loc 2 538 0
	lw	$4,12($17)
	.loc 2 468 0
	li	$3,20			# 0x14
	.loc 2 536 0
	addiu	$17,$2,-34
	.loc 2 538 0
	srl	$4,$4,28
	sll	$4,$4,2
	.loc 2 540 0
	.set	noreorder
	.set	nomacro
	j	$L115
	li	$5,8			# 0x8
	.set	macro
	.set	reorder

$L120:
	.loc 2 542 0
	lbu	$7,0($6)
	.loc 2 543 0
	sltu	$2,$7,2
	beq	$2,$0,$L116
	.loc 2 546 0
	.set	noreorder
	.set	nomacro
	j	$L115
	addiu	$3,$3,1
	.set	macro
	.set	reorder

$L116:
	.loc 2 551 0
	.set	noreorder
	.set	nomacro
	bne	$7,$5,$L118
	lbu	$2,1($6)
	.set	macro
	.set	reorder

$LBB621 = .
	.loc 2 554 0
	addiu	$4,$sp,16
	addiu	$2,$3,6
	addu	$2,$4,$2
	lwl	$5,0($2)
$LBE621 = .
	.loc 2 550 0
	addiu	$3,$3,2
$LBB622 = .
	.loc 2 553 0
	addu	$3,$4,$3
	lwl	$4,0($3)
$LBE622 = .
$LBB623 = .
	.loc 2 554 0
	lwr	$5,3($2)
$LBE623 = .
$LBB624 = .
	.loc 2 553 0
	lwr	$4,3($3)
$LBE624 = .
$LBB625 = .
	.loc 2 555 0
	swl	$5,0($3)
	swr	$5,3($3)
$LBE625 = .
$LBB626 = .
	.loc 2 556 0
	swl	$4,0($2)
$LBE626 = .
$LBB627 = .
	.loc 2 553 0
	sw	$4,68($sp)
$LBE627 = .
$LBB628 = .
	.loc 2 554 0
	sw	$5,64($sp)
$LBE628 = .
	.loc 2 557 0
	.set	noreorder
	.set	nomacro
	j	$L119
	swr	$4,3($2)
	.set	macro
	.set	reorder

$L118:
	.loc 2 559 0
	addu	$3,$3,$2
$L115:
	.loc 2 542 0 discriminator 1
	addiu	$2,$sp,16
	addu	$6,$2,$3
	.loc 2 540 0 discriminator 1
	sltu	$2,$3,$4
	bne	$2,$0,$L120
$L119:
	.loc 2 562 0
	sh	$0,32($sp)
	.loc 2 563 0
	lw	$23,16($16)
	move	$5,$17
	addiu	$4,$sp,16
	move	$6,$0
	lw	$22,12($16)
	.set	noreorder
	.set	nomacro
	jal	csum_partial
	andi	$17,$17,0xffff
	.set	macro
	.set	reorder

$LBB629 = .
	.loc 2 564 0
	move	$4,$19
$LBE629 = .
$LBB630 = .
$LBB631 = .
$LBB632 = .
	.loc 6 136 0
	move	$3,$23
	.loc 6 167 0
	addiu	$17,$17,6
	.loc 6 136 0
#APP
 # 136 "/home/extra_home/marklee/rtk_OpenWRT_BB/BB_v1407/0629_co_2.4_pre_release/svn_test/rtk_BarrierBreaker_v14.07.x/build_dir/target-mips_24kec_uClibc-0.9.33.2/linux-rtkmips_rtl8198c/linux-3.10.49/arch/mips/include/asm/checksum.h" 1
		.set	push		# csum_tcpudp_nofold
	.set	noat		
	addu	$3, $22		
	sltu	$1, $3, $22	
	addu	$3, $1		
	addu	$3, $17		
	sltu	$1, $3, $17	
	addu	$3, $1		
	addu	$3, $2		
	sltu	$1, $3, $2	
	addu	$3, $1		
	.set	pop
 # 0 "" 2
#NO_APP
$LBE632 = .
$LBE631 = .
$LBB633 = .
$LBB634 = .
	.loc 6 78 0
#APP
 # 78 "/home/extra_home/marklee/rtk_OpenWRT_BB/BB_v1407/0629_co_2.4_pre_release/svn_test/rtk_BarrierBreaker_v14.07.x/build_dir/target-mips_24kec_uClibc-0.9.33.2/linux-rtkmips_rtl8198c/linux-3.10.49/arch/mips/include/asm/checksum.h" 1
		.set	push		# csum_fold
	.set	noat		
	sll	$1, $3, 16	
	addu	$3, $1		
	sltu	$1, $3, $1	
	srl	$3, $3, 16	
	addu	$3, $1		
	xori	$3, 0xffff	
	.set	pop
 # 0 "" 2
#NO_APP
$LBE634 = .
$LBE633 = .
$LBE630 = .
$LBB635 = .
	.loc 2 564 0
	.set	noreorder
	.set	nomacro
	jal	rtl_get_skb_data
	sh	$3,32($sp)
	.set	macro
	.set	reorder

	lw	$8,16($sp)
	lw	$7,20($sp)
	lw	$6,24($sp)
	lw	$5,28($sp)
	lw	$4,32($sp)
	addiu	$3,$2,34
	swl	$8,34($2)
	swr	$8,3($3)
	swl	$7,4($3)
	swr	$7,7($3)
	swl	$6,8($3)
$LBE635 = .
	.loc 2 566 0
	lbu	$2,36($sp)
$LBB636 = .
	.loc 2 564 0
	swr	$6,11($3)
	swl	$5,12($3)
$LBE636 = .
	.loc 2 566 0
	li	$6,4			# 0x4
$LBB637 = .
	.loc 2 564 0
	swr	$5,15($3)
$LBE637 = .
	.loc 2 566 0
	ins	$2,$6,4,4
	.loc 2 567 0
	li	$5,5			# 0x5
	ins	$2,$5,0,4
$LBB638 = .
	.loc 2 564 0
	swl	$4,16($3)
$LBE638 = .
	.loc 2 567 0
	sb	$2,36($sp)
	.loc 2 569 0
	li	$2,6			# 0x6
$LBB639 = .
	.loc 2 564 0
	swr	$4,19($3)
$LBE639 = .
	.loc 2 568 0
	sh	$0,42($sp)
	.loc 2 569 0
	sb	$2,45($sp)
	.loc 2 571 0
	lw	$17,12($16)
	.loc 2 573 0
	lbu	$2,14($20)
	.loc 2 572 0
	lw	$16,16($16)
	.loc 2 574 0
	move	$4,$18
	move	$5,$0
	.loc 2 571 0
	sw	$17,52($sp)
	.loc 2 572 0
	sw	$16,48($sp)
	.loc 2 573 0
	sb	$2,44($sp)
	.loc 2 574 0
	.set	noreorder
	.set	nomacro
	jal	rtl_set_skb_ip_summed
	sb	$0,37($sp)
	.set	macro
	.set	reorder

	.loc 2 576 0
	lhu	$2,%lo(url_cache)($21)
	.loc 2 575 0
	li	$3,40			# 0x28
	sh	$3,38($sp)
	.loc 2 576 0
	addiu	$2,$2,1
	sh	$2,40($sp)
	.loc 2 577 0
	sh	$0,46($sp)
$LBB640 = .
$LBB641 = .
	.loc 6 109 0
	lw	$3,40($sp)
	lw	$5,36($sp)
	.loc 6 113 0
	lw	$2,44($sp)
$LBE641 = .
$LBE640 = .
$LBB645 = .
	.loc 2 580 0
	move	$4,$19
$LBE645 = .
$LBB646 = .
$LBB644 = .
	.loc 6 109 0
	addu	$5,$3,$5
	.loc 6 110 0
	sltu	$3,$5,$3
	.loc 6 111 0
	addu	$5,$5,$2
	.loc 6 113 0
	addu	$3,$5,$3
	.loc 6 114 0
	sltu	$2,$3,$2
	.loc 6 115 0
	addu	$3,$3,$16
	.loc 6 117 0
	addu	$2,$3,$2
	.loc 6 118 0
	sltu	$16,$2,$16
	.loc 6 119 0
	addu	$2,$2,$17
	.loc 6 123 0
	addu	$16,$2,$16
	.loc 6 124 0
	sltu	$17,$16,$17
	.loc 6 125 0
	addu	$17,$17,$16
$LBB642 = .
$LBB643 = .
	.loc 6 78 0
#APP
 # 78 "/home/extra_home/marklee/rtk_OpenWRT_BB/BB_v1407/0629_co_2.4_pre_release/svn_test/rtk_BarrierBreaker_v14.07.x/build_dir/target-mips_24kec_uClibc-0.9.33.2/linux-rtkmips_rtl8198c/linux-3.10.49/arch/mips/include/asm/checksum.h" 1
		.set	push		# csum_fold
	.set	noat		
	sll	$1, $17, 16	
	addu	$17, $1		
	sltu	$1, $17, $1	
	srl	$17, $17, 16	
	addu	$17, $1		
	xori	$17, 0xffff	
	.set	pop
 # 0 "" 2
#NO_APP
$LBE643 = .
$LBE642 = .
$LBE644 = .
$LBE646 = .
$LBB647 = .
	.loc 2 580 0
	.set	noreorder
	.set	nomacro
	jal	rtl_get_skb_data
	sh	$17,46($sp)
	.set	macro
	.set	reorder

	lw	$5,36($sp)
	lw	$4,40($sp)
	addiu	$3,$2,14
	swl	$5,14($2)
	swr	$5,3($3)
	lw	$2,44($sp)
	swl	$4,4($3)
	swr	$4,7($3)
	lw	$4,48($sp)
	swl	$2,8($3)
	swr	$2,11($3)
	lw	$2,52($sp)
	swl	$4,12($3)
	swr	$4,15($3)
	swl	$2,16($3)
	swr	$2,19($3)
$LBE647 = .
	.loc 2 584 0
	move	$4,$19
	.set	noreorder
	.set	nomacro
	jal	dev_queue_xmit
	sb	$0,16($20)
	.set	macro
	.set	reorder

	.loc 2 585 0
	.set	noreorder
	.set	nomacro
	j	$L131
	lw	$31,108($sp)
	.set	macro
	.set	reorder

$L130:
$LBB648 = .
$LBB601 = .
$LBB600 = .
$LBB599 = .
	.loc 5 185 0
#APP
 # 185 "/home/extra_home/marklee/rtk_OpenWRT_BB/BB_v1407/0629_co_2.4_pre_release/svn_test/rtk_BarrierBreaker_v14.07.x/build_dir/target-mips_24kec_uClibc-0.9.33.2/linux-rtkmips_rtl8198c/linux-3.10.49/arch/mips/include/asm/atomic.h" 1
			

 # 0 "" 2
#NO_APP
	j	$L121
$L123:
$LBE599 = .
$LBE600 = .
$LBE601 = .
$LBE648 = .
	.loc 2 586 0
	lw	$31,108($sp)
$L131:
	lw	$23,104($sp)
	lw	$22,100($sp)
	lw	$21,96($sp)
	lw	$20,92($sp)
	lw	$19,88($sp)
	lw	$18,84($sp)
	lw	$17,80($sp)
	lw	$16,76($sp)
	move	$2,$0
	.set	noreorder
	.set	nomacro
	j	$31
	addiu	$sp,$sp,112
	.set	macro
	.set	reorder

	.cfi_def_cfa_offset 0
	.cfi_restore 16
	.cfi_restore 17
	.cfi_restore 18
	.cfi_restore 19
	.cfi_restore 20
	.cfi_restore 21
	.cfi_restore 22
	.cfi_restore 23
	.cfi_restore 31
	.end	GenerateTCPENDACK
	.cfi_endproc
$LFE3327:
	.size	GenerateTCPENDACK, .-GenerateTCPENDACK
	.align	2
$LFB3328 = .
	.loc 2 589 0
	.cfi_startproc
	.set	nomips16
	.ent	GenerateTCPFINACK
	.type	GenerateTCPFINACK, @function
GenerateTCPFINACK:
	.frame	$sp,112,$31		# vars= 56, regs= 9/0, args= 16, gp= 0
	.mask	0x80ff0000,-4
	.fmask	0x00000000,0
	addiu	$sp,$sp,-112
	.cfi_def_cfa_offset 112
	sw	$18,84($sp)
	.cfi_offset 18, -28
	move	$18,$4
	.loc 2 623 0
	lui	$4,%hi($LC11)
	addiu	$4,$4,%lo($LC11)
	.loc 2 589 0
	sw	$31,108($sp)
	sw	$19,88($sp)
	sw	$17,80($sp)
	sw	$16,76($sp)
	sw	$23,104($sp)
	sw	$22,100($sp)
	sw	$21,96($sp)
	.cfi_offset 31, -4
	.cfi_offset 19, -24
	.cfi_offset 17, -32
	.cfi_offset 16, -36
	.cfi_offset 23, -8
	.cfi_offset 22, -12
	.cfi_offset 21, -16
	.cfi_offset 20, -20
	.loc 2 623 0
	.set	noreorder
	.set	nomacro
	jal	rtl_get_dev_by_name
	sw	$20,92($sp)
	.set	macro
	.set	reorder

	.loc 2 624 0
	move	$4,$18
	.set	noreorder
	.set	nomacro
	jal	rtl_ip_hdr
	move	$19,$2
	.set	macro
	.set	reorder

	.loc 2 625 0
	lw	$17,0($2)
	.loc 2 624 0
	move	$16,$2
	.loc 2 627 0
	lui	$2,%hi(finStateClientPort)
	.loc 2 625 0
	ext	$17,$17,24,4
	sll	$17,$17,2
	addu	$17,$16,$17
	.loc 2 627 0
	lhu	$3,%lo(finStateClientPort)($2)
	lhu	$4,0($17)
	.set	noreorder
	.set	nomacro
	bne	$4,$3,$L163
	lw	$31,108($sp)
	.set	macro
	.set	reorder

	.loc 2 627 0 is_stmt 0 discriminator 1
	lui	$2,%hi(finStateClientSeq)
	lw	$3,4($17)
	lw	$2,%lo(finStateClientSeq)($2)
	.set	noreorder
	.set	nomacro
	bne	$3,$2,$L163
	addiu	$4,$16,12
	.set	macro
	.set	reorder

	.loc 2 632 0 is_stmt 1
	.set	noreorder
	.set	nomacro
	jal	rtl_neigh_lookup
	move	$5,$19
	.set	macro
	.set	reorder

	.loc 2 633 0
	.set	noreorder
	.set	nomacro
	beq	$2,$0,$L155
	move	$20,$2
	.set	macro
	.set	reorder

	.loc 2 633 0 is_stmt 0 discriminator 1
	.set	noreorder
	.set	nomacro
	jal	rtl_get_hh_from_neigh
	move	$4,$2
	.set	macro
	.set	reorder

	.set	noreorder
	.set	nomacro
	bne	$2,$0,$L159
	move	$4,$18
	.set	macro
	.set	reorder

	.loc 4 300 0 is_stmt 1
	.set	noreorder
	.set	nomacro
	j	$L162
	addiu	$2,$20,24
	.set	macro
	.set	reorder

$L153:
$LBB649 = .
$LBB650 = .
$LBB651 = .
$LBB652 = .
$LBB653 = .
	.loc 5 207 0
#APP
 # 207 "/home/extra_home/marklee/rtk_OpenWRT_BB/BB_v1407/0629_co_2.4_pre_release/svn_test/rtk_BarrierBreaker_v14.07.x/build_dir/target-mips_24kec_uClibc-0.9.33.2/linux-rtkmips_rtl8198c/linux-3.10.49/arch/mips/include/asm/atomic.h" 1
		.set	mips3				
	ll	$3, 0($2)	# atomic_sub_return	
	subu	$4, $3, 1			
	sc	$4, 0($2)				
	.set	mips0				

 # 0 "" 2
	.loc 5 215 0
#NO_APP
	beq	$4,$0,$L153
$LBE653 = .
	.loc 5 228 0
#APP
 # 228 "/home/extra_home/marklee/rtk_OpenWRT_BB/BB_v1407/0629_co_2.4_pre_release/svn_test/rtk_BarrierBreaker_v14.07.x/build_dir/target-mips_24kec_uClibc-0.9.33.2/linux-rtkmips_rtl8198c/linux-3.10.49/arch/mips/include/asm/atomic.h" 1
			

 # 0 "" 2
#NO_APP
$LBE652 = .
$LBE651 = .
	.loc 4 300 0
	li	$2,1			# 0x1
	bne	$3,$2,$L155
	j	$L161
$L159:
$LBE650 = .
$LBE649 = .
	.loc 2 642 0
	li	$5,128			# 0x80
	move	$6,$0
	.set	noreorder
	.set	nomacro
	jal	skb_copy_expand
	li	$7,32			# 0x20
	.set	macro
	.set	reorder

	.loc 2 643 0
	.set	noreorder
	.set	nomacro
	bne	$2,$0,$L139
	move	$19,$2
	.set	macro
	.set	reorder

$LBB657 = .
$LBB658 = .
	.loc 4 300 0
	addiu	$2,$20,24
$LBB659 = .
$LBB660 = .
	.loc 5 185 0
#APP
 # 185 "/home/extra_home/marklee/rtk_OpenWRT_BB/BB_v1407/0629_co_2.4_pre_release/svn_test/rtk_BarrierBreaker_v14.07.x/build_dir/target-mips_24kec_uClibc-0.9.33.2/linux-rtkmips_rtl8198c/linux-3.10.49/arch/mips/include/asm/atomic.h" 1
			

 # 0 "" 2
#NO_APP
$L141:
$LBB661 = .
	.loc 5 207 0
#APP
 # 207 "/home/extra_home/marklee/rtk_OpenWRT_BB/BB_v1407/0629_co_2.4_pre_release/svn_test/rtk_BarrierBreaker_v14.07.x/build_dir/target-mips_24kec_uClibc-0.9.33.2/linux-rtkmips_rtl8198c/linux-3.10.49/arch/mips/include/asm/atomic.h" 1
		.set	mips3				
	ll	$4, 0($2)	# atomic_sub_return	
	subu	$3, $4, 1			
	sc	$3, 0($2)				
	.set	mips0				

 # 0 "" 2
	.loc 5 215 0
#NO_APP
	beq	$3,$0,$L141
$LBE661 = .
	.loc 5 228 0
#APP
 # 228 "/home/extra_home/marklee/rtk_OpenWRT_BB/BB_v1407/0629_co_2.4_pre_release/svn_test/rtk_BarrierBreaker_v14.07.x/build_dir/target-mips_24kec_uClibc-0.9.33.2/linux-rtkmips_rtl8198c/linux-3.10.49/arch/mips/include/asm/atomic.h" 1
			

 # 0 "" 2
#NO_APP
$LBE660 = .
$LBE659 = .
	.loc 4 300 0
	li	$2,1			# 0x1
	bne	$4,$2,$L155
$L161:
	.loc 4 301 0
	.set	noreorder
	.set	nomacro
	jal	neigh_destroy
	move	$4,$20
	.set	macro
	.set	reorder

$LBE658 = .
$LBE657 = .
	.loc 2 736 0
	.set	noreorder
	.set	nomacro
	j	$L163
	lw	$31,108($sp)
	.set	macro
	.set	reorder

$L139:
	.loc 2 651 0
	.set	noreorder
	.set	nomacro
	jal	rtl_ip_hdr
	move	$4,$2
	.set	macro
	.set	reorder

	.loc 2 653 0
	lw	$5,0($2)
	move	$4,$19
	ext	$5,$5,24,4
	sll	$5,$5,2
	.set	noreorder
	.set	nomacro
	jal	skb_trim
	addiu	$5,$5,20
	.set	macro
	.set	reorder

	.loc 2 654 0
	move	$5,$0
	.set	noreorder
	.set	nomacro
	jal	skb_put
	move	$4,$19
	.set	macro
	.set	reorder

	.loc 2 655 0
	.set	noreorder
	.set	nomacro
	jal	rtl_get_hh_from_neigh
	move	$4,$20
	.set	macro
	.set	reorder

	.loc 2 656 0
	move	$5,$2
	addiu	$4,$sp,56
	.set	noreorder
	.set	nomacro
	jal	rtl_get_lock_from_hh
	move	$21,$2
	.set	macro
	.set	reorder

	lw	$2,56($sp)
	andi	$2,$2,0x1
$L143:
$LBB662 = .
$LBB663 = .
$LBB664 = .
$LBB665 = .
$LBB666 = .
	.loc 7 65 0
	beq	$2,$0,$L142
	.loc 7 66 0
	j	$L143
$L142:
$LBE666 = .
$LBE665 = .
	.loc 7 84 0
#APP
 # 84 "include/linux/seqlock.h" 1
	sync
 # 0 "" 2
#NO_APP
$LBE664 = .
$LBE663 = .
$LBE662 = .
$LBB667 = .
	.loc 2 660 0
	.set	noreorder
	.set	nomacro
	jal	rtl_get_skb_data
	move	$4,$19
	.set	macro
	.set	reorder

	move	$4,$21
	.set	noreorder
	.set	nomacro
	jal	rtl_get_data_from_hh
	move	$22,$2
	.set	macro
	.set	reorder

	lwl	$7,0($2)
	lwl	$5,4($2)
	move	$6,$2
	lwl	$4,8($2)
	lwr	$7,3($6)
	lwl	$2,12($2)
	lwr	$5,7($6)
	addiu	$3,$22,-16
	lwr	$4,11($6)
	lwr	$2,15($6)
	swl	$7,0($3)
	swr	$7,3($3)
	swl	$5,4($3)
	swr	$5,7($3)
	swl	$4,8($3)
	swr	$4,11($3)
	swl	$2,12($3)
	swr	$2,15($3)
$LBE667 = .
$LBB668 = .
$LBB669 = .
$LBB670 = .
	.loc 7 140 0
#APP
 # 140 "include/linux/seqlock.h" 1
	sync
 # 0 "" 2
#NO_APP
$LBE670 = .
$LBE669 = .
$LBE668 = .
	.loc 2 663 0
	.set	noreorder
	.set	nomacro
	jal	rtl_get_len_from_hh
	move	$4,$21
	.set	macro
	.set	reorder

	move	$5,$2
	.set	noreorder
	.set	nomacro
	jal	skb_push
	move	$4,$19
	.set	macro
	.set	reorder

$LBB671 = .
$LBB672 = .
	.loc 4 300 0
	addiu	$2,$20,24
$LBB673 = .
$LBB674 = .
	.loc 5 185 0
#APP
 # 185 "/home/extra_home/marklee/rtk_OpenWRT_BB/BB_v1407/0629_co_2.4_pre_release/svn_test/rtk_BarrierBreaker_v14.07.x/build_dir/target-mips_24kec_uClibc-0.9.33.2/linux-rtkmips_rtl8198c/linux-3.10.49/arch/mips/include/asm/atomic.h" 1
			

 # 0 "" 2
#NO_APP
$L145:
$LBB675 = .
	.loc 5 207 0
#APP
 # 207 "/home/extra_home/marklee/rtk_OpenWRT_BB/BB_v1407/0629_co_2.4_pre_release/svn_test/rtk_BarrierBreaker_v14.07.x/build_dir/target-mips_24kec_uClibc-0.9.33.2/linux-rtkmips_rtl8198c/linux-3.10.49/arch/mips/include/asm/atomic.h" 1
		.set	mips3				
	ll	$3, 0($2)	# atomic_sub_return	
	subu	$4, $3, 1			
	sc	$4, 0($2)				
	.set	mips0				

 # 0 "" 2
	.loc 5 215 0
#NO_APP
	beq	$4,$0,$L145
$LBE675 = .
	.loc 5 228 0
#APP
 # 228 "/home/extra_home/marklee/rtk_OpenWRT_BB/BB_v1407/0629_co_2.4_pre_release/svn_test/rtk_BarrierBreaker_v14.07.x/build_dir/target-mips_24kec_uClibc-0.9.33.2/linux-rtkmips_rtl8198c/linux-3.10.49/arch/mips/include/asm/atomic.h" 1
			

 # 0 "" 2
#NO_APP
$LBE674 = .
$LBE673 = .
	.loc 4 300 0
	li	$2,1			# 0x1
	bne	$3,$2,$L146
	.loc 4 301 0
	.set	noreorder
	.set	nomacro
	jal	neigh_destroy
	move	$4,$20
	.set	macro
	.set	reorder

$L146:
$LBE672 = .
$LBE671 = .
	.loc 2 666 0
	move	$4,$19
	.set	noreorder
	.set	nomacro
	jal	rtl_set_skb_nfct
	move	$5,$0
	.set	macro
	.set	reorder

	.loc 2 671 0
	lhu	$3,2($17)
	.loc 2 676 0
	lhu	$2,28($sp)
	.loc 2 673 0
	lw	$6,4($17)
	.loc 2 671 0
	sh	$3,16($sp)
	.loc 2 676 0
	li	$3,5			# 0x5
	ins	$2,$3,12,4
	.loc 2 672 0
	lhu	$8,0($17)
	.loc 2 674 0
	lw	$7,8($17)
	.loc 2 676 0
	sh	$2,28($sp)
	.loc 2 677 0
	sb	$0,29($sp)
	.loc 2 678 0
	lhu	$2,28($sp)
	.loc 2 682 0
	lui	$21,%hi(url_cache)
	addiu	$20,$21,%lo(url_cache)
	.loc 2 679 0
	li	$3,1			# 0x1
	.loc 2 682 0
	lhu	$5,12($20)
	.loc 2 678 0
	ins	$2,$0,2,1
	.loc 2 679 0
	ins	$2,$3,4,1
	.loc 2 680 0
	ins	$2,$3,0,1
	.loc 2 683 0
	move	$4,$19
	.loc 2 682 0
	sh	$5,30($sp)
	.loc 2 672 0
	sh	$8,18($sp)
	.loc 2 674 0
	sw	$7,20($sp)
	.loc 2 675 0
	sw	$6,24($sp)
	.loc 2 680 0
	sh	$2,28($sp)
	.loc 2 683 0
	.set	noreorder
	.set	nomacro
	jal	rtl_get_skb_len
	sh	$0,34($sp)
	.set	macro
	.set	reorder

	.loc 2 685 0
	lw	$4,12($17)
	.loc 2 608 0
	li	$3,20			# 0x14
	.loc 2 683 0
	addiu	$17,$2,-34
	.loc 2 685 0
	srl	$4,$4,28
	sll	$4,$4,2
	.loc 2 687 0
	.set	noreorder
	.set	nomacro
	j	$L147
	li	$5,8			# 0x8
	.set	macro
	.set	reorder

$L152:
	.loc 2 689 0
	lbu	$7,0($6)
	.loc 2 690 0
	sltu	$2,$7,2
	beq	$2,$0,$L148
	.loc 2 693 0
	.set	noreorder
	.set	nomacro
	j	$L147
	addiu	$3,$3,1
	.set	macro
	.set	reorder

$L148:
	.loc 2 698 0
	.set	noreorder
	.set	nomacro
	bne	$7,$5,$L150
	lbu	$2,1($6)
	.set	macro
	.set	reorder

$LBB676 = .
	.loc 2 701 0
	addiu	$4,$sp,16
	addiu	$2,$3,6
	addu	$2,$4,$2
	lwl	$5,0($2)
$LBE676 = .
	.loc 2 697 0
	addiu	$3,$3,2
$LBB677 = .
	.loc 2 700 0
	addu	$3,$4,$3
	lwl	$4,0($3)
$LBE677 = .
$LBB678 = .
	.loc 2 701 0
	lwr	$5,3($2)
$LBE678 = .
$LBB679 = .
	.loc 2 700 0
	lwr	$4,3($3)
$LBE679 = .
$LBB680 = .
	.loc 2 702 0
	swl	$5,0($3)
	swr	$5,3($3)
$LBE680 = .
$LBB681 = .
	.loc 2 703 0
	swl	$4,0($2)
$LBE681 = .
$LBB682 = .
	.loc 2 700 0
	sw	$4,68($sp)
$LBE682 = .
$LBB683 = .
	.loc 2 701 0
	sw	$5,64($sp)
$LBE683 = .
	.loc 2 704 0
	.set	noreorder
	.set	nomacro
	j	$L151
	swr	$4,3($2)
	.set	macro
	.set	reorder

$L150:
	.loc 2 706 0
	addu	$3,$3,$2
$L147:
	.loc 2 689 0 discriminator 1
	addiu	$2,$sp,16
	addu	$6,$2,$3
	.loc 2 687 0 discriminator 1
	sltu	$2,$3,$4
	bne	$2,$0,$L152
$L151:
	.loc 2 708 0
	lhu	$3,18($sp)
	lui	$2,%hi(endStateClientPort)
	.loc 2 711 0
	sh	$0,32($sp)
	.loc 2 708 0
	sh	$3,%lo(endStateClientPort)($2)
	.loc 2 709 0
	lw	$3,24($sp)
	.loc 2 712 0
	lw	$23,16($16)
	move	$5,$17
	addiu	$4,$sp,16
	move	$6,$0
	.loc 2 709 0
	lui	$2,%hi(endStateClientSeq)
	.loc 2 712 0
	lw	$22,12($16)
	.loc 2 709 0
	sw	$3,%lo(endStateClientSeq)($2)
	.loc 2 712 0
	.set	noreorder
	.set	nomacro
	jal	csum_partial
	andi	$17,$17,0xffff
	.set	macro
	.set	reorder

$LBB684 = .
	.loc 2 713 0
	move	$4,$19
$LBE684 = .
$LBB685 = .
$LBB686 = .
$LBB687 = .
	.loc 6 136 0
	move	$3,$23
	.loc 6 167 0
	addiu	$17,$17,6
	.loc 6 136 0
#APP
 # 136 "/home/extra_home/marklee/rtk_OpenWRT_BB/BB_v1407/0629_co_2.4_pre_release/svn_test/rtk_BarrierBreaker_v14.07.x/build_dir/target-mips_24kec_uClibc-0.9.33.2/linux-rtkmips_rtl8198c/linux-3.10.49/arch/mips/include/asm/checksum.h" 1
		.set	push		# csum_tcpudp_nofold
	.set	noat		
	addu	$3, $22		
	sltu	$1, $3, $22	
	addu	$3, $1		
	addu	$3, $17		
	sltu	$1, $3, $17	
	addu	$3, $1		
	addu	$3, $2		
	sltu	$1, $3, $2	
	addu	$3, $1		
	.set	pop
 # 0 "" 2
#NO_APP
$LBE687 = .
$LBE686 = .
$LBB688 = .
$LBB689 = .
	.loc 6 78 0
#APP
 # 78 "/home/extra_home/marklee/rtk_OpenWRT_BB/BB_v1407/0629_co_2.4_pre_release/svn_test/rtk_BarrierBreaker_v14.07.x/build_dir/target-mips_24kec_uClibc-0.9.33.2/linux-rtkmips_rtl8198c/linux-3.10.49/arch/mips/include/asm/checksum.h" 1
		.set	push		# csum_fold
	.set	noat		
	sll	$1, $3, 16	
	addu	$3, $1		
	sltu	$1, $3, $1	
	srl	$3, $3, 16	
	addu	$3, $1		
	xori	$3, 0xffff	
	.set	pop
 # 0 "" 2
#NO_APP
$LBE689 = .
$LBE688 = .
$LBE685 = .
$LBB690 = .
	.loc 2 713 0
	.set	noreorder
	.set	nomacro
	jal	rtl_get_skb_data
	sh	$3,32($sp)
	.set	macro
	.set	reorder

	lw	$8,16($sp)
	lw	$7,20($sp)
	lw	$6,24($sp)
	lw	$5,28($sp)
	lw	$4,32($sp)
	addiu	$3,$2,34
	swl	$8,34($2)
	swr	$8,3($3)
	swl	$7,4($3)
	swr	$7,7($3)
	swl	$6,8($3)
$LBE690 = .
	.loc 2 715 0
	lbu	$2,36($sp)
$LBB691 = .
	.loc 2 713 0
	swr	$6,11($3)
	swl	$5,12($3)
$LBE691 = .
	.loc 2 715 0
	li	$6,4			# 0x4
$LBB692 = .
	.loc 2 713 0
	swr	$5,15($3)
$LBE692 = .
	.loc 2 715 0
	ins	$2,$6,4,4
	.loc 2 716 0
	li	$5,5			# 0x5
	ins	$2,$5,0,4
$LBB693 = .
	.loc 2 713 0
	swl	$4,16($3)
$LBE693 = .
	.loc 2 716 0
	sb	$2,36($sp)
	.loc 2 718 0
	li	$2,6			# 0x6
$LBB694 = .
	.loc 2 713 0
	swr	$4,19($3)
$LBE694 = .
	.loc 2 717 0
	sh	$0,42($sp)
	.loc 2 718 0
	sb	$2,45($sp)
	.loc 2 720 0
	lw	$17,12($16)
	.loc 2 722 0
	lbu	$2,14($20)
	.loc 2 721 0
	lw	$16,16($16)
	.loc 2 723 0
	move	$4,$18
	move	$5,$0
	.loc 2 720 0
	sw	$17,52($sp)
	.loc 2 721 0
	sw	$16,48($sp)
	.loc 2 722 0
	sb	$2,44($sp)
	.loc 2 723 0
	.set	noreorder
	.set	nomacro
	jal	rtl_set_skb_ip_summed
	sb	$0,37($sp)
	.set	macro
	.set	reorder

	.loc 2 725 0
	lhu	$2,%lo(url_cache)($21)
	.loc 2 724 0
	li	$3,40			# 0x28
	sh	$3,38($sp)
	.loc 2 725 0
	addiu	$2,$2,1
	sh	$2,40($sp)
	.loc 2 726 0
	sh	$0,46($sp)
$LBB695 = .
$LBB696 = .
	.loc 6 109 0
	lw	$3,40($sp)
	lw	$5,36($sp)
	.loc 6 113 0
	lw	$2,44($sp)
$LBE696 = .
$LBE695 = .
$LBB700 = .
	.loc 2 729 0
	move	$4,$19
$LBE700 = .
$LBB701 = .
$LBB699 = .
	.loc 6 109 0
	addu	$5,$3,$5
	.loc 6 110 0
	sltu	$3,$5,$3
	.loc 6 111 0
	addu	$5,$5,$2
	.loc 6 113 0
	addu	$3,$5,$3
	.loc 6 114 0
	sltu	$2,$3,$2
	.loc 6 115 0
	addu	$3,$3,$16
	.loc 6 117 0
	addu	$2,$3,$2
	.loc 6 118 0
	sltu	$16,$2,$16
	.loc 6 119 0
	addu	$2,$2,$17
	.loc 6 123 0
	addu	$16,$2,$16
	.loc 6 124 0
	sltu	$17,$16,$17
	.loc 6 125 0
	addu	$17,$17,$16
$LBB697 = .
$LBB698 = .
	.loc 6 78 0
#APP
 # 78 "/home/extra_home/marklee/rtk_OpenWRT_BB/BB_v1407/0629_co_2.4_pre_release/svn_test/rtk_BarrierBreaker_v14.07.x/build_dir/target-mips_24kec_uClibc-0.9.33.2/linux-rtkmips_rtl8198c/linux-3.10.49/arch/mips/include/asm/checksum.h" 1
		.set	push		# csum_fold
	.set	noat		
	sll	$1, $17, 16	
	addu	$17, $1		
	sltu	$1, $17, $1	
	srl	$17, $17, 16	
	addu	$17, $1		
	xori	$17, 0xffff	
	.set	pop
 # 0 "" 2
#NO_APP
$LBE698 = .
$LBE697 = .
$LBE699 = .
$LBE701 = .
$LBB702 = .
	.loc 2 729 0
	.set	noreorder
	.set	nomacro
	jal	rtl_get_skb_data
	sh	$17,46($sp)
	.set	macro
	.set	reorder

	lw	$5,36($sp)
	lw	$4,40($sp)
	addiu	$3,$2,14
	swl	$5,14($2)
	swr	$5,3($3)
	lw	$2,44($sp)
	swl	$4,4($3)
	swr	$4,7($3)
	lw	$4,48($sp)
	swl	$2,8($3)
	swr	$2,11($3)
	lw	$2,52($sp)
	swl	$4,12($3)
	swr	$4,15($3)
	swl	$2,16($3)
	swr	$2,19($3)
$LBE702 = .
	.loc 2 734 0
	move	$4,$19
	.loc 2 732 0
	li	$2,1			# 0x1
	.loc 2 731 0
	sb	$0,15($20)
	.loc 2 734 0
	.set	noreorder
	.set	nomacro
	jal	dev_queue_xmit
	sb	$2,16($20)
	.set	macro
	.set	reorder

	.loc 2 735 0
	.set	noreorder
	.set	nomacro
	j	$L163
	lw	$31,108($sp)
	.set	macro
	.set	reorder

$L162:
$LBB703 = .
$LBB656 = .
$LBB655 = .
$LBB654 = .
	.loc 5 185 0
#APP
 # 185 "/home/extra_home/marklee/rtk_OpenWRT_BB/BB_v1407/0629_co_2.4_pre_release/svn_test/rtk_BarrierBreaker_v14.07.x/build_dir/target-mips_24kec_uClibc-0.9.33.2/linux-rtkmips_rtl8198c/linux-3.10.49/arch/mips/include/asm/atomic.h" 1
			

 # 0 "" 2
#NO_APP
	j	$L153
$L155:
$LBE654 = .
$LBE655 = .
$LBE656 = .
$LBE703 = .
	.loc 2 736 0
	lw	$31,108($sp)
$L163:
	lw	$23,104($sp)
	lw	$22,100($sp)
	lw	$21,96($sp)
	lw	$20,92($sp)
	lw	$19,88($sp)
	lw	$18,84($sp)
	lw	$17,80($sp)
	lw	$16,76($sp)
	move	$2,$0
	.set	noreorder
	.set	nomacro
	j	$31
	addiu	$sp,$sp,112
	.set	macro
	.set	reorder

	.cfi_def_cfa_offset 0
	.cfi_restore 16
	.cfi_restore 17
	.cfi_restore 18
	.cfi_restore 19
	.cfi_restore 20
	.cfi_restore 21
	.cfi_restore 22
	.cfi_restore 23
	.cfi_restore 31
	.end	GenerateTCPFINACK
	.cfi_endproc
$LFE3328:
	.size	GenerateTCPFINACK, .-GenerateTCPFINACK
	.align	2
$LFB3350 = .
	.loc 2 2919 0
	.cfi_startproc
	.set	nomips16
	.ent	dos_timer_fn
	.type	dos_timer_fn, @function
dos_timer_fn:
	.frame	$sp,0,$31		# vars= 0, regs= 0/0, args= 0, gp= 0
	.mask	0x00000000,0
	.fmask	0x00000000,0
	.set	noreorder
	.set	nomacro
	.loc 2 2920 0
	lui	$13,%hi(item)
	lw	$12,%lo(item)($13)
	beq	$12,$0,$L165
	lui	$4,%hi(none_dos_drop_pkt_cnt)

	.loc 2 2921 0
	lui	$2,%hi(block_count)
	lui	$4,%hi(block_time)
	lw	$3,%lo(block_count)($2)
	lw	$4,%lo(block_time)($4)
	slt	$4,$3,$4
	beq	$4,$0,$L166
	lui	$4,%hi(block)

	.loc 2 2925 0
	lw	$5,%lo(block)($4)
	li	$4,1			# 0x1
	beq	$5,$4,$L167
	nop

	.loc 2 2292 0
	j	$L214
	andi	$2,$12,0x1e

$L166:
	.loc 2 2922 0
	lui	$3,%hi(block)
	sw	$0,%lo(block)($3)
	.loc 2 2923 0
	j	$L168
	sw	$0,%lo(block_count)($2)

$L167:
	.loc 2 2926 0
	addiu	$3,$3,1
	sw	$3,%lo(block_count)($2)
$L168:
$LBB710 = .
$LBB711 = .
	.loc 2 2292 0
	andi	$2,$12,0x1e
$L214:
	bne	$2,$0,$L207
	move	$7,$0

	lui	$4,%hi(dos_pkt+36864)
	lui	$2,%hi(dos_pkt)
	addiu	$2,$2,%lo(dos_pkt)
	addiu	$4,$4,%lo(dos_pkt+36864)
	j	$L169
	lui	$3,%hi(LogFlag)

$L207:
	lui	$2,%hi(dos_pkt)
	addiu	$2,$2,%lo(dos_pkt)
	lui	$4,%hi(dos_pkt+36864)
	move	$8,$0
	move	$3,$2
	addiu	$4,$4,%lo(dos_pkt+36864)
	.loc 2 2296 0
	li	$6,1			# 0x1
	andi	$10,$12,0x2
	.loc 2 2298 0
	andi	$9,$12,0x4
$L175:
	.loc 2 2296 0
	lb	$5,0($3)
	bne	$5,$6,$L170
	nop

	beq	$10,$0,$L171
	nop

	lw	$5,4($3)
	.loc 2 2297 0
	addu	$11,$8,$5
	slt	$5,$0,$5
$LBE711 = .
$LBE710 = .
	j	$L171
	movn	$8,$11,$5

$L184:
$LBB714 = .
$LBB712 = .
	.loc 2 2298 0
	lw	$5,8($3)
	.loc 2 2299 0
	addu	$11,$7,$5
	slt	$5,$0,$5
	movn	$7,$11,$5
$L170:
	.loc 2 2294 0
	addiu	$3,$3,36
$L215:
	bne	$3,$4,$L175
	nop

	.loc 2 2307 0
	lui	$3,%hi(whole_syn_threshold)
	lw	$3,%lo(whole_syn_threshold)($3)
	slt	$8,$3,$8
	beq	$8,$0,$L212
	andi	$5,$12,0x2

	beq	$5,$0,$L212
	nop

	bgtz	$3,$L210
	nop

$L212:
	j	$L176
	lui	$3,%hi(LogFlag)

$L210:
	.loc 2 2308 0
	lui	$3,%hi(LogFlag)
	lw	$5,%lo(LogFlag)($3)
	ori	$5,$5,0x2
	sw	$5,%lo(LogFlag)($3)
$L176:
	.loc 2 2309 0
	lui	$5,%hi(whole_fin_threshold)
	lw	$5,%lo(whole_fin_threshold)($5)
	slt	$7,$5,$7
	beq	$7,$0,$L169
	andi	$6,$12,0x4

	beq	$6,$0,$L169
	nop

	blez	$5,$L169
	lw	$5,%lo(LogFlag)($3)

	.loc 2 2310 0
	ori	$5,$5,0x4
	sw	$5,%lo(LogFlag)($3)
$L169:
$LBE712 = .
$LBE714 = .
$LBB715 = .
$LBB716 = .
	.loc 2 2915 0
	sw	$0,%lo(LogFlag)($3)
$L180:
$LBE716 = .
$LBE715 = .
$LBB717 = .
$LBB718 = .
	.loc 2 2274 0
	sb	$0,0($2)
	.loc 2 2275 0
	sw	$0,24($2)
	.loc 2 2276 0
	sw	$0,4($2)
	.loc 2 2277 0
	sw	$0,8($2)
	.loc 2 2278 0
	sw	$0,12($2)
	.loc 2 2279 0
	sw	$0,16($2)
	.loc 2 2280 0
	sw	$0,20($2)
	.loc 2 2281 0
	addiu	$2,$2,36
	.loc 2 2272 0
	bne	$2,$4,$L180
	nop

$LBE718 = .
$LBE717 = .
	.loc 2 2935 0
	j	$L213
	lui	$4,%hi(none_dos_drop_pkt_cnt)

$L188:
	.loc 2 2937 0
	sw	$12,%lo(item_backup)($2)
	.loc 2 2938 0
	j	$L186
	sw	$0,%lo(item)($13)

$L187:
$L218:
	.loc 2 2943 0
	beq	$3,$0,$L182
	nop

	.loc 2 2944 0
	sw	$3,%lo(item)($13)
	.loc 2 2945 0
	sw	$0,%lo(item_backup)($2)
$L182:
	.loc 2 2949 0
	beq	$5,$0,$L217
	lui	$2,%hi(jiffies)

$L186:
	.loc 2 2950 0
	sw	$0,%lo(none_dos_drop_pkt_cnt)($4)
	.loc 2 2953 0
	lui	$2,%hi(jiffies)
$L217:
	lw	$5,%lo(jiffies)($2)
	lui	$4,%hi(dos_timer)
	addiu	$4,$4,%lo(dos_timer)
	j	mod_timer
	addiu	$5,$5,100

$L171:
$LBB719 = .
$LBB713 = .
	.loc 2 2298 0
	bne	$9,$0,$L184
	nop

$LBE713 = .
$LBE719 = .
	.loc 2 2294 0
	j	$L215
	addiu	$3,$3,36

$L165:
	.loc 2 2935 0
	lw	$5,%lo(none_dos_drop_pkt_cnt)($4)
	sltu	$2,$5,3001
	beq	$2,$0,$L186
	lui	$2,%hi(item_backup)

	.loc 2 2943 0
	j	$L218
	lw	$3,%lo(item_backup)($2)

$L213:
	.loc 2 2935 0
	lw	$5,%lo(none_dos_drop_pkt_cnt)($4)
	sltu	$2,$5,3001
	beq	$2,$0,$L188
	lui	$2,%hi(item_backup)

	.loc 2 2943 0
	j	$L187
	lw	$3,%lo(item_backup)($2)

	.set	macro
	.set	reorder
	.end	dos_timer_fn
	.cfi_endproc
$LFE3350:
	.size	dos_timer_fn, .-dos_timer_fn
	.align	2
$LFB3372 = .
	.loc 2 2406 0
	.cfi_startproc
	.set	nomips16
	.ent	dos_pkt_locate.isra.5
	.type	dos_pkt_locate.isra.5, @function
dos_pkt_locate.isra.5:
	.frame	$sp,0,$31		# vars= 0, regs= 0/0, args= 0, gp= 0
	.mask	0x00000000,0
	.fmask	0x00000000,0
	.set	noreorder
	.set	nomacro
	.loc 2 2412 0
	andi	$3,$4,0xff
	lui	$2,%hi(ConnectedIp)
	addiu	$2,$2,%lo(ConnectedIp)
	sll	$3,$3,2
	addu	$3,$3,$2
	.loc 2 2411 0
	andi	$2,$4,0x3ff
	.loc 2 2412 0
	lw	$5,0($3)
	.loc 2 2411 0
	sll	$3,$2,2
	sll	$2,$2,5
	addu	$2,$3,$2
	lui	$3,%hi(dos_pkt)
	addiu	$3,$3,%lo(dos_pkt)
	addu	$3,$3,$2
	.loc 2 2412 0
	bne	$5,$4,$L220
	lw	$2,24($3)

	bne	$5,$2,$L221
	nop

	.loc 2 2414 0
	sb	$0,0($3)
	.loc 2 2415 0
	j	$31
	move	$2,$0

$L220:
	.loc 2 2417 0
	beq	$2,$4,$L223
	nop

$L221:
	lb	$5,0($3)
	bne	$5,$0,$L226
	move	$2,$0

	.loc 2 2420 0
	li	$2,1			# 0x1
	sb	$2,0($3)
	.loc 2 2421 0
	lui	$2,%hi(cur_p_pkt)
	sw	$3,%lo(cur_p_pkt)($2)
	.loc 2 2419 0
	sw	$4,24($3)
	.loc 2 2422 0
	j	$31
	li	$2,1			# 0x1

$L223:
	.loc 2 2424 0
	lb	$5,0($3)
	li	$4,1			# 0x1
	bne	$5,$4,$L226
	move	$2,$0

	.loc 2 2426 0
	lui	$2,%hi(cur_p_pkt)
	sw	$3,%lo(cur_p_pkt)($2)
	.loc 2 2427 0
	li	$2,1			# 0x1
$L226:
	.loc 2 2431 0
	j	$31
	nop

	.set	macro
	.set	reorder
	.end	dos_pkt_locate.isra.5
	.cfi_endproc
$LFE3372:
	.size	dos_pkt_locate.isra.5, .-dos_pkt_locate.isra.5
	.align	2
$LFB3380 = .
	.loc 1 272 0
	.cfi_startproc
	.set	nomips16
	.ent	find_pattern.constprop.14
	.type	find_pattern.constprop.14, @function
find_pattern.constprop.14:
	.frame	$sp,64,$31		# vars= 8, regs= 10/0, args= 16, gp= 0
	.mask	0xc0ff0000,-4
	.fmask	0x00000000,0
	.set	noreorder
	.set	nomacro
	addiu	$sp,$sp,-64
	.cfi_def_cfa_offset 64
	.loc 1 276 0
	lw	$2,84($sp)
	lw	$3,80($sp)
	.loc 1 272 0
	sw	$fp,56($sp)
	sw	$23,52($sp)
	sw	$22,48($sp)
	sw	$21,44($sp)
	sw	$20,40($sp)
	sw	$19,36($sp)
	sw	$18,32($sp)
	sw	$17,28($sp)
	sw	$16,24($sp)
	sw	$31,60($sp)
	.cfi_offset 30, -8
	.cfi_offset 23, -12
	.cfi_offset 22, -16
	.cfi_offset 21, -20
	.cfi_offset 20, -24
	.cfi_offset 19, -28
	.cfi_offset 18, -32
	.cfi_offset 17, -36
	.cfi_offset 16, -40
	.cfi_offset 31, -4
	.loc 1 276 0
	sw	$0,0($2)
	.loc 1 277 0
	subu	$2,$5,$7
	.loc 1 272 0
	move	$21,$4
	move	$16,$5
	move	$18,$7
	move	$23,$6
	.loc 1 276 0
	sw	$0,0($3)
	move	$17,$4
	.loc 1 275 0
	move	$20,$0
	.loc 1 277 0
	move	$19,$0
	.loc 1 279 0
	li	$22,13			# 0xd
	.loc 1 284 0
	li	$fp,10			# 0xa
	.loc 1 277 0
	sw	$2,16($sp)
$L234:
	.loc 1 279 0
	lb	$2,0($17)
	bne	$2,$22,$L228
	nop

	.loc 1 281 0
	andi	$2,$20,0x1
	bne	$2,$0,$L239
	addiu	$20,$20,1

	.loc 1 291 0
	j	$L243
	slt	$2,$20,4

$L228:
	.loc 1 284 0
	bne	$2,$fp,$L239
	andi	$2,$20,0x1

	.loc 1 286 0
	beq	$2,$0,$L239
	addiu	$20,$20,1

	.loc 1 291 0
	slt	$2,$20,4
$L243:
	bne	$2,$0,$L229
	nop

$L233:
	.loc 1 302 0
	j	$L231
	move	$2,$0

$L239:
	.loc 1 286 0
	move	$20,$0
$L229:
	.loc 1 293 0
	move	$4,$17
	move	$5,$23
	jal	memcmp
	move	$6,$18

	beq	$2,$0,$L232
	lw	$2,80($sp)

	.loc 1 277 0
	lw	$3,16($sp)
	addiu	$19,$19,1
	sltu	$2,$3,$19
	beq	$2,$0,$L234
	addiu	$17,$17,1

	j	$L231
	move	$2,$0

$L232:
	.loc 1 295 0
	addu	$18,$19,$18
	addu	$21,$21,$18
	sw	$18,0($2)
	.loc 1 296 0
	li	$5,13			# 0xd
	j	$L235
	move	$2,$0

$L236:
	.loc 1 297 0
	bne	$4,$0,$L233
	nop

	.loc 1 296 0
	addiu	$2,$2,1
$L235:
	addu	$3,$21,$2
	lb	$3,0($3)
	addu	$4,$2,$18
	bne	$3,$5,$L236
	sltu	$4,$16,$4

	.loc 1 298 0
	lw	$3,84($sp)
	sw	$2,0($3)
	.loc 1 299 0
	li	$2,1			# 0x1
$L231:
	.loc 1 304 0
	lw	$31,60($sp)
	lw	$fp,56($sp)
	lw	$23,52($sp)
	lw	$22,48($sp)
	lw	$21,44($sp)
	lw	$20,40($sp)
	lw	$19,36($sp)
	lw	$18,32($sp)
	lw	$17,28($sp)
	lw	$16,24($sp)
	j	$31
	addiu	$sp,$sp,64

	.cfi_def_cfa_offset 0
	.cfi_restore 16
	.cfi_restore 17
	.cfi_restore 18
	.cfi_restore 19
	.cfi_restore 20
	.cfi_restore 21
	.cfi_restore 22
	.cfi_restore 23
	.cfi_restore 30
	.cfi_restore 31
	.set	macro
	.set	reorder
	.end	find_pattern.constprop.14
	.cfi_endproc
$LFE3380:
	.size	find_pattern.constprop.14, .-find_pattern.constprop.14
	.section	.rodata.str1.4
	.align	2
$LC13:
	.ascii	"GET \000"
	.align	2
$LC14:
	.ascii	"Host: \000"
	.align	2
$LC15:
	.ascii	"%s\000"
	.text
	.align	2
	.globl	rtl_url_filter_fastpath
$LFB3307 = .
	.loc 1 369 0
	.cfi_startproc
	.set	nomips16
	.ent	rtl_url_filter_fastpath
	.type	rtl_url_filter_fastpath, @function
rtl_url_filter_fastpath:
	.frame	$sp,72,$31		# vars= 16, regs= 8/0, args= 24, gp= 0
	.mask	0x807f0000,-4
	.fmask	0x00000000,0
	addiu	$sp,$sp,-72
	.cfi_def_cfa_offset 72
	sw	$16,40($sp)
	.cfi_offset 16, -32
	move	$16,$4
	.loc 1 378 0
	move	$4,$5
	.loc 1 369 0
	sw	$17,44($sp)
	sw	$31,68($sp)
	sw	$22,64($sp)
	sw	$21,60($sp)
	sw	$20,56($sp)
	sw	$19,52($sp)
	sw	$18,48($sp)
	.cfi_offset 17, -28
	.cfi_offset 31, -4
	.cfi_offset 22, -8
	.cfi_offset 21, -12
	.cfi_offset 20, -16
	.cfi_offset 19, -20
	.cfi_offset 18, -24
	.loc 1 378 0
	.set	noreorder
	.set	nomacro
	jal	strlen
	move	$17,$5
	.set	macro
	.set	reorder

	sltu	$2,$2,2
	bne	$2,$0,$L260
$LBB735 = .
$LBB736 = .
	.loc 1 379 0
	.set	noreorder
	.set	nomacro
	jal	rtl_ip_hdr
	move	$4,$16
	.set	macro
	.set	reorder

	.loc 1 380 0
	lbu	$3,9($2)
	.loc 1 379 0
	move	$18,$2
	.loc 1 380 0
	li	$2,6			# 0x6
	.set	noreorder
	.set	nomacro
	bne	$3,$2,$L260
	li	$5,208			# 0xd0
	.set	macro
	.set	reorder

	.loc 1 381 0
	lw	$2,0($18)
$LBB737 = .
$LBB738 = .
	.loc 3 170 0
	lui	$3,%hi(kmalloc_caches+44)
$LBB739 = .
$LBB740 = .
	.loc 3 142 0
	lw	$4,%lo(kmalloc_caches+44)($3)
$LBE740 = .
$LBE739 = .
$LBE738 = .
$LBE737 = .
	.loc 1 381 0
	ext	$2,$2,24,4
	sll	$2,$2,2
	addu	$2,$18,$2
	.loc 1 385 0
	lw	$20,12($2)
	srl	$20,$20,28
	sll	$20,$20,2
$LBB744 = .
$LBB743 = .
$LBB742 = .
$LBB741 = .
	.loc 3 142 0
	.set	noreorder
	.set	nomacro
	jal	kmem_cache_alloc
	addu	$20,$2,$20
	.set	macro
	.set	reorder

$LBE741 = .
$LBE742 = .
$LBE743 = .
$LBE744 = .
	.loc 1 393 0
	.set	noreorder
	.set	nomacro
	beq	$2,$0,$L260
	move	$19,$2
	.set	macro
	.set	reorder

	.loc 1 397 0
	lw	$2,0($18)
	.loc 1 398 0
	lui	$21,%hi($LC13)
	move	$4,$20
	addiu	$5,$21,%lo($LC13)
	li	$6,4			# 0x4
	.set	noreorder
	.set	nomacro
	jal	memcmp
	ext	$22,$2,24,4
	.set	macro
	.set	reorder

	move	$16,$2
	.set	noreorder
	.set	nomacro
	beq	$2,$0,$L249
	lhu	$3,2($18)
	.set	macro
	.set	reorder

	.loc 1 400 0
	.set	noreorder
	.set	nomacro
	jal	kfree
	move	$4,$19
	.set	macro
	.set	reorder

$LBE736 = .
$LBE735 = .
	.loc 1 401 0
	.set	noreorder
	.set	nomacro
	j	$L266
	move	$16,$0
	.set	macro
	.set	reorder

$L249:
$LBB757 = .
$LBB753 = .
	.loc 1 403 0
	addiu	$2,$sp,32
	.loc 1 397 0
	sll	$18,$22,3
	subu	$18,$3,$18
	.loc 1 403 0
	sw	$2,16($sp)
	lui	$6,%hi($LC14)
	addiu	$2,$sp,28
	sw	$2,20($sp)
	move	$4,$20
	move	$5,$18
	addiu	$6,$6,%lo($LC14)
	.set	noreorder
	.set	nomacro
	jal	find_pattern.constprop.14
	li	$7,6			# 0x6
	.set	macro
	.set	reorder

	.loc 1 404 0
	beq	$2,$0,$L253
	.loc 1 409 0
	lw	$4,28($sp)
	lw	$3,32($sp)
$LBB745 = .
$LBB746 = .
	.file 8 "/home/extra_home/marklee/rtk_OpenWRT_BB/BB_v1407/0629_co_2.4_pre_release/svn_test/rtk_BarrierBreaker_v14.07.x/build_dir/target-mips_24kec_uClibc-0.9.33.2/linux-rtkmips_rtl8198c/linux-3.10.49/arch/mips/include/asm/string.h"
	.loc 8 49 0
	.set	noreorder
	.set	nomacro
	beq	$4,$0,$L251
	move	$2,$0
	.set	macro
	.set	reorder

$LBE746 = .
$LBE745 = .
	.loc 1 409 0
	addu	$3,$20,$3
$LBB748 = .
$LBB747 = .
	.loc 8 52 0
	move	$2,$19
#APP
 # 52 "/home/extra_home/marklee/rtk_OpenWRT_BB/BB_v1407/0629_co_2.4_pre_release/svn_test/rtk_BarrierBreaker_v14.07.x/build_dir/target-mips_24kec_uClibc-0.9.33.2/linux-rtkmips_rtl8198c/linux-3.10.49/arch/mips/include/asm/string.h" 1
	.set	noreorder
	.set	noat
1:	lbu	$1,($3)
	subu	$4,1
	sb	$1,($2)
	beqz	$1,2f
	addiu	$2,1
	bnez	$4,1b
	addiu	$3,1
2:
	.set	at
	.set	reorder
 # 0 "" 2
#NO_APP
	lw	$2,28($sp)
$L251:
$LBE747 = .
$LBE748 = .
	.loc 1 410 0
	addu	$2,$19,$2
	sb	$0,0($2)
	.loc 1 411 0
	addiu	$2,$sp,32
	sw	$2,16($sp)
	addiu	$2,$sp,24
	move	$4,$20
	sw	$2,20($sp)
	move	$5,$18
	addiu	$6,$21,%lo($LC13)
	.set	noreorder
	.set	nomacro
	jal	find_pattern.constprop.14
	li	$7,4			# 0x4
	.set	macro
	.set	reorder

	.loc 1 412 0
	bne	$2,$0,$L252
$L253:
	.loc 1 414 0
	.set	noreorder
	.set	nomacro
	jal	kfree
	move	$4,$19
	.set	macro
	.set	reorder

$LBE753 = .
$LBE757 = .
	.loc 1 479 0
	.set	noreorder
	.set	nomacro
	j	$L268
	lw	$31,68($sp)
	.set	macro
	.set	reorder

$L252:
$LBB758 = .
$LBB754 = .
	.loc 1 412 0
	lw	$3,24($sp)
	addiu	$3,$3,-9
	.set	noreorder
	.set	nomacro
	blez	$3,$L253
	sw	$3,24($sp)
	.set	macro
	.set	reorder

	.loc 1 417 0
	lw	$2,28($sp)
	lw	$4,32($sp)
	addu	$2,$19,$2
	addu	$20,$20,$4
$LBB749 = .
$LBB750 = .
	.loc 8 52 0
#APP
 # 52 "/home/extra_home/marklee/rtk_OpenWRT_BB/BB_v1407/0629_co_2.4_pre_release/svn_test/rtk_BarrierBreaker_v14.07.x/build_dir/target-mips_24kec_uClibc-0.9.33.2/linux-rtkmips_rtl8198c/linux-3.10.49/arch/mips/include/asm/string.h" 1
	.set	noreorder
	.set	noat
1:	lbu	$1,($20)
	subu	$3,1
	sb	$1,($2)
	beqz	$1,2f
	addiu	$2,1
	bnez	$3,1b
	addiu	$20,1
2:
	.set	at
	.set	reorder
 # 0 "" 2
#NO_APP
$LBE750 = .
$LBE749 = .
	.loc 1 418 0
	lw	$3,24($sp)
	lw	$2,28($sp)
	.loc 1 467 0
	move	$4,$19
	.loc 1 418 0
	addu	$3,$19,$3
	addu	$2,$3,$2
	.loc 1 467 0
	.set	noreorder
	.set	nomacro
	jal	strlen
	sb	$0,0($2)
	.set	macro
	.set	reorder

	move	$4,$17
	.set	noreorder
	.set	nomacro
	jal	strlen
	move	$18,$2
	.set	macro
	.set	reorder

$LBB751 = .
$LBB752 = .
	.loc 1 240 0
	sltu	$18,$18,$2
	.set	noreorder
	.set	nomacro
	bne	$18,$0,$L254
	move	$20,$2
	.set	macro
	.set	reorder

	.set	noreorder
	.set	nomacro
	j	$L255
	addu	$18,$19,$2
	.set	macro
	.set	reorder

$L257:
	.loc 1 244 0
	.set	noreorder
	.set	nomacro
	jal	memcmp
	addiu	$18,$18,1
	.set	macro
	.set	reorder

	.set	noreorder
	.set	nomacro
	beq	$2,$0,$L256
	lui	$4,%hi(log_info)
	.set	macro
	.set	reorder

$L255:
	.loc 1 242 0
	lb	$2,0($18)
	.loc 1 244 0
	subu	$4,$18,$20
	move	$5,$17
	.loc 1 242 0
	.set	noreorder
	.set	nomacro
	bne	$2,$0,$L257
	move	$6,$20
	.set	macro
	.set	reorder

$LBE752 = .
$LBE751 = .
$LBE754 = .
$LBE758 = .
	.loc 1 469 0
	.set	noreorder
	.set	nomacro
	j	$L269
	lui	$6,%hi($LC15)
	.set	macro
	.set	reorder

$L259:
	.loc 1 475 0
	.set	noreorder
	.set	nomacro
	j	$L266
	sw	$3,%lo(url_filter_flag)($2)
	.set	macro
	.set	reorder

$L260:
	.loc 1 378 0
	.set	noreorder
	.set	nomacro
	j	$L266
	move	$16,$0
	.set	macro
	.set	reorder

$L256:
$LBB759 = .
$LBB755 = .
	.loc 1 469 0
	lui	$6,%hi($LC15)
	li	$5,32			# 0x20
	addiu	$6,$6,%lo($LC15)
	move	$7,$19
	.set	noreorder
	.set	nomacro
	jal	snprintf
	addiu	$4,$4,%lo(log_info)
	.set	macro
	.set	reorder

	.loc 1 471 0
	.set	noreorder
	.set	nomacro
	jal	kfree
	move	$4,$19
	.set	macro
	.set	reorder

$LBE755 = .
$LBE759 = .
	.loc 1 247 0
	.set	noreorder
	.set	nomacro
	j	$L266
	li	$16,1			# 0x1
	.set	macro
	.set	reorder

$L254:
$LBB760 = .
$LBB756 = .
	.loc 1 469 0
	lui	$6,%hi($LC15)
$L269:
	lui	$4,%hi(log_info)
	li	$5,32			# 0x20
	addiu	$6,$6,%lo($LC15)
	move	$7,$19
	.set	noreorder
	.set	nomacro
	jal	snprintf
	addiu	$4,$4,%lo(log_info)
	.set	macro
	.set	reorder

	.loc 1 471 0
	.set	noreorder
	.set	nomacro
	jal	kfree
	move	$4,$19
	.set	macro
	.set	reorder

	.loc 1 474 0
	lui	$2,%hi(url_filter_mode)
	lw	$3,%lo(url_filter_mode)($2)
	li	$2,1			# 0x1
	.set	noreorder
	.set	nomacro
	beq	$3,$2,$L259
	lui	$2,%hi(url_filter_flag)
	.set	macro
	.set	reorder

$L266:
$LBE756 = .
$LBE760 = .
	.loc 1 479 0
	lw	$31,68($sp)
$L268:
	move	$2,$16
	lw	$22,64($sp)
	lw	$21,60($sp)
	lw	$20,56($sp)
	lw	$19,52($sp)
	lw	$18,48($sp)
	lw	$17,44($sp)
	lw	$16,40($sp)
	.set	noreorder
	.set	nomacro
	j	$31
	addiu	$sp,$sp,72
	.set	macro
	.set	reorder

	.cfi_def_cfa_offset 0
	.cfi_restore 16
	.cfi_restore 17
	.cfi_restore 18
	.cfi_restore 19
	.cfi_restore 20
	.cfi_restore 21
	.cfi_restore 22
	.cfi_restore 31
	.end	rtl_url_filter_fastpath
	.cfi_endproc
$LFE3307:
	.size	rtl_url_filter_fastpath, .-rtl_url_filter_fastpath
	.section	.rodata.str1.4
	.align	2
$LC16:
	.ascii	"ppp0\000"
	.align	2
$LC17:
	.ascii	"eth1\000"
	.align	2
$LC18:
	.ascii	"wlan0\000"
	.text
	.align	2
	.globl	need_filter
$LFB3303 = .
	.loc 1 72 0
	.cfi_startproc
	.set	nomips16
	.ent	need_filter
	.type	need_filter, @function
need_filter:
	.frame	$sp,32,$31		# vars= 0, regs= 3/0, args= 16, gp= 0
	.mask	0x80030000,-4
	.fmask	0x00000000,0
	addiu	$sp,$sp,-32
	.cfi_def_cfa_offset 32
	sw	$17,24($sp)
	sw	$16,20($sp)
	sw	$31,28($sp)
	.cfi_offset 17, -8
	.cfi_offset 16, -12
	.cfi_offset 31, -4
	.loc 1 80 0
	.set	noreorder
	.set	nomacro
	jal	rtl_ip_hdr
	lui	$17,%hi($LC11)
	.set	macro
	.set	reorder

	.loc 1 82 0
	addiu	$4,$17,%lo($LC11)
	.set	noreorder
	.set	nomacro
	jal	rtl_get_dev_by_name
	move	$16,$2
	.set	macro
	.set	reorder

	beq	$2,$0,$L271
	.loc 1 77 0
	lw	$5,376($2)
	.loc 1 85 0
	.set	noreorder
	.set	nomacro
	beq	$5,$0,$L271
	addiu	$5,$5,12
	.set	macro
	.set	reorder

	.loc 1 87 0
	.set	noreorder
	.set	nomacro
	j	$L272
	addiu	$6,$17,%lo($LC11)
	.set	macro
	.set	reorder

$L274:
$LBB761 = .
$LBB762 = .
	.loc 8 77 0
#APP
 # 77 "/home/extra_home/marklee/rtk_OpenWRT_BB/BB_v1407/0629_co_2.4_pre_release/svn_test/rtk_BarrierBreaker_v14.07.x/build_dir/target-mips_24kec_uClibc-0.9.33.2/linux-rtkmips_rtl8198c/linux-3.10.49/arch/mips/include/asm/string.h" 1
	.set	noreorder
	.set	noat
	lbu	$2,($3)
1:	lbu	$1,($4)
	addiu	$3,1
	bne	$1,$2,2f
	addiu	$4,1
	bnez	$2,1b
	lbu	$2,($3)
	move	$2,$1
2:	subu	$2,$1
3:	.set	at
	.set	reorder
 # 0 "" 2
#NO_APP
$LBE762 = .
$LBE761 = .
	.loc 1 89 0
	beq	$2,$0,$L273
	.loc 1 87 0
	addiu	$5,$5,8
$L272:
	.loc 1 87 0 is_stmt 0 discriminator 1
	lw	$5,0($5)
$LBB764 = .
$LBB763 = .
	.loc 8 77 0 is_stmt 1 discriminator 1
	move	$3,$6
$LBE763 = .
$LBE764 = .
	.loc 1 87 0 discriminator 1
	.set	noreorder
	.set	nomacro
	bne	$5,$0,$L274
	addiu	$4,$5,43
	.set	macro
	.set	reorder

$L271:
	.loc 1 105 0
	lui	$17,%hi($LC16)
$L309:
	.set	noreorder
	.set	nomacro
	jal	rtl_get_dev_by_name
	addiu	$4,$17,%lo($LC16)
	.set	macro
	.set	reorder

	.set	noreorder
	.set	nomacro
	beq	$2,$0,$L275
	addiu	$6,$17,%lo($LC16)
	.set	macro
	.set	reorder

	.loc 1 78 0
	lw	$2,376($2)
	.loc 1 107 0
	.set	noreorder
	.set	nomacro
	bne	$2,$0,$L305
	addiu	$5,$2,12
	.set	macro
	.set	reorder

$L281:
	.loc 1 163 0
	.set	noreorder
	.set	nomacro
	j	$L306
	li	$2,1			# 0x1
	.set	macro
	.set	reorder

$L280:
$LBB765 = .
$LBB766 = .
	.loc 8 77 0
#APP
 # 77 "/home/extra_home/marklee/rtk_OpenWRT_BB/BB_v1407/0629_co_2.4_pre_release/svn_test/rtk_BarrierBreaker_v14.07.x/build_dir/target-mips_24kec_uClibc-0.9.33.2/linux-rtkmips_rtl8198c/linux-3.10.49/arch/mips/include/asm/string.h" 1
	.set	noreorder
	.set	noat
	lbu	$2,($3)
1:	lbu	$1,($4)
	addiu	$3,1
	bne	$1,$2,2f
	addiu	$4,1
	bnez	$2,1b
	lbu	$2,($3)
	move	$2,$1
2:	subu	$2,$1
3:	.set	at
	.set	reorder
 # 0 "" 2
#NO_APP
$LBE766 = .
$LBE765 = .
	.loc 1 109 0
	beq	$2,$0,$L279
	.loc 1 108 0
	addiu	$5,$5,8
$L305:
	.loc 1 108 0 is_stmt 0 discriminator 1
	lw	$5,0($5)
$LBB768 = .
$LBB767 = .
	.loc 8 77 0 is_stmt 1 discriminator 1
	move	$3,$6
$LBE767 = .
$LBE768 = .
	.loc 1 108 0 discriminator 1
	.set	noreorder
	.set	nomacro
	bne	$5,$0,$L280
	addiu	$4,$5,43
	.set	macro
	.set	reorder

	.set	noreorder
	.set	nomacro
	j	$L306
	li	$2,1			# 0x1
	.set	macro
	.set	reorder

$L275:
	.loc 1 124 0
	lui	$17,%hi($LC17)
	.set	noreorder
	.set	nomacro
	jal	rtl_get_dev_by_name
	addiu	$4,$17,%lo($LC17)
	.set	macro
	.set	reorder

	beq	$2,$0,$L282
	.loc 1 78 0
	lw	$4,376($2)
	.loc 1 128 0
	.set	noreorder
	.set	nomacro
	beq	$4,$0,$L306
	li	$2,1			# 0x1
	.set	macro
	.set	reorder

	.loc 1 129 0
	addiu	$4,$4,12
	.set	noreorder
	.set	nomacro
	j	$L283
	addiu	$6,$17,%lo($LC17)
	.set	macro
	.set	reorder

$L285:
$LBB769 = .
$LBB770 = .
	.loc 8 77 0
#APP
 # 77 "/home/extra_home/marklee/rtk_OpenWRT_BB/BB_v1407/0629_co_2.4_pre_release/svn_test/rtk_BarrierBreaker_v14.07.x/build_dir/target-mips_24kec_uClibc-0.9.33.2/linux-rtkmips_rtl8198c/linux-3.10.49/arch/mips/include/asm/string.h" 1
	.set	noreorder
	.set	noat
	lbu	$5,($2)
1:	lbu	$1,($3)
	addiu	$2,1
	bne	$1,$5,2f
	addiu	$3,1
	bnez	$5,1b
	lbu	$5,($2)
	move	$5,$1
2:	subu	$5,$1
3:	.set	at
	.set	reorder
 # 0 "" 2
#NO_APP
$LBE770 = .
$LBE769 = .
	.loc 1 133 0
	beq	$5,$0,$L284
	.loc 1 129 0
	addiu	$4,$4,8
$L283:
	.loc 1 129 0 is_stmt 0 discriminator 1
	lw	$4,0($4)
$LBB772 = .
$LBB771 = .
	.loc 8 77 0 is_stmt 1 discriminator 1
	move	$2,$6
$LBE771 = .
$LBE772 = .
	.loc 1 129 0 discriminator 1
	.set	noreorder
	.set	nomacro
	bne	$4,$0,$L285
	addiu	$3,$4,43
	.set	macro
	.set	reorder

	.set	noreorder
	.set	nomacro
	j	$L306
	li	$2,1			# 0x1
	.set	macro
	.set	reorder

$L282:
	.loc 1 147 0
	lui	$17,%hi($LC18)
	.set	noreorder
	.set	nomacro
	jal	rtl_get_dev_by_name
	addiu	$4,$17,%lo($LC18)
	.set	macro
	.set	reorder

	beq	$2,$0,$L281
	.loc 1 78 0
	lw	$2,376($2)
	.loc 1 149 0
	beq	$2,$0,$L281
	.loc 1 150 0
	addiu	$2,$2,12
	.set	noreorder
	.set	nomacro
	j	$L286
	addiu	$6,$17,%lo($LC18)
	.set	macro
	.set	reorder

$L288:
$LBB773 = .
$LBB774 = .
	.loc 8 77 0
#APP
 # 77 "/home/extra_home/marklee/rtk_OpenWRT_BB/BB_v1407/0629_co_2.4_pre_release/svn_test/rtk_BarrierBreaker_v14.07.x/build_dir/target-mips_24kec_uClibc-0.9.33.2/linux-rtkmips_rtl8198c/linux-3.10.49/arch/mips/include/asm/string.h" 1
	.set	noreorder
	.set	noat
	lbu	$5,($3)
1:	lbu	$1,($4)
	addiu	$3,1
	bne	$1,$5,2f
	addiu	$4,1
	bnez	$5,1b
	lbu	$5,($3)
	move	$5,$1
2:	subu	$5,$1
3:	.set	at
	.set	reorder
 # 0 "" 2
#NO_APP
$LBE774 = .
$LBE773 = .
	.loc 1 151 0
	beq	$5,$0,$L287
	.loc 1 150 0
	addiu	$2,$2,8
$L286:
	.loc 1 150 0 is_stmt 0 discriminator 1
	lw	$2,0($2)
$LBB776 = .
$LBB775 = .
	.loc 8 77 0 is_stmt 1 discriminator 1
	move	$3,$6
$LBE775 = .
$LBE776 = .
	.loc 1 150 0 discriminator 1
	.set	noreorder
	.set	nomacro
	bne	$2,$0,$L288
	addiu	$4,$2,43
	.set	macro
	.set	reorder

	.set	noreorder
	.set	nomacro
	j	$L306
	li	$2,1			# 0x1
	.set	macro
	.set	reorder

$L273:
	.loc 1 97 0
	lw	$3,16($16)
	lw	$2,28($5)
	.set	noreorder
	.set	nomacro
	bne	$3,$2,$L309
	lui	$17,%hi($LC16)
	.set	macro
	.set	reorder

	.set	noreorder
	.set	nomacro
	j	$L306
	move	$2,$0
	.set	macro
	.set	reorder

$L279:
	.loc 1 115 0
	lw	$3,16($16)
	lw	$2,24($5)
	xor	$2,$3,$2
	.set	noreorder
	.set	nomacro
	j	$L306
	sltu	$2,$0,$2
	.set	macro
	.set	reorder

$L284:
	.loc 1 141 0
	lw	$3,16($16)
	lw	$2,28($4)
	xor	$2,$3,$2
	.set	noreorder
	.set	nomacro
	j	$L306
	sltu	$2,$0,$2
	.set	macro
	.set	reorder

$L287:
	.loc 1 157 0
	lw	$3,16($16)
	lw	$2,28($2)
	xor	$2,$3,$2
	sltu	$2,$0,$2
$L306:
	.loc 1 164 0
	lw	$31,28($sp)
	lw	$17,24($sp)
	lw	$16,20($sp)
	.set	noreorder
	.set	nomacro
	j	$31
	addiu	$sp,$sp,32
	.set	macro
	.set	reorder

	.cfi_def_cfa_offset 0
	.cfi_restore 16
	.cfi_restore 17
	.cfi_restore 31
	.end	need_filter
	.cfi_endproc
$LFE3303:
	.size	need_filter, .-need_filter
	.align	2
	.globl	str2hexnum
$LFB3305 = .
	.loc 1 253 0
	.cfi_startproc
	.set	nomips16
	.ent	str2hexnum
	.type	str2hexnum, @function
str2hexnum:
	.frame	$sp,0,$31		# vars= 0, regs= 0/0, args= 0, gp= 0
	.mask	0x00000000,0
	.fmask	0x00000000,0
	.set	noreorder
	.set	nomacro
	.loc 1 256 0
	j	$L311
	move	$2,$0

$L315:
	.loc 1 259 0
	bne	$7,$0,$L312
	nop

	.loc 1 263 0
	addiu	$5,$3,-65
	.loc 1 261 0
	beq	$6,$0,$L313
	sltu	$5,$5,6

	j	$L312
	addiu	$5,$3,-87

$L313:
	.loc 1 263 0
	beq	$5,$0,$L316
	addiu	$5,$3,-55

$L312:
	.loc 1 256 0
	sll	$2,$2,4
	addu	$2,$5,$2
	addiu	$4,$4,1
$L311:
	.loc 1 256 0 is_stmt 0 discriminator 1
	lbu	$3,0($4)
	.loc 1 259 0 is_stmt 1 discriminator 1
	addiu	$5,$3,-48
	.loc 1 261 0 discriminator 1
	addiu	$6,$3,-97
	.loc 1 259 0 discriminator 1
	sltu	$7,$5,10
	.loc 1 256 0 discriminator 1
	bne	$3,$0,$L315
	sltu	$6,$6,6

	j	$31
	nop

$L316:
	.loc 1 270 0
	j	$31
	li	$2,-1			# 0xffffffffffffffff

	.set	macro
	.set	reorder
	.end	str2hexnum
	.cfi_endproc
$LFE3305:
	.size	str2hexnum, .-str2hexnum
	.align	2
	.globl	filter_table_head_init
$LFB3311 = .
	.loc 1 567 0
	.cfi_startproc
	.set	nomips16
	.ent	filter_table_head_init
	.type	filter_table_head_init, @function
filter_table_head_init:
	.frame	$sp,0,$31		# vars= 0, regs= 0/0, args= 0, gp= 0
	.mask	0x00000000,0
	.fmask	0x00000000,0
	.set	noreorder
	.set	nomacro
$LBB777 = .
	.loc 1 568 0
	lui	$4,%hi(table_list_head)
$LBE777 = .
$LBB778 = .
$LBB779 = .
	.file 9 "include/linux/list.h"
	.loc 9 26 0
	lui	$3,%hi(table_list_head+8)
$LBE779 = .
$LBE778 = .
$LBB781 = .
	.loc 1 568 0
	addiu	$2,$4,%lo(table_list_head)
$LBE781 = .
$LBB782 = .
$LBB780 = .
	.loc 9 26 0
	addiu	$3,$3,%lo(table_list_head+8)
	sw	$3,8($2)
	.loc 9 27 0
	sw	$3,12($2)
$LBE780 = .
$LBE782 = .
	.loc 1 575 0
	li	$3,1			# 0x1
$LBB783 = .
	.loc 1 568 0
	sw	$0,16($2)
	sw	$0,20($2)
	sw	$0,28($2)
$LBE783 = .
$LBB784 = .
$LBB785 = .
	.loc 9 26 0
	sw	$2,%lo(table_list_head)($4)
	.loc 9 27 0
	sw	$2,4($2)
$LBE785 = .
$LBE784 = .
	.loc 1 575 0
	sw	$3,24($2)
	.loc 1 578 0
	j	$31
	move	$2,$0

	.set	macro
	.set	reorder
	.end	filter_table_head_init
	.cfi_endproc
$LFE3311:
	.size	filter_table_head_init, .-filter_table_head_init
	.align	2
	.globl	filter_table_regist
$LFB3312 = .
	.loc 1 581 0
	.cfi_startproc
	.set	nomips16
	.ent	filter_table_regist
	.type	filter_table_regist, @function
filter_table_regist:
	.frame	$sp,40,$31		# vars= 0, regs= 5/0, args= 16, gp= 0
	.mask	0x800f0000,-4
	.fmask	0x00000000,0
	.set	noreorder
	.set	nomacro
	addiu	$sp,$sp,-40
	.cfi_def_cfa_offset 40
	sw	$17,24($sp)
	.cfi_offset 17, -16
	.loc 1 584 0
	lui	$17,%hi(table_list_head)
	.loc 1 581 0
	sw	$16,20($sp)
	.cfi_offset 16, -20
	.loc 1 584 0
	addiu	$16,$17,%lo(table_list_head)
	lw	$2,24($16)
	.loc 1 581 0
	sw	$19,32($sp)
	sw	$18,28($sp)
	sw	$31,36($sp)
	.cfi_offset 19, -8
	.cfi_offset 18, -12
	.cfi_offset 31, -4
	.loc 1 581 0
	move	$19,$4
	.loc 1 584 0
	bne	$2,$0,$L319
	move	$18,$5

	.loc 1 586 0
	jal	filter_table_head_init
	nop

$L319:
$LBB786 = .
$LBB787 = .
	.loc 3 170 0
	lui	$2,%hi(kmalloc_caches+28)
$LBB788 = .
$LBB789 = .
	.loc 3 142 0
	lw	$4,%lo(kmalloc_caches+28)($2)
	jal	kmem_cache_alloc
	li	$5,208			# 0xd0

$LBE789 = .
$LBE788 = .
$LBE787 = .
$LBE786 = .
$LBB790 = .
$LBB791 = .
	.loc 9 26 0
	sw	$2,0($2)
$LBE791 = .
$LBE790 = .
$LBB792 = .
$LBB793 = .
	.loc 9 62 0
	lw	$3,%lo(table_list_head)($17)
$LBE793 = .
$LBE792 = .
	.loc 1 596 0
	addiu	$6,$2,8
	.loc 1 593 0
	li	$4,1			# 0x1
	.loc 1 591 0
	sw	$19,16($2)
	.loc 1 592 0
	sw	$0,20($2)
	.loc 1 593 0
	sw	$4,24($2)
$LBB800 = .
$LBB801 = .
	.loc 9 26 0
	sw	$6,8($2)
	.loc 9 27 0
	sw	$6,12($2)
$LBE801 = .
$LBE800 = .
	.loc 1 594 0
	sw	$18,28($2)
$LBB802 = .
$LBB798 = .
$LBB794 = .
$LBB795 = .
	.loc 9 41 0
	sw	$2,4($3)
	.loc 9 42 0
	sw	$3,0($2)
	.loc 9 43 0
	sw	$16,4($2)
$LBE795 = .
$LBE794 = .
$LBE798 = .
$LBE802 = .
	.loc 1 599 0
	lw	$3,24($16)
	.loc 1 601 0
	lw	$31,36($sp)
$LBB803 = .
$LBB799 = .
$LBB797 = .
$LBB796 = .
	.loc 9 44 0
	sw	$2,%lo(table_list_head)($17)
$LBE796 = .
$LBE797 = .
$LBE799 = .
$LBE803 = .
	.loc 1 599 0
	addiu	$3,$3,1
	.loc 1 601 0
	lw	$19,32($sp)
	lw	$18,28($sp)
	lw	$17,24($sp)
	move	$2,$0
	.loc 1 599 0
	sw	$3,24($16)
	.loc 1 601 0
	lw	$16,20($sp)
	j	$31
	addiu	$sp,$sp,40

	.cfi_def_cfa_offset 0
	.cfi_restore 16
	.cfi_restore 17
	.cfi_restore 18
	.cfi_restore 19
	.cfi_restore 31
	.set	macro
	.set	reorder
	.end	filter_table_regist
	.cfi_endproc
$LFE3312:
	.size	filter_table_regist, .-filter_table_regist
	.align	2
	.globl	filter_table_flush
$LFB3313 = .
	.loc 1 604 0
	.cfi_startproc
	.set	nomips16
	.ent	filter_table_flush
	.type	filter_table_flush, @function
filter_table_flush:
	.frame	$sp,56,$31		# vars= 0, regs= 9/0, args= 16, gp= 0
	.mask	0x80ff0000,-4
	.fmask	0x00000000,0
	.set	noreorder
	.set	nomacro
	addiu	$sp,$sp,-56
	.cfi_def_cfa_offset 56
	sw	$21,40($sp)
	.cfi_offset 21, -16
$LBB804 = .
	.loc 1 612 0
	lui	$21,%hi(table_list_head)
$LBE804 = .
	.loc 1 604 0
	sw	$17,24($sp)
	.cfi_offset 17, -32
$LBB805 = .
	.loc 1 612 0
	lw	$17,%lo(table_list_head)($21)
$LBE805 = .
	.loc 1 604 0
	sw	$23,48($sp)
	sw	$20,36($sp)
	sw	$19,32($sp)
	sw	$31,52($sp)
	sw	$22,44($sp)
	sw	$18,28($sp)
	sw	$16,20($sp)
	.cfi_offset 23, -8
	.cfi_offset 20, -20
	.cfi_offset 19, -24
	.cfi_offset 31, -4
	.cfi_offset 22, -12
	.cfi_offset 18, -28
	.cfi_offset 16, -36
$LBB806 = .
$LBB807 = .
	.loc 9 107 0
	li	$20,1048576			# 0x100000
	.loc 9 108 0
	li	$19,2097152			# 0x200000
$LBE807 = .
$LBE806 = .
$LBB812 = .
	.loc 1 612 0
	lw	$22,0($17)
	addiu	$21,$21,%lo(table_list_head)
$LBE812 = .
$LBB813 = .
$LBB810 = .
	.loc 9 107 0
	addiu	$20,$20,256
	.loc 9 108 0
	addiu	$19,$19,512
$LBE810 = .
$LBE813 = .
	.loc 1 612 0
	j	$L322
	li	$23,3			# 0x3

$L326:
$LBB814 = .
	.loc 1 614 0
	lw	$2,8($17)
$LBE814 = .
	j	$L323
	lw	$16,0($2)

$L324:
$LBB815 = .
$LBB811 = .
	.loc 9 106 0 discriminator 2
	lw	$3,4($2)
	lw	$5,0($2)
$LBB808 = .
$LBB809 = .
	.loc 9 88 0 discriminator 2
	sw	$3,4($5)
	.loc 9 89 0 discriminator 2
	sw	$5,0($3)
$LBE809 = .
$LBE808 = .
	.loc 9 107 0 discriminator 2
	sw	$20,0($2)
$LBE811 = .
$LBE815 = .
	.loc 1 617 0 discriminator 2
	jal	kfree
	sw	$19,4($2)

	.loc 1 618 0 discriminator 2
	lw	$3,24($17)
	.loc 1 614 0 discriminator 2
	move	$2,$16
	.loc 1 618 0 discriminator 2
	addiu	$3,$3,-1
	sw	$3,24($17)
	.loc 1 614 0 discriminator 2
	lw	$16,0($16)
$L323:
	.loc 1 614 0 is_stmt 0 discriminator 1
	bne	$2,$18,$L324
	move	$4,$2

	.loc 1 621 0 is_stmt 1
	lw	$2,16($17)
	bne	$2,$23,$L325
	li	$2,1			# 0x1

	.loc 1 621 0 is_stmt 0 discriminator 1
	lw	$3,24($17)
	bne	$3,$2,$L325
	nop

$LBB816 = .
	.loc 1 624 0 is_stmt 1
	jal	Del_Pattern_ACL_For_ContentFilter
	nop

$L325:
$LBE816 = .
$LBB817 = .
$LBB818 = .
	.loc 9 106 0
	lw	$2,4($17)
	lw	$3,0($17)
$LBE818 = .
$LBE817 = .
	.loc 1 627 0
	move	$4,$17
$LBB822 = .
$LBB821 = .
$LBB819 = .
$LBB820 = .
	.loc 9 88 0
	sw	$2,4($3)
	.loc 9 89 0
	sw	$3,0($2)
$LBE820 = .
$LBE819 = .
	.loc 9 107 0
	sw	$20,0($17)
$LBE821 = .
$LBE822 = .
	.loc 1 627 0
	jal	kfree
	sw	$19,4($17)

	.loc 1 628 0
	lw	$2,24($21)
	.loc 1 612 0
	move	$17,$22
	.loc 1 628 0
	addiu	$2,$2,-1
	sw	$2,24($21)
	.loc 1 612 0
	lw	$22,0($22)
$L322:
	.loc 1 612 0 is_stmt 0 discriminator 1
	bne	$17,$21,$L326
	addiu	$18,$17,8

	.loc 1 631 0 is_stmt 1
	lui	$2,%hi(filter_rule_num)
	.loc 1 635 0
	lw	$31,52($sp)
	.loc 1 631 0
	li	$3,1			# 0x1
	sw	$3,%lo(filter_rule_num)($2)
	.loc 1 632 0
	lui	$2,%hi(log_enable)
	sw	$0,%lo(log_enable)($2)
	.loc 1 633 0
	lui	$2,%hi(url_filter_mode)
	.loc 1 635 0
	lw	$23,48($sp)
	lw	$22,44($sp)
	lw	$21,40($sp)
	lw	$20,36($sp)
	lw	$19,32($sp)
	lw	$18,28($sp)
	lw	$17,24($sp)
	lw	$16,20($sp)
	.loc 1 633 0
	sw	$0,%lo(url_filter_mode)($2)
	.loc 1 635 0
	move	$2,$0
	j	$31
	addiu	$sp,$sp,56

	.cfi_def_cfa_offset 0
	.cfi_restore 16
	.cfi_restore 17
	.cfi_restore 18
	.cfi_restore 19
	.cfi_restore 20
	.cfi_restore 21
	.cfi_restore 22
	.cfi_restore 23
	.cfi_restore 31
	.set	macro
	.set	reorder
	.end	filter_table_flush
	.cfi_endproc
$LFE3313:
	.size	filter_table_flush, .-filter_table_flush
	.align	2
	.globl	filter_item_regist
$LFB3314 = .
	.loc 1 639 0
	.cfi_startproc
	.set	nomips16
	.ent	filter_item_regist
	.type	filter_item_regist, @function
filter_item_regist:
	.frame	$sp,24,$31		# vars= 0, regs= 2/0, args= 16, gp= 0
	.mask	0x80010000,-4
	.fmask	0x00000000,0
	.set	noreorder
	.set	nomacro
	addiu	$sp,$sp,-24
	.cfi_def_cfa_offset 24
	.loc 1 643 0
	lui	$6,%hi(table_list_head)
	lw	$3,%lo(table_list_head)($6)
	.loc 1 639 0
	sw	$31,20($sp)
	sw	$16,16($sp)
	.cfi_offset 31, -4
	.cfi_offset 16, -8
	.loc 1 643 0
	j	$L329
	addiu	$6,$6,%lo(table_list_head)

$L332:
	.loc 1 646 0
	lw	$2,16($3)
	bne	$2,$4,$L330
	nop

$LBB823 = .
$LBB824 = .
	.loc 9 62 0
	lw	$2,8($3)
$LBE824 = .
$LBE823 = .
	.loc 1 648 0
	addiu	$6,$3,8
$LBB831 = .
$LBB829 = .
$LBB825 = .
$LBB826 = .
	.loc 9 41 0
	sw	$5,4($2)
	.loc 9 42 0
	sw	$2,0($5)
	.loc 9 43 0
	sw	$6,4($5)
$LBE826 = .
$LBE825 = .
$LBE829 = .
$LBE831 = .
	.loc 1 649 0
	lw	$2,24($3)
$LBB832 = .
$LBB830 = .
$LBB828 = .
$LBB827 = .
	.loc 9 44 0
	sw	$5,8($3)
$LBE827 = .
$LBE828 = .
$LBE830 = .
$LBE832 = .
	.loc 1 649 0
	addiu	$2,$2,1
	sw	$2,24($3)
	.loc 1 650 0
	li	$3,3			# 0x3
	bne	$4,$3,$L331
	move	$16,$0

	.loc 1 650 0 is_stmt 0 discriminator 1
	li	$3,2			# 0x2
	bne	$2,$3,$L331
	nop

$LBB833 = .
	.loc 1 653 0 is_stmt 1
	jal	Add_Pattern_ACL_For_ContentFilter
	nop

$LBE833 = .
	.loc 1 660 0
	j	$L336
	lw	$31,20($sp)

$L330:
	.loc 1 643 0
	lw	$3,0($3)
$L329:
	.loc 1 643 0 is_stmt 0 discriminator 1
	bne	$3,$6,$L332
	li	$16,-1			# 0xffffffffffffffff

$L331:
	.loc 1 660 0 is_stmt 1
	lw	$31,20($sp)
$L336:
	move	$2,$16
	lw	$16,16($sp)
	j	$31
	addiu	$sp,$sp,24

	.cfi_def_cfa_offset 0
	.cfi_restore 16
	.cfi_restore 31
	.set	macro
	.set	reorder
	.end	filter_item_regist
	.cfi_endproc
$LFE3314:
	.size	filter_item_regist, .-filter_item_regist
	.align	2
	.globl	check_esc_end
$LFB3315 = .
	.loc 1 666 0
	.cfi_startproc
	.set	nomips16
	.ent	check_esc_end
	.type	check_esc_end, @function
check_esc_end:
	.frame	$sp,32,$31		# vars= 0, regs= 3/0, args= 16, gp= 0
	.mask	0x80030000,-4
	.fmask	0x00000000,0
	.set	noreorder
	.set	nomacro
	addiu	$sp,$sp,-32
	.cfi_def_cfa_offset 32
	sw	$17,24($sp)
	sw	$16,20($sp)
	sw	$31,28($sp)
	.cfi_offset 17, -8
	.cfi_offset 16, -12
	.cfi_offset 31, -4
	.loc 1 666 0
	move	$16,$4
	.loc 1 667 0
	jal	strlen
	seb	$17,$5

	.loc 1 669 0
	addiu	$2,$2,-1
	j	$L338
	move	$3,$0

$L340:
	.loc 1 671 0
	lb	$6,0($6)
	beq	$6,$17,$L339
	addiu	$2,$2,-1

	.loc 1 677 0
	srl	$4,$3,31
$L344:
	addu	$2,$3,$4
	andi	$2,$2,0x1
	subu	$2,$2,$4
	.loc 1 678 0
	lw	$31,28($sp)
	lw	$17,24($sp)
	lw	$16,20($sp)
	j	$31
	addiu	$sp,$sp,32

	.cfi_remember_state
	.cfi_def_cfa_offset 0
	.cfi_restore 16
	.cfi_restore 17
	.cfi_restore 31
$L339:
	.cfi_restore_state
	.loc 1 672 0
	addiu	$3,$3,1
$L338:
	.loc 1 669 0 discriminator 1
	bgez	$2,$L340
	addu	$6,$16,$2

	.loc 1 677 0
	j	$L344
	srl	$4,$3,31

	.set	macro
	.set	reorder
	.end	check_esc_end
	.cfi_endproc
$LFE3315:
	.size	check_esc_end, .-check_esc_end
	.section	.rodata.str1.4
	.align	2
$LC19:
	.ascii	"init\000"
	.align	2
$LC20:
	.ascii	" \000"
	.align	2
$LC21:
	.ascii	"flush\000"
	.align	2
$LC22:
	.ascii	"enable_log\000"
	.align	2
$LC23:
	.ascii	"white\000"
	.align	2
$LC24:
	.ascii	"black\000"
	.align	2
$LC25:
	.ascii	"add:\000"
	.align	2
$LC26:
	.ascii	"#\000"
	.align	2
$LC27:
	.ascii	";\000"
	.text
	.align	2
$LFB3319 = .
	.loc 1 1173 0
	.cfi_startproc
	.set	nomips16
	.ent	filter_table_single_write
	.type	filter_table_single_write, @function
filter_table_single_write:
	.frame	$sp,72,$31		# vars= 16, regs= 10/0, args= 16, gp= 0
	.mask	0xc0ff0000,-4
	.fmask	0x00000000,0
	addiu	$sp,$sp,-72
	.cfi_def_cfa_offset 72
	sw	$19,44($sp)
	.cfi_offset 19, -28
$LBB859 = .
$LBB860 = .
$LBB861 = .
$LBB862 = .
	.loc 3 170 0
	lui	$19,%hi(kmalloc_caches)
$LBE862 = .
$LBE861 = .
$LBE860 = .
$LBE859 = .
	.loc 1 1173 0
	sw	$18,40($sp)
	sw	$17,36($sp)
	sw	$16,32($sp)
	sw	$31,68($sp)
	sw	$fp,64($sp)
	sw	$23,60($sp)
	sw	$22,56($sp)
	sw	$21,52($sp)
	sw	$20,48($sp)
	.cfi_offset 18, -32
	.cfi_offset 17, -36
	.cfi_offset 16, -40
	.cfi_offset 31, -4
	.cfi_offset 30, -8
	.cfi_offset 23, -12
	.cfi_offset 22, -16
	.cfi_offset 21, -20
	.cfi_offset 20, -24
$LBB901 = .
$LBB890 = .
$LBB869 = .
$LBB867 = .
	.loc 3 170 0
	addiu	$19,$19,%lo(kmalloc_caches)
$LBB863 = .
$LBB864 = .
	.loc 3 142 0
	lw	$4,40($19)
$LBE864 = .
$LBE863 = .
$LBE867 = .
$LBE869 = .
$LBE890 = .
$LBE901 = .
	.loc 1 1173 0
	move	$17,$5
$LBB902 = .
$LBB891 = .
$LBB870 = .
$LBB868 = .
$LBB866 = .
$LBB865 = .
	.loc 3 142 0
	li	$5,208			# 0xd0
	.set	noreorder
	.set	nomacro
	jal	kmem_cache_alloc
	move	$18,$6
	.set	macro
	.set	reorder

$LBE865 = .
$LBE866 = .
$LBE868 = .
$LBE870 = .
	.loc 1 703 0
	.set	noreorder
	.set	nomacro
	beq	$2,$0,$L376
	move	$16,$2
	.set	macro
	.set	reorder

$LBB871 = .
	.loc 1 705 0
	move	$5,$0
	li	$6,1024			# 0x400
	move	$4,$2
	.set	noreorder
	.set	nomacro
	jal	memset
	lui	$20,%hi(get_info_from_usr_space)
	.set	macro
	.set	reorder

$LBE871 = .
$LBB872 = .
	.loc 1 708 0
	addiu	$4,$20,%lo(get_info_from_usr_space)
	move	$21,$4
	.set	noreorder
	.set	nomacro
	jal	strlen
	sw	$16,16($sp)
	.set	macro
	.set	reorder

	move	$6,$2
	move	$4,$21
	.set	noreorder
	.set	nomacro
	jal	memset
	move	$5,$0
	.set	macro
	.set	reorder

$LBE872 = .
	.loc 1 709 0
	.set	noreorder
	.set	nomacro
	beq	$17,$0,$L347
	or	$3,$17,$18
	.set	macro
	.set	reorder

$LBB873 = .
$LBB874 = .
	addu	$2,$17,$18
	or	$2,$3,$2
	lw	$3,24($28)
	and	$2,$2,$3
$LBE874 = .
	.set	noreorder
	.set	nomacro
	bne	$2,$0,$L377
	move	$4,$21
	.set	macro
	.set	reorder

$LBB875 = .
	move	$5,$17
	move	$6,$18
#APP
 # 709 "/home/extra_home/marklee/rtk_OpenWRT_BB/BB_v1407/0629_co_2.4_pre_release/svn_test/rtk_BarrierBreaker_v14.07.x/build_dir/target-mips_24kec_uClibc-0.9.33.2/linux-rtkmips_rtl8198c/fastpath-0.1/filter_v2.c" 1
	.set	noreorder
	.set	noat
	la	$1, __copy_user
	jalr	$1
	.set	at
	.set	noat
	addu	$1, $5, $6
	.set	at
	.set	reorder
 # 0 "" 2
#NO_APP
	j	$L348
$L377:
$LBE875 = .
	move	$6,$18
$L348:
$LBE873 = .
	bne	$6,$0,$L347
$LBB876 = .
$LBB877 = .
	.loc 8 49 0
	.set	noreorder
	.set	nomacro
	beq	$18,$0,$L349
	move	$2,$16
	.set	macro
	.set	reorder

	.loc 8 52 0
	move	$3,$18
#APP
 # 52 "/home/extra_home/marklee/rtk_OpenWRT_BB/BB_v1407/0629_co_2.4_pre_release/svn_test/rtk_BarrierBreaker_v14.07.x/build_dir/target-mips_24kec_uClibc-0.9.33.2/linux-rtkmips_rtl8198c/linux-3.10.49/arch/mips/include/asm/string.h" 1
	.set	noreorder
	.set	noat
1:	lbu	$1,($21)
	subu	$3,1
	sb	$1,($2)
	beqz	$1,2f
	addiu	$2,1
	bnez	$3,1b
	addiu	$21,1
2:
	.set	at
	.set	reorder
 # 0 "" 2
#NO_APP
$L349:
$LBE877 = .
$LBE876 = .
	.loc 1 712 0
	.set	noreorder
	.set	nomacro
	jal	strlen
	addiu	$4,$20,%lo(get_info_from_usr_space)
	.set	macro
	.set	reorder

	addu	$2,$16,$2
	sb	$0,-1($2)
	.loc 1 714 0
	lw	$20,16($sp)
	lui	$17,%hi($LC19)
	.set	noreorder
	.set	nomacro
	jal	strlen
	addiu	$4,$17,%lo($LC19)
	.set	macro
	.set	reorder

	move	$6,$2
	move	$4,$20
	.set	noreorder
	.set	nomacro
	jal	memcmp
	addiu	$5,$17,%lo($LC19)
	.set	macro
	.set	reorder

	.set	noreorder
	.set	nomacro
	bne	$2,$0,$L350
	lui	$17,%hi($LC21)
	.set	macro
	.set	reorder

	.loc 1 717 0
	lui	$23,%hi($LC20)
	addiu	$17,$sp,16
	move	$4,$17
	.set	noreorder
	.set	nomacro
	jal	strsep
	addiu	$5,$23,%lo($LC20)
	.set	macro
	.set	reorder

	.loc 1 720 0
	lw	$2,16($sp)
	.set	noreorder
	.set	nomacro
	beq	$2,$0,$L347
	lui	$19,%hi(filter_tlb)
	.set	macro
	.set	reorder

	addiu	$19,$19,%lo(filter_tlb)
	.loc 1 721 0
	addiu	$23,$23,%lo($LC20)
	move	$5,$23
$L414:
	.set	noreorder
	.set	nomacro
	jal	strsep
	move	$4,$17
	.set	macro
	.set	reorder

	.loc 1 722 0
	.set	noreorder
	.set	nomacro
	jal	str2hexnum
	move	$4,$2
	.set	macro
	.set	reorder

	.loc 1 724 0
	sll	$3,$2,3
	addu	$3,$19,$3
	lw	$5,4($3)
	.set	noreorder
	.set	nomacro
	jal	filter_table_regist
	move	$4,$2
	.set	macro
	.set	reorder

	.loc 1 725 0
	lw	$2,16($sp)
	.set	noreorder
	.set	nomacro
	bne	$2,$0,$L414
	move	$5,$23
	.set	macro
	.set	reorder

	j	$L352
$L350:
	.loc 1 727 0
	lw	$20,16($sp)
	.set	noreorder
	.set	nomacro
	jal	strlen
	addiu	$4,$17,%lo($LC21)
	.set	macro
	.set	reorder

	move	$6,$2
	move	$4,$20
	.set	noreorder
	.set	nomacro
	jal	memcmp
	addiu	$5,$17,%lo($LC21)
	.set	macro
	.set	reorder

	.set	noreorder
	.set	nomacro
	bne	$2,$0,$L353
	lw	$20,16($sp)
	.set	macro
	.set	reorder

	.loc 1 730 0
	.set	noreorder
	.set	nomacro
	jal	filter_table_flush
	move	$4,$0
	.set	macro
	.set	reorder

	j	$L352
$L353:
	.loc 1 732 0
	lui	$17,%hi($LC22)
	.set	noreorder
	.set	nomacro
	jal	strlen
	addiu	$4,$17,%lo($LC22)
	.set	macro
	.set	reorder

	move	$6,$2
	move	$4,$20
	.set	noreorder
	.set	nomacro
	jal	memcmp
	addiu	$5,$17,%lo($LC22)
	.set	macro
	.set	reorder

	.set	noreorder
	.set	nomacro
	bne	$2,$0,$L354
	li	$3,1			# 0x1
	.set	macro
	.set	reorder

	.loc 1 734 0
	lui	$2,%hi(log_enable)
$LBE891 = .
$LBE902 = .
	.set	noreorder
	.set	nomacro
	j	$L352
	sw	$3,%lo(log_enable)($2)
	.set	macro
	.set	reorder

$L354:
$LBB903 = .
$LBB892 = .
	.loc 1 736 0
	lw	$20,16($sp)
	lui	$17,%hi($LC23)
	.set	noreorder
	.set	nomacro
	jal	strlen
	addiu	$4,$17,%lo($LC23)
	.set	macro
	.set	reorder

	move	$6,$2
	move	$4,$20
	.set	noreorder
	.set	nomacro
	jal	memcmp
	addiu	$5,$17,%lo($LC23)
	.set	macro
	.set	reorder

	.set	noreorder
	.set	nomacro
	bne	$2,$0,$L355
	li	$3,1			# 0x1
	.set	macro
	.set	reorder

	.loc 1 738 0
	lui	$2,%hi(url_filter_mode)
$LBE892 = .
$LBE903 = .
	.set	noreorder
	.set	nomacro
	j	$L352
	sw	$3,%lo(url_filter_mode)($2)
	.set	macro
	.set	reorder

$L355:
$LBB904 = .
$LBB893 = .
	.loc 1 740 0
	lw	$20,16($sp)
	lui	$17,%hi($LC24)
	.set	noreorder
	.set	nomacro
	jal	strlen
	addiu	$4,$17,%lo($LC24)
	.set	macro
	.set	reorder

	move	$6,$2
	move	$4,$20
	.set	noreorder
	.set	nomacro
	jal	memcmp
	addiu	$5,$17,%lo($LC24)
	.set	macro
	.set	reorder

	.set	noreorder
	.set	nomacro
	bne	$2,$0,$L356
	lui	$2,%hi(url_filter_mode)
	.set	macro
	.set	reorder

$LBE893 = .
$LBE904 = .
	.loc 1 742 0
	.set	noreorder
	.set	nomacro
	j	$L352
	sw	$0,%lo(url_filter_mode)($2)
	.set	macro
	.set	reorder

$L356:
$LBB905 = .
$LBB894 = .
	.loc 1 754 0
	lw	$20,16($sp)
	lui	$17,%hi($LC25)
	.set	noreorder
	.set	nomacro
	jal	strlen
	addiu	$4,$17,%lo($LC25)
	.set	macro
	.set	reorder

	move	$6,$2
	move	$4,$20
	.set	noreorder
	.set	nomacro
	jal	memcmp
	addiu	$5,$17,%lo($LC25)
	.set	macro
	.set	reorder

	.set	noreorder
	.set	nomacro
	bne	$2,$0,$L352
	lw	$20,16($sp)
	.set	macro
	.set	reorder

	.loc 1 758 0
	.set	noreorder
	.set	nomacro
	jal	strlen
	addiu	$4,$17,%lo($LC25)
	.set	macro
	.set	reorder

	addu	$2,$20,$2
	sw	$2,16($sp)
	.loc 1 759 0
	lb	$2,0($2)
	.set	noreorder
	.set	nomacro
	beq	$2,$0,$L347
	addiu	$17,$sp,16
	.set	macro
	.set	reorder

	.loc 1 762 0
	lui	$5,%hi($LC26)
	move	$4,$17
	.set	noreorder
	.set	nomacro
	jal	strsep
	addiu	$5,$5,%lo($LC26)
	.set	macro
	.set	reorder

	.loc 1 763 0
	lw	$3,16($sp)
	beq	$3,$0,$L347
	.loc 1 764 0
	.set	noreorder
	.set	nomacro
	jal	str2hexnum
	move	$4,$2
	.set	macro
	.set	reorder

	li	$3,-1			# 0xffffffffffffffff
	.set	noreorder
	.set	nomacro
	beq	$2,$3,$L347
	lui	$23,%hi($LC20)
	.set	macro
	.set	reorder

	.loc 1 768 0
	move	$4,$17
	.set	noreorder
	.set	nomacro
	jal	strsep
	addiu	$5,$23,%lo($LC20)
	.set	macro
	.set	reorder

	.loc 1 769 0
	lw	$3,16($sp)
	beq	$3,$0,$L347
	.loc 1 770 0
	.set	noreorder
	.set	nomacro
	jal	str2hexnum
	move	$4,$2
	.set	macro
	.set	reorder

	li	$20,-1			# 0xffffffffffffffff
	.set	noreorder
	.set	nomacro
	beq	$2,$20,$L347
	move	$4,$17
	.set	macro
	.set	reorder

	.loc 1 775 0
	.set	noreorder
	.set	nomacro
	jal	strsep
	addiu	$5,$23,%lo($LC20)
	.set	macro
	.set	reorder

	.loc 1 776 0
	lw	$3,16($sp)
	beq	$3,$0,$L347
	.loc 1 777 0
	.set	noreorder
	.set	nomacro
	jal	str2hexnum
	move	$4,$2
	.set	macro
	.set	reorder

	.set	noreorder
	.set	nomacro
	beq	$2,$20,$L347
	sw	$2,24($sp)
	.set	macro
	.set	reorder

	.loc 1 782 0
	lui	$22,%hi($LC27)
	addiu	$22,$22,%lo($LC27)
	.loc 1 785 0
	li	$fp,59			# 0x3b
	.loc 1 793 0
	addiu	$23,$23,%lo($LC20)
	.loc 1 782 0
	move	$4,$17
$L416:
	.set	noreorder
	.set	nomacro
	jal	strsep
	move	$5,$22
	.set	macro
	.set	reorder

	sw	$2,20($sp)
$LBE894 = .
$LBE905 = .
	.set	noreorder
	.set	nomacro
	j	$L358
	move	$4,$2
	.set	macro
	.set	reorder

$L361:
$LBB906 = .
$LBB895 = .
	.loc 1 785 0
	.set	noreorder
	.set	nomacro
	jal	strlen
	move	$4,$20
	.set	macro
	.set	reorder

	addu	$2,$20,$2
	sb	$fp,0($2)
	.loc 1 786 0
	move	$4,$17
	.set	noreorder
	.set	nomacro
	jal	strsep
	move	$5,$22
	.set	macro
	.set	reorder

	.loc 1 787 0
	lw	$2,16($sp)
	.set	noreorder
	.set	nomacro
	bne	$2,$0,$L359
	lw	$4,20($sp)
	.set	macro
	.set	reorder

	.loc 1 793 0
	addiu	$4,$sp,20
$L413:
	.set	noreorder
	.set	nomacro
	jal	strsep
	move	$5,$23
	.set	macro
	.set	reorder

	move	$20,$2
	.loc 1 794 0
	lw	$2,20($sp)
	.set	noreorder
	.set	nomacro
	bne	$2,$0,$L415
	move	$4,$20
	.set	macro
	.set	reorder

	j	$L347
$L359:
$L358:
	.loc 1 783 0
	.set	noreorder
	.set	nomacro
	jal	check_esc_end
	li	$5,92			# 0x5c
	.set	macro
	.set	reorder

	.set	noreorder
	.set	nomacro
	bne	$2,$0,$L361
	lw	$20,20($sp)
	.set	macro
	.set	reorder

$LBE895 = .
$LBE906 = .
	.loc 1 793 0
	.set	noreorder
	.set	nomacro
	j	$L413
	addiu	$4,$sp,20
	.set	macro
	.set	reorder

$L364:
$LBB907 = .
$LBB896 = .
	.loc 1 798 0
	jal	strlen
	addu	$2,$20,$2
	li	$3,32			# 0x20
	sb	$3,0($2)
	.loc 1 800 0
	addiu	$4,$sp,20
	.set	noreorder
	.set	nomacro
	jal	strsep
	move	$5,$23
	.set	macro
	.set	reorder

	.loc 1 795 0
	move	$4,$20
$L415:
	.set	noreorder
	.set	nomacro
	jal	check_esc_end
	li	$5,92			# 0x5c
	.set	macro
	.set	reorder

	.set	noreorder
	.set	nomacro
	bne	$2,$0,$L364
	move	$4,$20
	.set	macro
	.set	reorder

	move	$5,$20
	move	$6,$0
$LBE896 = .
$LBE907 = .
	.loc 1 808 0
	.set	noreorder
	.set	nomacro
	j	$L365
	li	$7,92			# 0x5c
	.set	macro
	.set	reorder

$L369:
$LBB908 = .
$LBB897 = .
	.set	noreorder
	.set	nomacro
	bne	$2,$7,$L366
	move	$2,$5
	.set	macro
	.set	reorder

$LBE897 = .
$LBE908 = .
	.set	noreorder
	.set	nomacro
	j	$L367
	move	$4,$6
	.set	macro
	.set	reorder

$L368:
$LBB909 = .
$LBB898 = .
	.loc 1 811 0
	sb	$3,0($2)
	.loc 1 810 0
	addiu	$4,$4,1
	addiu	$2,$2,1
$L367:
	lb	$3,1($2)
	bne	$3,$0,$L368
	.loc 1 812 0
	addu	$4,$20,$4
	sb	$0,0($4)
$L366:
	.loc 1 806 0
	addiu	$6,$6,1
	addiu	$5,$5,1
$L365:
	lb	$2,0($5)
	bne	$2,$0,$L369
$LBB878 = .
$LBB879 = .
$LBB880 = .
$LBB881 = .
	.loc 3 142 0
	lw	$4,28($19)
	.set	noreorder
	.set	nomacro
	jal	kmem_cache_alloc
	li	$5,208			# 0xd0
	.set	macro
	.set	reorder

$LBE881 = .
$LBE880 = .
$LBE879 = .
$LBE878 = .
	.loc 1 830 0
	.set	noreorder
	.set	nomacro
	beq	$2,$0,$L352
	move	$21,$2
	.set	macro
	.set	reorder

	.loc 1 837 0
	addiu	$2,$2,8
	.loc 1 839 0
	lui	$4,%hi(filter_rule_num)
	lw	$3,%lo(filter_rule_num)($4)
$LBB882 = .
$LBB883 = .
	.loc 9 26 0
	sw	$2,8($21)
	.loc 9 27 0
	sw	$2,12($21)
$LBE883 = .
$LBE882 = .
	.loc 1 855 0
	lw	$2,24($sp)
$LBB884 = .
$LBB885 = .
	.loc 9 26 0
	sw	$21,0($21)
	.loc 9 27 0
	sw	$21,4($21)
$LBE885 = .
$LBE884 = .
	.loc 1 838 0
	sw	$0,24($21)
	.loc 1 839 0
	sw	$3,20($21)
	.loc 1 855 0
	sw	$2,16($21)
	.loc 1 857 0
	.set	noreorder
	.set	nomacro
	jal	strlen
	move	$4,$20
	.set	macro
	.set	reorder

	sltu	$2,$2,41
	.set	noreorder
	.set	nomacro
	beq	$2,$0,$L371
	addiu	$3,$21,28
	.set	macro
	.set	reorder

	.set	noreorder
	.set	nomacro
	jal	strlen
	move	$4,$20
	.set	macro
	.set	reorder

$LBB886 = .
$LBB887 = .
	.loc 8 49 0
	.set	noreorder
	.set	nomacro
	beq	$2,$0,$L372
	addiu	$3,$21,28
	.set	macro
	.set	reorder

$LBE887 = .
$LBE886 = .
	.loc 1 858 0
	move	$4,$2
$L374:
$LBB889 = .
$LBB888 = .
	.loc 8 52 0
#APP
 # 52 "/home/extra_home/marklee/rtk_OpenWRT_BB/BB_v1407/0629_co_2.4_pre_release/svn_test/rtk_BarrierBreaker_v14.07.x/build_dir/target-mips_24kec_uClibc-0.9.33.2/linux-rtkmips_rtl8198c/linux-3.10.49/arch/mips/include/asm/string.h" 1
	.set	noreorder
	.set	noat
1:	lbu	$1,($20)
	subu	$4,1
	sb	$1,($3)
	beqz	$1,2f
	addiu	$3,1
	bnez	$4,1b
	addiu	$20,1
2:
	.set	at
	.set	reorder
 # 0 "" 2
#NO_APP
$L372:
$LBE888 = .
$LBE889 = .
	.loc 1 859 0
	addu	$2,$21,$2
	.loc 1 861 0
	li	$4,3			# 0x3
	.loc 1 859 0
	sb	$0,28($2)
	.loc 1 861 0
	.set	noreorder
	.set	nomacro
	jal	filter_item_regist
	move	$5,$21
	.set	macro
	.set	reorder

	.loc 1 862 0
	lui	$4,%hi(filter_rule_num)
	lw	$3,%lo(filter_rule_num)($4)
	.loc 1 863 0
	lw	$2,16($sp)
	.loc 1 862 0
	addiu	$3,$3,1
	.loc 1 863 0
	.set	noreorder
	.set	nomacro
	beq	$2,$0,$L352
	sw	$3,%lo(filter_rule_num)($4)
	.set	macro
	.set	reorder

	lb	$2,0($2)
	.set	noreorder
	.set	nomacro
	bne	$2,$0,$L416
	move	$4,$17
	.set	macro
	.set	reorder

$L352:
	.loc 1 1036 0
	.set	noreorder
	.set	nomacro
	jal	kfree
	move	$4,$16
	.set	macro
	.set	reorder

$LBE898 = .
$LBE909 = .
	.loc 1 709 0
	.set	noreorder
	.set	nomacro
	j	$L411
	move	$2,$18
	.set	macro
	.set	reorder

$L347:
$LBB910 = .
$LBB899 = .
	.loc 1 1040 0
	.set	noreorder
	.set	nomacro
	jal	kfree
	move	$4,$16
	.set	macro
	.set	reorder

$LBE899 = .
$LBE910 = .
	.loc 1 1041 0
	.set	noreorder
	.set	nomacro
	j	$L411
	li	$2,-14			# 0xfffffffffffffff2
	.set	macro
	.set	reorder

$L376:
	.loc 1 704 0
	.set	noreorder
	.set	nomacro
	j	$L411
	li	$2,-14			# 0xfffffffffffffff2
	.set	macro
	.set	reorder

$L371:
$LBB911 = .
$LBB900 = .
	.loc 1 858 0
	li	$4,39			# 0x27
$LBE900 = .
$LBE911 = .
	.loc 1 857 0
	.set	noreorder
	.set	nomacro
	j	$L374
	li	$2,39			# 0x27
	.set	macro
	.set	reorder

$L411:
	.loc 1 1175 0
	lw	$31,68($sp)
	lw	$fp,64($sp)
	lw	$23,60($sp)
	lw	$22,56($sp)
	lw	$21,52($sp)
	lw	$20,48($sp)
	lw	$19,44($sp)
	lw	$18,40($sp)
	lw	$17,36($sp)
	lw	$16,32($sp)
	.set	noreorder
	.set	nomacro
	j	$31
	addiu	$sp,$sp,72
	.set	macro
	.set	reorder

	.cfi_def_cfa_offset 0
	.cfi_restore 16
	.cfi_restore 17
	.cfi_restore 18
	.cfi_restore 19
	.cfi_restore 20
	.cfi_restore 21
	.cfi_restore 22
	.cfi_restore 23
	.cfi_restore 30
	.cfi_restore 31
	.end	filter_table_single_write
	.cfi_endproc
$LFE3319:
	.size	filter_table_single_write, .-filter_table_single_write
	.align	2
	.globl	scan_table
$LFB3320 = .
	.loc 1 1329 0
	.cfi_startproc
	.set	nomips16
	.ent	scan_table
	.type	scan_table, @function
scan_table:
	.frame	$sp,48,$31		# vars= 0, regs= 8/0, args= 16, gp= 0
	.mask	0x807f0000,-4
	.fmask	0x00000000,0
	.set	noreorder
	.set	nomacro
	addiu	$sp,$sp,-48
	.cfi_def_cfa_offset 48
	sw	$19,28($sp)
	.cfi_offset 19, -20
	.loc 1 1335 0
	lui	$19,%hi(url_filter_flag)
	.loc 1 1329 0
	sw	$17,20($sp)
	sw	$31,44($sp)
	sw	$22,40($sp)
	sw	$21,36($sp)
	sw	$20,32($sp)
	sw	$18,24($sp)
	sw	$16,16($sp)
	.cfi_offset 17, -28
	.cfi_offset 31, -4
	.cfi_offset 22, -8
	.cfi_offset 21, -12
	.cfi_offset 20, -16
	.cfi_offset 18, -24
	.cfi_offset 16, -32
	.loc 1 1329 0
	move	$17,$6
	.loc 1 1337 0
	beq	$6,$0,$L464
	sw	$0,%lo(url_filter_flag)($19)

	.loc 1 1337 0 is_stmt 0 discriminator 2
	lw	$2,28($6)
	beq	$2,$0,$L419
	li	$2,-1			# 0xffffffffffffffff

	.loc 1 1338 0 is_stmt 1
	lw	$2,24($6)
	sltu	$2,$2,2
	beq	$2,$0,$L421
	addiu	$18,$6,8

$L423:
	.loc 1 1430 0
	lui	$2,%hi(url_filter_mode)
	lw	$2,%lo(url_filter_mode)($2)
	bne	$2,$0,$L422
	nop

$L464:
	.loc 1 1433 0
	j	$L419
	li	$2,-1			# 0xffffffffffffffff

$L421:
$LBB912 = .
$LBB913 = .
	.loc 9 188 0 discriminator 1
	lw	$16,8($6)
	move	$22,$4
	move	$21,$5
$LBE913 = .
$LBE912 = .
	.loc 1 1338 0 discriminator 1
	beq	$18,$16,$L423
	move	$20,$7

$L432:
	.loc 1 1342 0
	lw	$2,16($16)
	andi	$3,$2,0x1
	bne	$3,$0,$L465
	andi	$3,$2,0x200

	.loc 1 1342 0 is_stmt 0 discriminator 1
	lw	$3,20($16)
	bne	$21,$3,$L425
	andi	$3,$2,0x200

$L465:
	.loc 1 1344 0 is_stmt 1
	beq	$3,$0,$L426
	nop

	.loc 1 1348 0
	andi	$2,$2,0x2
	beq	$2,$0,$L425
	lw	$6,0($20)

	.loc 1 1350 0
	beq	$6,$0,$L419
	li	$2,-1			# 0xffffffffffffffff

	.loc 1 1354 0
	lw	$5,20($16)
	move	$4,$22
	jal	scan_table
	move	$7,$6

	.loc 1 1358 0
	beq	$2,$0,$L425
	nop

$L422:
	.loc 1 1361 0
	j	$L419
	li	$2,1			# 0x1

$L426:
	.loc 1 1364 0
	andi	$3,$2,0x100
	bne	$3,$0,$L466
	andi	$3,$2,0x2

	.loc 1 1364 0 is_stmt 0 discriminator 1
	lw	$2,28($17)
	move	$4,$22
	jalr	$2
	addiu	$5,$16,28

	beq	$2,$0,$L425
	nop

	lw	$2,16($16)
	.loc 1 1366 0 is_stmt 1
	andi	$3,$2,0x2
$L466:
	bne	$3,$0,$L428
	andi	$3,$2,0x1

	.loc 1 1368 0
	beq	$3,$0,$L422
	nop

	j	$L463
	xori	$2,$2,0x8

$L428:
$LBB914 = .
	.loc 1 1382 0
	lw	$6,0($20)
$LBE914 = .
	.loc 1 1385 0
	beq	$6,$0,$L419
	li	$2,-1			# 0xffffffffffffffff

	.loc 1 1390 0
	lw	$5,20($16)
	move	$4,$22
	jal	scan_table
	move	$7,$6

	.loc 1 1393 0
	beq	$2,$0,$L425
	nop

	.loc 1 1395 0
	lw	$2,16($16)
	andi	$3,$2,0x1
	beq	$3,$0,$L429
	lui	$3,%hi(url_filter_mode)

	.loc 1 1397 0
	lw	$3,%lo(url_filter_mode)($3)
	bne	$3,$0,$L463
	nop

	.loc 1 1401 0
	xori	$2,$2,0x8
$L463:
	j	$L419
	ext	$2,$2,3,1

$L429:
	.loc 1 1406 0
	lui	$2,%hi(url_filter_mode)
	lw	$2,%lo(url_filter_mode)($2)
	j	$L419
	sltu	$2,$2,1

$L425:
	.loc 1 1339 0
	lw	$2,0($16)
	beq	$18,$2,$L431
	nop

	j	$L432
	move	$16,$2

$L431:
	.loc 1 1418 0
	beq	$16,$0,$L423
	lw	$2,%lo(url_filter_flag)($19)

	.loc 1 1437 0
	bne	$2,$0,$L419
	li	$2,1			# 0x1

	.loc 1 1440 0
	lw	$3,16($16)
	andi	$2,$3,0x1
	.loc 1 1443 0
	ext	$3,$3,3,1
	movz	$3,$0,$2
	move	$2,$3
$L419:
	.loc 1 1450 0
	lw	$31,44($sp)
	lw	$22,40($sp)
	lw	$21,36($sp)
	lw	$20,32($sp)
	lw	$19,28($sp)
	lw	$18,24($sp)
	lw	$17,20($sp)
	lw	$16,16($sp)
	j	$31
	addiu	$sp,$sp,48

	.cfi_def_cfa_offset 0
	.cfi_restore 16
	.cfi_restore 17
	.cfi_restore 18
	.cfi_restore 19
	.cfi_restore 20
	.cfi_restore 21
	.cfi_restore 22
	.cfi_restore 31
	.set	macro
	.set	reorder
	.end	scan_table
	.cfi_endproc
$LFE3320:
	.size	scan_table, .-scan_table
	.section	.rodata.str1.4
	.align	2
$LC28:
	.ascii	"Unkown Type [Blocked]\012\000"
	.text
	.align	2
	.globl	log_fastFilter
$LFB3321 = .
	.loc 1 1461 0
	.cfi_startproc
	.set	nomips16
	.ent	log_fastFilter
	.type	log_fastFilter, @function
log_fastFilter:
	.frame	$sp,40,$31		# vars= 8, regs= 3/0, args= 16, gp= 0
	.mask	0x80030000,-4
	.fmask	0x00000000,0
	.set	noreorder
	.set	nomacro
	addiu	$sp,$sp,-40
	.cfi_def_cfa_offset 40
	sw	$17,32($sp)
	sw	$16,28($sp)
	.cfi_offset 17, -8
	.cfi_offset 16, -12
	move	$17,$4
	move	$16,$5
	.loc 1 1467 0
	addiu	$4,$sp,16
	.loc 1 1461 0
	sw	$31,36($sp)
	.cfi_offset 31, -4
	.loc 1 1467 0
	jal	do_gettimeofday
	addiu	$17,$17,-1

	.loc 1 1473 0
	jal	rtl_ip_hdr
	move	$4,$16

	.loc 1 1475 0
	sltu	$17,$17,4
	.loc 1 1474 0
	jal	rtl_eth_hdr
	move	$4,$16

	.loc 1 1475 0
	bne	$17,$0,$L471
	lw	$31,36($sp)

	.loc 1 1543 0
	lui	$4,%hi($LC28)
	jal	printk
	addiu	$4,$4,%lo($LC28)

	.loc 1 1547 0
	lw	$31,36($sp)
$L471:
	lw	$17,32($sp)
	lw	$16,28($sp)
	move	$2,$0
	j	$31
	addiu	$sp,$sp,40

	.cfi_def_cfa_offset 0
	.cfi_restore 16
	.cfi_restore 17
	.cfi_restore 31
	.set	macro
	.set	reorder
	.end	log_fastFilter
	.cfi_endproc
$LFE3321:
	.size	log_fastFilter, .-log_fastFilter
	.align	2
	.globl	do_filter
$LFB3322 = .
	.loc 1 1549 0
	.cfi_startproc
	.set	nomips16
	.ent	do_filter
	.type	do_filter, @function
do_filter:
	.frame	$sp,40,$31		# vars= 0, regs= 6/0, args= 16, gp= 0
	.mask	0x801f0000,-4
	.fmask	0x00000000,0
	.set	noreorder
	.set	nomacro
	addiu	$sp,$sp,-40
	.cfi_def_cfa_offset 40
	sw	$18,24($sp)
	.cfi_offset 18, -16
	.loc 1 1555 0
	lui	$18,%hi(table_list_head)
	.loc 1 1549 0
	sw	$20,32($sp)
	sw	$19,28($sp)
	sw	$17,20($sp)
	sw	$16,16($sp)
	sw	$31,36($sp)
	.cfi_offset 20, -8
	.cfi_offset 19, -12
	.cfi_offset 17, -20
	.cfi_offset 16, -24
	.cfi_offset 31, -4
	.loc 1 1555 0
	lw	$16,%lo(table_list_head)($18)
	.loc 1 1549 0
	move	$17,$4
	addiu	$18,$18,%lo(table_list_head)
	.loc 1 1559 0
	li	$19,-1			# 0xffffffffffffffff
	.loc 1 1555 0
	j	$L473
	li	$20,1			# 0x1

$L477:
	.loc 1 1558 0
	jal	scan_table
	nop

	.loc 1 1559 0
	bne	$2,$19,$L474
	nop

	.loc 1 1561 0
	j	$L475
	move	$18,$0

$L474:
	.loc 1 1563 0
	bne	$2,$20,$L476
	lui	$2,%hi(log_enable)

	.loc 1 1565 0
	lw	$2,%lo(log_enable)($2)
	beq	$2,$0,$L475
	li	$18,1			# 0x1

	.loc 1 1566 0
	lw	$4,16($16)
	jal	log_fastFilter
	move	$5,$17

	.loc 1 1571 0
	j	$L482
	lw	$31,36($sp)

$L476:
	.loc 1 1555 0
	lw	$16,0($16)
$L473:
	.loc 1 1558 0 discriminator 1
	move	$6,$16
	move	$7,$16
	move	$4,$17
	.loc 1 1555 0 discriminator 1
	bne	$16,$18,$L477
	move	$5,$0

	j	$L475
	move	$18,$0

$L475:
	.loc 1 1571 0
	lw	$31,36($sp)
$L482:
	move	$2,$18
	lw	$20,32($sp)
	lw	$19,28($sp)
	lw	$18,24($sp)
	lw	$17,20($sp)
	lw	$16,16($sp)
	j	$31
	addiu	$sp,$sp,40

	.cfi_def_cfa_offset 0
	.cfi_restore 16
	.cfi_restore 17
	.cfi_restore 18
	.cfi_restore 19
	.cfi_restore 20
	.cfi_restore 31
	.set	macro
	.set	reorder
	.end	do_filter
	.cfi_endproc
$LFE3322:
	.size	do_filter, .-do_filter
	.align	2
	.globl	FilterWeb_v2
$LFB3323 = .
	.loc 1 1576 0
	.cfi_startproc
	.set	nomips16
	.ent	FilterWeb_v2
	.type	FilterWeb_v2, @function
FilterWeb_v2:
	.frame	$sp,24,$31		# vars= 0, regs= 2/0, args= 16, gp= 0
	.mask	0x80010000,-4
	.fmask	0x00000000,0
	.set	noreorder
	.set	nomacro
	addiu	$sp,$sp,-24
	.cfi_def_cfa_offset 24
	sw	$16,16($sp)
	sw	$31,20($sp)
	.cfi_offset 16, -8
	.cfi_offset 31, -4
	.loc 1 1580 0
	jal	rtl_ip_hdr
	move	$16,$4

	.loc 1 1582 0
	jal	need_filter
	move	$4,$16

	beq	$2,$0,$L484
	lw	$31,20($sp)

	.loc 1 1584 0
	move	$4,$16
	.loc 1 1588 0
	lw	$16,16($sp)
	.cfi_remember_state
	.cfi_restore 16
	.cfi_restore 31
	.loc 1 1584 0
	j	do_filter
	addiu	$sp,$sp,24

	.cfi_def_cfa_offset 0
$L484:
	.cfi_restore_state
	.loc 1 1588 0
	lw	$16,16($sp)
	j	$31
	addiu	$sp,$sp,24

	.cfi_def_cfa_offset 0
	.cfi_restore 16
	.cfi_restore 31
	.set	macro
	.set	reorder
	.end	FilterWeb_v2
	.cfi_endproc
$LFE3323:
	.size	FilterWeb_v2, .-FilterWeb_v2
	.section	.rodata.str1.4
	.align	2
$LC29:
	.ascii	"filter_table\000"
	.text
	.align	2
	.globl	filter_table_init
$LFB3324 = .
	.loc 1 1630 0
	.cfi_startproc
	.set	nomips16
	.ent	filter_table_init
	.type	filter_table_init, @function
filter_table_init:
	.frame	$sp,32,$31		# vars= 0, regs= 1/0, args= 24, gp= 0
	.mask	0x80000000,-4
	.fmask	0x00000000,0
	.set	noreorder
	.set	nomacro
	addiu	$sp,$sp,-32
	.cfi_def_cfa_offset 32
	sw	$31,28($sp)
	.cfi_offset 31, -4
	.loc 1 1631 0
	jal	filter_table_head_init
	nop

	.loc 1 1633 0
	lui	$4,%hi($LC29)
	lui	$6,%hi(proc_root)
	lui	$7,%hi(filter_table_proc_fops)
	sw	$0,16($sp)
	addiu	$4,$4,%lo($LC29)
	move	$5,$0
	addiu	$6,$6,%lo(proc_root)
	jal	proc_create_data
	addiu	$7,$7,%lo(filter_table_proc_fops)

	.loc 1 1646 0
	lw	$31,28($sp)
	.loc 1 1633 0
	lui	$3,%hi(res12)
	sw	$2,%lo(res12)($3)
	.loc 1 1646 0
	move	$2,$0
	j	$31
	addiu	$sp,$sp,32

	.cfi_def_cfa_offset 0
	.cfi_restore 31
	.set	macro
	.set	reorder
	.end	filter_table_init
	.cfi_endproc
$LFE3324:
	.size	filter_table_init, .-filter_table_init
	.align	2
	.globl	filter_init_fastpath
$LFB3325 = .
	.loc 1 1651 0
	.cfi_startproc
	.set	nomips16
	.ent	filter_init_fastpath
	.type	filter_init_fastpath, @function
filter_init_fastpath:
	.frame	$sp,24,$31		# vars= 0, regs= 1/0, args= 16, gp= 0
	.mask	0x80000000,-4
	.fmask	0x00000000,0
	.set	noreorder
	.set	nomacro
	addiu	$sp,$sp,-24
	.cfi_def_cfa_offset 24
	.loc 1 1652 0
	li	$3,1			# 0x1
	lui	$2,%hi(filter_rule_num)
	sw	$3,%lo(filter_rule_num)($2)
	.loc 1 1651 0
	sw	$31,20($sp)
	.cfi_offset 31, -4
	.loc 1 1653 0
	jal	filter_table_init
	nop

	.loc 1 1655 0
	lw	$31,20($sp)
	move	$2,$0
	j	$31
	addiu	$sp,$sp,24

	.cfi_def_cfa_offset 0
	.cfi_restore 31
	.set	macro
	.set	reorder
	.end	filter_init_fastpath
	.cfi_endproc
$LFE3325:
	.size	filter_init_fastpath, .-filter_init_fastpath
	.align	2
	.globl	filter_exit_fastpath
$LFB3326 = .
	.loc 1 1658 0
	.cfi_startproc
	.set	nomips16
	.ent	filter_exit_fastpath
	.type	filter_exit_fastpath, @function
filter_exit_fastpath:
	.frame	$sp,24,$31		# vars= 0, regs= 2/0, args= 16, gp= 0
	.mask	0x80010000,-4
	.fmask	0x00000000,0
	.set	noreorder
	.set	nomacro
	addiu	$sp,$sp,-24
	.cfi_def_cfa_offset 24
	sw	$16,16($sp)
	.cfi_offset 16, -8
	.loc 1 1659 0
	lui	$16,%hi(res12)
	lw	$2,%lo(res12)($16)
	.loc 1 1659 0
	beq	$2,$0,$L491
	sw	$31,20($sp)

	.cfi_offset 31, -4
	.loc 1 1661 0
	lui	$4,%hi($LC29)
	lui	$5,%hi(proc_root)
	addiu	$4,$4,%lo($LC29)
	jal	remove_proc_entry
	addiu	$5,$5,%lo(proc_root)

	.loc 1 1665 0
	sw	$0,%lo(res12)($16)
$L491:
	.loc 1 1668 0
	lw	$31,20($sp)
	lw	$16,16($sp)
	move	$2,$0
	j	$31
	addiu	$sp,$sp,24

	.cfi_def_cfa_offset 0
	.cfi_restore 16
	.cfi_restore 31
	.set	macro
	.set	reorder
	.end	filter_exit_fastpath
	.cfi_endproc
$LFE3326:
	.size	filter_exit_fastpath, .-filter_exit_fastpath
	.align	2
	.globl	strtoint
$LFB3331 = .
	.loc 2 1154 0
	.cfi_startproc
	.set	nomips16
	.ent	strtoint
	.type	strtoint, @function
strtoint:
	.frame	$sp,0,$31		# vars= 0, regs= 0/0, args= 0, gp= 0
	.mask	0x00000000,0
	.fmask	0x00000000,0
	.set	noreorder
	.set	nomacro
	.loc 2 1157 0
	j	$L497
	move	$2,$0

$L499:
	.loc 2 1160 0
	beq	$8,$0,$L502
	addiu	$4,$4,1

	.loc 2 1157 0
	addu	$2,$6,$5
$L497:
	.loc 2 1157 0 is_stmt 0 discriminator 1
	lb	$3,0($4)
	sll	$7,$2,1
	sll	$6,$2,3
	.loc 2 1160 0 is_stmt 1 discriminator 1
	addiu	$5,$3,-48
	sltu	$8,$5,10
	.loc 2 1157 0 discriminator 1
	bne	$3,$0,$L499
	addu	$6,$7,$6

$L502:
	.loc 2 1167 0
	j	$31
	nop

	.set	macro
	.set	reorder
	.end	strtoint
	.cfi_endproc
$LFE3331:
	.size	strtoint, .-strtoint
	.align	2
	.globl	strtok
$LFB3352 = .
	.loc 2 3029 0
	.cfi_startproc
	.set	nomips16
	.ent	strtok
	.type	strtok, @function
strtok:
	.frame	$sp,32,$31		# vars= 0, regs= 4/0, args= 16, gp= 0
	.mask	0x80070000,-4
	.fmask	0x00000000,0
	.set	noreorder
	.set	nomacro
	addiu	$sp,$sp,-32
	.cfi_def_cfa_offset 32
	sw	$18,24($sp)
	sw	$17,20($sp)
	sw	$16,16($sp)
	sw	$31,28($sp)
	.cfi_offset 18, -8
	.cfi_offset 17, -12
	.cfi_offset 16, -16
	.cfi_offset 31, -4
	.loc 2 3029 0
	move	$16,$4
	move	$17,$5
	.loc 2 3032 0
	bne	$4,$0,$L504
	lui	$18,%hi(___strtok)

	.loc 2 3032 0 is_stmt 0 discriminator 2
	lw	$16,%lo(___strtok)($18)
	.loc 2 3033 0 is_stmt 1 discriminator 2
	beq	$16,$0,$L508
	move	$2,$0

$L504:
	.loc 2 3036 0
	move	$4,$16
	jal	strspn
	move	$5,$17

	addu	$16,$16,$2
	.loc 2 3037 0
	lb	$2,0($16)
	bne	$2,$0,$L506
	move	$4,$16

	.loc 2 3039 0
	j	$L505
	sw	$0,%lo(___strtok)($18)

$L506:
	.loc 2 3041 0
	jal	strpbrk
	move	$5,$17

	.loc 2 3042 0
	beq	$2,$0,$L507
	nop

	.loc 2 3042 0 is_stmt 0 discriminator 1
	lb	$3,0($2)
	beq	$3,$0,$L507
	nop

	.loc 2 3043 0 is_stmt 1
	sb	$0,0($2)
	addiu	$2,$2,1
$L507:
	.loc 2 3044 0
	sw	$2,%lo(___strtok)($18)
	move	$2,$16
$L508:
$L505:
	.loc 2 3046 0
	lw	$31,28($sp)
	lw	$18,24($sp)
	lw	$17,20($sp)
	lw	$16,16($sp)
	j	$31
	addiu	$sp,$sp,32

	.cfi_def_cfa_offset 0
	.cfi_restore 16
	.cfi_restore 17
	.cfi_restore 18
	.cfi_restore 31
	.set	macro
	.set	reorder
	.end	strtok
	.cfi_endproc
$LFE3352:
	.size	strtok, .-strtok
	.align	2
$LFB3356 = .
	.loc 2 3138 0
	.cfi_startproc
	.set	nomips16
	.ent	dos_single_write
	.type	dos_single_write, @function
dos_single_write:
	.frame	$sp,136,$31		# vars= 80, regs= 10/0, args= 16, gp= 0
	.mask	0xc0ff0000,-4
	.fmask	0x00000000,0
	addiu	$sp,$sp,-136
	.cfi_def_cfa_offset 136
$LBB924 = .
$LBB925 = .
	.loc 2 3057 0
	sltu	$3,$6,2
$LBE925 = .
$LBE924 = .
	.loc 2 3138 0
	sw	$20,112($sp)
	sw	$31,132($sp)
	sw	$fp,128($sp)
	sw	$23,124($sp)
	sw	$22,120($sp)
	sw	$21,116($sp)
	sw	$19,108($sp)
	sw	$18,104($sp)
	sw	$17,100($sp)
	sw	$16,96($sp)
	.cfi_offset 20, -24
	.cfi_offset 31, -4
	.cfi_offset 30, -8
	.cfi_offset 23, -12
	.cfi_offset 22, -16
	.cfi_offset 21, -20
	.cfi_offset 19, -28
	.cfi_offset 18, -32
	.cfi_offset 17, -36
	.cfi_offset 16, -40
$LBB943 = .
$LBB931 = .
	.loc 2 3057 0
	.set	noreorder
	.set	nomacro
	beq	$3,$0,$L519
	move	$20,$6
	.set	macro
	.set	reorder

$L521:
$LBE931 = .
$LBE943 = .
	.loc 2 3058 0
	.set	noreorder
	.set	nomacro
	j	$L520
	li	$2,-14			# 0xfffffffffffffff2
	.set	macro
	.set	reorder

$L519:
$LBB944 = .
$LBB932 = .
	.loc 2 3060 0
	.set	noreorder
	.set	nomacro
	beq	$5,$0,$L521
	addiu	$3,$5,80
	.set	macro
	.set	reorder

$LBB926 = .
$LBB927 = .
	or	$2,$3,$5
	lw	$3,24($28)
	and	$2,$2,$3
$LBE927 = .
	.set	noreorder
	.set	nomacro
	bne	$2,$0,$L521
	lui	$3,%hi(dos_flag)
	.set	macro
	.set	reorder

$LBB928 = .
	addiu	$4,$3,%lo(dos_flag)
	li	$6,80			# 0x50
#APP
 # 3060 "/home/extra_home/marklee/rtk_OpenWRT_BB/BB_v1407/0629_co_2.4_pre_release/svn_test/rtk_BarrierBreaker_v14.07.x/build_dir/target-mips_24kec_uClibc-0.9.33.2/linux-rtkmips_rtl8198c/fastpath-0.1/filter.c" 1
	.set	noreorder
	.set	noat
	la	$1, __copy_user
	jalr	$1
	.set	at
	.set	noat
	addu	$1, $5, $6
	.set	at
	.set	reorder
 # 0 "" 2
#NO_APP
$LBE928 = .
$LBE926 = .
	.set	noreorder
	.set	nomacro
	bne	$6,$0,$L521
	addiu	$3,$3,%lo(dos_flag)
	.set	macro
	.set	reorder

$LBB929 = .
$LBB930 = .
	.loc 8 52 0
	addiu	$2,$sp,16
	li	$4,80			# 0x50
#APP
 # 52 "/home/extra_home/marklee/rtk_OpenWRT_BB/BB_v1407/0629_co_2.4_pre_release/svn_test/rtk_BarrierBreaker_v14.07.x/build_dir/target-mips_24kec_uClibc-0.9.33.2/linux-rtkmips_rtl8198c/linux-3.10.49/arch/mips/include/asm/string.h" 1
	.set	noreorder
	.set	noat
1:	lbu	$1,($3)
	subu	$4,1
	sb	$1,($2)
	beqz	$1,2f
	addiu	$2,1
	bnez	$4,1b
	addiu	$3,1
2:
	.set	at
	.set	reorder
 # 0 "" 2
#NO_APP
$LBE930 = .
$LBE929 = .
	.loc 2 3067 0
	lui	$19,%hi($L525)
	.loc 2 3054 0
	li	$16,1			# 0x1
	.loc 2 3053 0
	addiu	$4,$sp,16
	lui	$18,%hi($LC20)
	.loc 2 3067 0
	addiu	$19,$19,%lo($L525)
	.loc 2 3110 0
	lui	$fp,%hi(block_time)
	.loc 2 3107 0
	lui	$23,%hi(per_icmp_threshold)
	.loc 2 3104 0
	lui	$22,%hi(per_udp_threshold)
$LBE932 = .
$LBE944 = .
	.loc 2 3101 0
	.set	noreorder
	.set	nomacro
	j	$L522
	lui	$21,%hi(per_fin_threshold)
	.set	macro
	.set	reorder

$L538:
$LBB945 = .
$LBB933 = .
	.loc 2 3066 0
	move	$4,$17
	move	$5,$0
	.set	noreorder
	.set	nomacro
	jal	simple_strtol
	move	$6,$0
	.set	macro
	.set	reorder

	.loc 2 3067 0
	sltu	$3,$16,14
	.set	noreorder
	.set	nomacro
	beq	$3,$0,$L523
	sll	$3,$16,2
	.set	macro
	.set	reorder

	addu	$3,$19,$3
	lw	$3,0($3)
	j	$3
	.rdata
	.align	2
	.align	2
$L525:
	.word	$L523
	.word	$L524
	.word	$L526
	.word	$L527
	.word	$L528
	.word	$L529
	.word	$L530
	.word	$L531
	.word	$L532
	.word	$L533
	.word	$L534
	.word	$L535
	.word	$L536
	.word	$L537
	.text
$L524:
	.loc 2 3070 0
	lui	$3,%hi(op_mode)
$LBE933 = .
$LBE945 = .
	.set	noreorder
	.set	nomacro
	j	$L523
	sb	$2,%lo(op_mode)($3)
	.set	macro
	.set	reorder

$L526:
$LBB946 = .
$LBB934 = .
	.loc 2 3073 0
	move	$4,$17
	move	$5,$0
	.set	noreorder
	.set	nomacro
	jal	simple_strtol
	li	$6,16			# 0x10
	.set	macro
	.set	reorder

	.loc 2 3074 0
	lui	$3,%hi(lan_addr)
$LBE934 = .
$LBE946 = .
	.set	noreorder
	.set	nomacro
	j	$L523
	sw	$2,%lo(lan_addr)($3)
	.set	macro
	.set	reorder

$L527:
$LBB947 = .
$LBB935 = .
	.loc 2 3077 0
	move	$4,$17
	move	$5,$0
	.set	noreorder
	.set	nomacro
	jal	simple_strtol
	li	$6,16			# 0x10
	.set	macro
	.set	reorder

	.loc 2 3078 0
	lui	$3,%hi(lan_mask)
$LBE935 = .
$LBE947 = .
	.set	noreorder
	.set	nomacro
	j	$L523
	sw	$2,%lo(lan_mask)($3)
	.set	macro
	.set	reorder

$L528:
$LBB948 = .
$LBB936 = .
	.loc 2 3082 0
	lui	$3,%hi(item)
	sw	$2,%lo(item)($3)
	.loc 2 3083 0
	lui	$2,%hi(item_backup)
$LBE936 = .
$LBE948 = .
	.set	noreorder
	.set	nomacro
	j	$L523
	sw	$0,%lo(item_backup)($2)
	.set	macro
	.set	reorder

$L529:
$LBB949 = .
$LBB937 = .
	.loc 2 3086 0
	lui	$3,%hi(whole_syn_threshold)
$LBE937 = .
$LBE949 = .
	.set	noreorder
	.set	nomacro
	j	$L523
	sw	$2,%lo(whole_syn_threshold)($3)
	.set	macro
	.set	reorder

$L530:
$LBB950 = .
$LBB938 = .
	.loc 2 3089 0
	lui	$3,%hi(whole_fin_threshold)
$LBE938 = .
$LBE950 = .
	.set	noreorder
	.set	nomacro
	j	$L523
	sw	$2,%lo(whole_fin_threshold)($3)
	.set	macro
	.set	reorder

$L531:
$LBB951 = .
$LBB939 = .
	.loc 2 3092 0
	lui	$3,%hi(whole_udp_threshold)
$LBE939 = .
$LBE951 = .
	.set	noreorder
	.set	nomacro
	j	$L523
	sw	$2,%lo(whole_udp_threshold)($3)
	.set	macro
	.set	reorder

$L532:
$LBB952 = .
$LBB940 = .
	.loc 2 3095 0
	lui	$3,%hi(whole_icmp_threshold)
$LBE940 = .
$LBE952 = .
	.set	noreorder
	.set	nomacro
	j	$L523
	sw	$2,%lo(whole_icmp_threshold)($3)
	.set	macro
	.set	reorder

$L533:
$LBB953 = .
$LBB941 = .
	.loc 2 3098 0
	lui	$3,%hi(per_syn_threshold)
$LBE941 = .
$LBE953 = .
	.set	noreorder
	.set	nomacro
	j	$L523
	sw	$2,%lo(per_syn_threshold)($3)
	.set	macro
	.set	reorder

$L534:
	.loc 2 3101 0
	.set	noreorder
	.set	nomacro
	j	$L523
	sw	$2,%lo(per_fin_threshold)($21)
	.set	macro
	.set	reorder

$L535:
	.loc 2 3104 0
	.set	noreorder
	.set	nomacro
	j	$L523
	sw	$2,%lo(per_udp_threshold)($22)
	.set	macro
	.set	reorder

$L536:
	.loc 2 3107 0
	.set	noreorder
	.set	nomacro
	j	$L523
	sw	$2,%lo(per_icmp_threshold)($23)
	.set	macro
	.set	reorder

$L537:
$LBB954 = .
$LBB942 = .
	.loc 2 3110 0
	sw	$2,%lo(block_time)($fp)
$L523:
	.loc 2 3115 0
	addiu	$16,$16,1
	andi	$16,$16,0x00ff
	.loc 2 3065 0
	move	$4,$0
$L522:
	.loc 2 3063 0
	.set	noreorder
	.set	nomacro
	jal	strtok
	addiu	$5,$18,%lo($LC20)
	.set	macro
	.set	reorder

	.set	noreorder
	.set	nomacro
	bne	$2,$0,$L538
	move	$17,$2
	.set	macro
	.set	reorder

	.loc 2 3118 0
	move	$2,$20
$L520:
$LBE942 = .
$LBE954 = .
	.loc 2 3140 0
	lw	$31,132($sp)
	lw	$fp,128($sp)
	lw	$23,124($sp)
	lw	$22,120($sp)
	lw	$21,116($sp)
	lw	$20,112($sp)
	lw	$19,108($sp)
	lw	$18,104($sp)
	lw	$17,100($sp)
	lw	$16,96($sp)
	.set	noreorder
	.set	nomacro
	j	$31
	addiu	$sp,$sp,136
	.set	macro
	.set	reorder

	.cfi_def_cfa_offset 0
	.cfi_restore 16
	.cfi_restore 17
	.cfi_restore 18
	.cfi_restore 19
	.cfi_restore 20
	.cfi_restore 21
	.cfi_restore 22
	.cfi_restore 23
	.cfi_restore 30
	.cfi_restore 31
	.end	dos_single_write
	.cfi_endproc
$LFE3356:
	.size	dos_single_write, .-dos_single_write
	.align	2
	.globl	filter_addconnect
$LFB3357 = .
	.loc 2 3171 0
	.cfi_startproc
	.set	nomips16
	.ent	filter_addconnect
	.type	filter_addconnect, @function
filter_addconnect:
	.frame	$sp,0,$31		# vars= 0, regs= 0/0, args= 0, gp= 0
	.mask	0x00000000,0
	.fmask	0x00000000,0
	.set	noreorder
	.set	nomacro
	.loc 2 3174 0
	andi	$3,$4,0xff
	lui	$2,%hi(ConnectedIp)
	sll	$3,$3,2
	addiu	$2,$2,%lo(ConnectedIp)
	addu	$2,$3,$2
	j	$31
	sw	$4,0($2)

	.set	macro
	.set	reorder
	.end	filter_addconnect
	.cfi_endproc
$LFE3357:
	.size	filter_addconnect, .-filter_addconnect
	.align	2
	.globl	filter_delconnect
$LFB3358 = .
	.loc 2 3179 0
	.cfi_startproc
	.set	nomips16
	.ent	filter_delconnect
	.type	filter_delconnect, @function
filter_delconnect:
	.frame	$sp,0,$31		# vars= 0, regs= 0/0, args= 0, gp= 0
	.mask	0x00000000,0
	.fmask	0x00000000,0
	.set	noreorder
	.set	nomacro
	.loc 2 3182 0
	andi	$4,$4,0x00ff
	lui	$3,%hi(ConnectedIp)
	sll	$2,$4,2
	addiu	$3,$3,%lo(ConnectedIp)
	addu	$2,$2,$3
	j	$31
	sw	$0,0($2)

	.set	macro
	.set	reorder
	.end	filter_delconnect
	.cfi_endproc
$LFE3358:
	.size	filter_delconnect, .-filter_delconnect
	.align	2
	.globl	filter_checkConnect
$LFB3359 = .
	.loc 2 3187 0
	.cfi_startproc
	.set	nomips16
	.ent	filter_checkConnect
	.type	filter_checkConnect, @function
filter_checkConnect:
	.frame	$sp,0,$31		# vars= 0, regs= 0/0, args= 0, gp= 0
	.mask	0x00000000,0
	.fmask	0x00000000,0
	.set	noreorder
	.set	nomacro
	.loc 2 3190 0
	andi	$3,$4,0xff
	lui	$2,%hi(ConnectedIp)
	sll	$3,$3,2
	addiu	$2,$2,%lo(ConnectedIp)
	addu	$2,$3,$2
	lw	$3,0($2)
	beq	$3,$0,$L549
	li	$2,1			# 0x1

	.loc 2 3190 0 is_stmt 0 discriminator 1
	xor	$2,$4,$3
	sltu	$2,$0,$2
$L549:
	.loc 2 3195 0 is_stmt 1
	j	$31
	nop

	.set	macro
	.set	reorder
	.end	filter_checkConnect
	.cfi_endproc
$LFE3359:
	.size	filter_checkConnect, .-filter_checkConnect
	.align	2
	.globl	register_customRspStr
$LFB3360 = .
	.loc 2 3205 0
	.cfi_startproc
	.set	nomips16
	.ent	register_customRspStr
	.type	register_customRspStr, @function
register_customRspStr:
	.frame	$sp,32,$31		# vars= 0, regs= 3/0, args= 16, gp= 0
	.mask	0x80030000,-4
	.fmask	0x00000000,0
	.set	noreorder
	.set	nomacro
	addiu	$sp,$sp,-32
	.cfi_def_cfa_offset 32
	sw	$16,20($sp)
	.cfi_offset 16, -12
$LBB955 = .
$LBB956 = .
	.loc 2 3224 0
	lui	$16,%hi(block_message)
	lw	$2,%lo(block_message)($16)
$LBE956 = .
$LBE955 = .
	.loc 2 3205 0
	sw	$17,24($sp)
	sw	$31,28($sp)
	.cfi_offset 17, -8
	.cfi_offset 31, -4
$LBB958 = .
$LBB957 = .
	.loc 2 3224 0
	beq	$2,$0,$L551
	move	$17,$4

	.loc 2 3226 0
	jal	kfree
	move	$4,$2

	.loc 2 3227 0
	sw	$0,%lo(block_message)($16)
$L551:
$LBE957 = .
$LBE958 = .
	.loc 2 3207 0
	beq	$17,$0,$L552
	nop

	.loc 2 3209 0
	jal	strlen
	move	$4,$17

$LBB959 = .
$LBB960 = .
	.loc 3 174 0
	addiu	$4,$2,1
	jal	__kmalloc
	li	$5,208			# 0xd0

$LBE960 = .
$LBE959 = .
	.loc 2 3210 0
	beq	$2,$0,$L550
	sw	$2,%lo(block_message)($16)

	.loc 2 3211 0
	lui	$5,%hi($LC15)
	move	$4,$2
	addiu	$5,$5,%lo($LC15)
	j	$L563
	move	$6,$17

$L552:
	.loc 2 3215 0
	lui	$17,%hi($LC12)
	jal	strlen
	addiu	$4,$17,%lo($LC12)

$LBB961 = .
$LBB962 = .
	.loc 3 174 0
	move	$4,$2
	jal	__kmalloc
	li	$5,208			# 0xd0

$LBE962 = .
$LBE961 = .
	.loc 2 3216 0
	beq	$2,$0,$L550
	sw	$2,%lo(block_message)($16)

	.loc 2 3217 0
	lui	$5,%hi($LC15)
	move	$4,$2
	addiu	$5,$5,%lo($LC15)
	addiu	$6,$17,%lo($LC12)
$L563:
	.loc 2 3220 0
	lw	$31,28($sp)
	lw	$17,24($sp)
	lw	$16,20($sp)
	.cfi_remember_state
	.cfi_restore 16
	.cfi_restore 17
	.cfi_restore 31
	.loc 2 3217 0
	j	sprintf
	addiu	$sp,$sp,32

	.cfi_def_cfa_offset 0
$L550:
	.cfi_restore_state
	.loc 2 3220 0
	lw	$31,28($sp)
	lw	$17,24($sp)
	lw	$16,20($sp)
	j	$31
	addiu	$sp,$sp,32

	.cfi_def_cfa_offset 0
	.cfi_restore 16
	.cfi_restore 17
	.cfi_restore 31
	.set	macro
	.set	reorder
	.end	register_customRspStr
	.cfi_endproc
$LFE3360:
	.size	register_customRspStr, .-register_customRspStr
	.align	2
	.globl	unregister_customRspStr
$LFB3361 = .
	.loc 2 3223 0
	.cfi_startproc
	.set	nomips16
	.ent	unregister_customRspStr
	.type	unregister_customRspStr, @function
unregister_customRspStr:
	.frame	$sp,24,$31		# vars= 0, regs= 2/0, args= 16, gp= 0
	.mask	0x80010000,-4
	.fmask	0x00000000,0
	.set	noreorder
	.set	nomacro
	addiu	$sp,$sp,-24
	.cfi_def_cfa_offset 24
	sw	$16,16($sp)
	.cfi_offset 16, -8
	.loc 2 3224 0
	lui	$16,%hi(block_message)
	lw	$4,%lo(block_message)($16)
	.loc 2 3224 0
	beq	$4,$0,$L564
	sw	$31,20($sp)

	.cfi_offset 31, -4
	.loc 2 3226 0
	jal	kfree
	nop

	.loc 2 3227 0
	sw	$0,%lo(block_message)($16)
$L564:
	.loc 2 3230 0
	lw	$31,20($sp)
	lw	$16,16($sp)
	j	$31
	addiu	$sp,$sp,24

	.cfi_def_cfa_offset 0
	.cfi_restore 16
	.cfi_restore 31
	.set	macro
	.set	reorder
	.end	unregister_customRspStr
	.cfi_endproc
$LFE3361:
	.size	unregister_customRspStr, .-unregister_customRspStr
	.align	2
	.globl	register_customRspHook
$LFB3362 = .
	.loc 2 3233 0
	.cfi_startproc
	.set	nomips16
	.ent	register_customRspHook
	.type	register_customRspHook, @function
register_customRspHook:
	.frame	$sp,0,$31		# vars= 0, regs= 0/0, args= 0, gp= 0
	.mask	0x00000000,0
	.fmask	0x00000000,0
	.set	noreorder
	.set	nomacro
	.loc 2 3234 0
	beq	$4,$0,$L571
	lui	$2,%hi(fast_path_cusRsp401_func)

	j	$L572
	sw	$4,%lo(fast_path_cusRsp401_func)($2)

$L571:
	.loc 2 3237 0
	lui	$3,%hi(GenerateHTTP401)
	addiu	$3,$3,%lo(GenerateHTTP401)
	sw	$3,%lo(fast_path_cusRsp401_func)($2)
$L572:
	.loc 2 3239 0
	beq	$5,$0,$L573
	lui	$2,%hi(fast_path_cusRspTCPFinAck_func)

	j	$L574
	sw	$5,%lo(fast_path_cusRspTCPFinAck_func)($2)

$L573:
	.loc 2 3242 0
	lui	$3,%hi(GenerateTCPFINACK)
	addiu	$3,$3,%lo(GenerateTCPFINACK)
	sw	$3,%lo(fast_path_cusRspTCPFinAck_func)($2)
$L574:
	.loc 2 3244 0
	beq	$6,$0,$L575
	lui	$2,%hi(fast_path_cusRspTCPEndAck_func)

	j	$31
	sw	$6,%lo(fast_path_cusRspTCPEndAck_func)($2)

$L575:
	.loc 2 3247 0
	lui	$3,%hi(GenerateTCPENDACK)
	addiu	$3,$3,%lo(GenerateTCPENDACK)
	j	$31
	sw	$3,%lo(fast_path_cusRspTCPEndAck_func)($2)

	.set	macro
	.set	reorder
	.end	register_customRspHook
	.cfi_endproc
$LFE3362:
	.size	register_customRspHook, .-register_customRspHook
	.align	2
	.globl	unregister_customRspHook
$LFB3363 = .
	.loc 2 3252 0
	.cfi_startproc
	.set	nomips16
	.ent	unregister_customRspHook
	.type	unregister_customRspHook, @function
unregister_customRspHook:
	.frame	$sp,0,$31		# vars= 0, regs= 0/0, args= 0, gp= 0
	.mask	0x00000000,0
	.fmask	0x00000000,0
	.set	noreorder
	.set	nomacro
	.loc 2 3253 0
	lui	$2,%hi(fast_path_cusRsp401_func)
	sw	$0,%lo(fast_path_cusRsp401_func)($2)
	.loc 2 3254 0
	lui	$2,%hi(fast_path_cusRspTCPFinAck_func)
	sw	$0,%lo(fast_path_cusRspTCPFinAck_func)($2)
	.loc 2 3255 0
	lui	$2,%hi(fast_path_cusRspTCPEndAck_func)
	j	$31
	sw	$0,%lo(fast_path_cusRspTCPEndAck_func)($2)

	.set	macro
	.set	reorder
	.end	unregister_customRspHook
	.cfi_endproc
$LFE3363:
	.size	unregister_customRspHook, .-unregister_customRspHook
	.align	2
	.globl	filter_enter
$LFB3364 = .
	.loc 2 3267 0
	.cfi_startproc
	.set	nomips16
	.ent	filter_enter
	.type	filter_enter, @function
filter_enter:
	.frame	$sp,48,$31		# vars= 0, regs= 7/0, args= 16, gp= 0
	.mask	0x803f0000,-4
	.fmask	0x00000000,0
	.set	noreorder
	.set	nomacro
	addiu	$sp,$sp,-48
	.cfi_def_cfa_offset 48
	sw	$18,28($sp)
	.cfi_offset 18, -20
	.loc 2 3275 0
	lui	$18,%hi(item)
	lw	$2,%lo(item)($18)
	.loc 2 3267 0
	sw	$17,24($sp)
	sw	$31,44($sp)
	sw	$21,40($sp)
	sw	$20,36($sp)
	sw	$19,32($sp)
	sw	$16,20($sp)
	.cfi_offset 17, -24
	.cfi_offset 31, -4
	.cfi_offset 21, -8
	.cfi_offset 20, -12
	.cfi_offset 19, -16
	.cfi_offset 16, -28
	.loc 2 3275 0
	bne	$2,$0,$L579
	move	$17,$4

	.loc 2 3275 0 is_stmt 0 discriminator 1
	lui	$2,%hi(table_list_head+24)
	lw	$2,%lo(table_list_head+24)($2)
	sltu	$2,$2,2
	bne	$2,$0,$L773
	lui	$2,%hi(none_dos_drop_pkt_cnt)

$L579:
	.loc 2 3283 0 is_stmt 1
	jal	rtl_get_skb_type
	move	$4,$17

	beq	$2,$0,$L581
	nop

$L582:
	j	$L756
	li	$16,4			# 0x4

$L581:
	.loc 2 3284 0
	jal	rtl_get_skb_protocol
	move	$4,$17

	li	$3,2048			# 0x800
	bne	$2,$3,$L756
	li	$16,4			# 0x4

	.loc 2 3338 0
	lui	$2,%hi(table_list_head+24)
	lw	$2,%lo(table_list_head+24)($2)
	sltu	$2,$2,2
	bne	$2,$0,$L583
	nop

$LBB996 = .
$LBB997 = .
	.loc 2 1028 0
	jal	FilterWeb_v2
	move	$4,$17

	move	$16,$2
$LBE997 = .
$LBE996 = .
	.loc 2 3342 0
	lui	$2,%hi(fast_path_cusRsp401_func)
	.loc 2 3340 0
	beq	$16,$0,$L584
	lw	$2,%lo(fast_path_cusRsp401_func)($2)

	.loc 2 3342 0
	beq	$2,$0,$L768
	nop

	.loc 2 3343 0
	jalr	$2
	move	$4,$17

$L768:
	.loc 2 3345 0
	j	$L756
	move	$16,$0

$L584:
	.loc 2 3348 0
	beq	$2,$0,$L583
	lui	$3,%hi(url_cache)

	.loc 2 3350 0
	addiu	$3,$3,%lo(url_cache)
	lbu	$4,15($3)
	li	$2,1			# 0x1
	bne	$4,$2,$L586
	nop

	.loc 2 3351 0
	lui	$2,%hi(fast_path_cusRspTCPFinAck_func)
	lw	$2,%lo(fast_path_cusRspTCPFinAck_func)($2)
	bne	$2,$0,$L766
	nop

	j	$L756
	move	$16,$0

$L586:
	.loc 2 3355 0
	lbu	$3,16($3)
	bne	$3,$2,$L774
	lw	$2,%lo(item)($18)

	.loc 2 3356 0
	lui	$2,%hi(fast_path_cusRspTCPEndAck_func)
	lw	$2,%lo(fast_path_cusRspTCPEndAck_func)($2)
	beq	$2,$0,$L768
	nop

$L766:
	.loc 2 3357 0
	jalr	$2
	move	$4,$17

	.loc 2 3400 0
	j	$L770
	lw	$31,44($sp)

$L583:
	.loc 2 3378 0
	lw	$2,%lo(item)($18)
$L774:
	andi	$2,$2,0x1
	beq	$2,$0,$L588
	nop

$LBB998 = .
$LBB999 = .
	.loc 2 2962 0
	jal	rtl_ip_hdr
	move	$4,$17

	move	$16,$2
	.loc 2 2963 0
	lw	$2,0($2)
	.loc 2 2967 0
	lui	$4,%hi($LC16)
	addiu	$4,$4,%lo($LC16)
	jal	rtl_get_dev_by_name
	ext	$21,$2,24,4

	.loc 2 2971 0
	lui	$4,%hi($LC17)
	addiu	$4,$4,%lo($LC17)
	.loc 2 2967 0
	lui	$20,%hi(wan_ppp_dev)
	sw	$2,%lo(wan_ppp_dev)($20)
	.loc 2 2971 0
	jal	rtl_get_dev_by_name
	lui	$19,%hi(wan_dev)

	.loc 2 2973 0
	move	$4,$17
	jal	rtl_get_skb_dev
	sw	$2,%lo(wan_dev)($19)

	beq	$2,$0,$L588
	nop

	jal	rtl_get_skb_dev
	move	$4,$17

	lw	$3,%lo(wan_dev)($19)
	bne	$3,$2,$L590
	nop

	.loc 2 2976 0
	lw	$18,%lo(item)($18)
	.loc 2 2963 0
	sll	$20,$21,2
$L780:
	.loc 2 2976 0
	andi	$2,$18,0x3fe
	beq	$2,$0,$L592
	addu	$20,$16,$20

	j	$L769
	nop

$L590:
	.loc 2 2973 0
	jal	rtl_get_skb_dev
	move	$4,$17

	lw	$3,%lo(wan_ppp_dev)($20)
	bne	$3,$2,$L588
	lw	$18,%lo(item)($18)

$LBE999 = .
$LBE998 = .
	.loc 2 2963 0
	j	$L780
	sll	$20,$21,2

$L592:
	.loc 2 2961 0
	j	$L594
	move	$19,$0

$L769:
$LBB1055 = .
$LBB1045 = .
	.loc 2 2978 0
	jal	dos_pkt_locate.isra.5
	lw	$4,12($16)

	beq	$2,$0,$L592
	andi	$2,$18,0x22

	.loc 2 2980 0
	beq	$2,$0,$L595
	move	$19,$0

$LBB1000 = .
$LBB1001 = .
	.loc 2 2326 0
	lbu	$3,9($16)
	.loc 2 2323 0
	lui	$2,%hi(cur_p_pkt)
	lw	$5,%lo(cur_p_pkt)($2)
	.loc 2 2326 0
	li	$2,6			# 0x6
	bne	$3,$2,$L595
	li	$2,2			# 0x2

	lbu	$3,13($20)
	andi	$3,$3,0x3f
	bne	$3,$2,$L595
	lui	$2,%hi(block)

	.loc 2 2328 0
	lw	$4,%lo(block)($2)
	li	$3,1			# 0x1
	bne	$4,$3,$L599
	lui	$3,%hi(attack_saddr+4)

	lw	$4,%lo(attack_saddr+4)($3)
	lw	$3,12($16)
	beq	$4,$3,$L652
	nop

$L599:
	.loc 2 2330 0
	lw	$4,4($5)
	.loc 2 2332 0
	lui	$3,%hi(per_syn_threshold)
	lw	$3,%lo(per_syn_threshold)($3)
	.loc 2 2330 0
	addiu	$4,$4,1
	sw	$4,4($5)
	.loc 2 2332 0
	slt	$4,$3,$4
	beq	$4,$0,$L760
	andi	$4,$18,0x20

	beq	$4,$0,$L760
	nop

	blez	$3,$L760
	lui	$3,%hi(LogFlag)

	.loc 2 2334 0
	lw	$7,12($16)
	.loc 2 2337 0
	lw	$4,%lo(LogFlag)($3)
	.loc 2 2335 0
	lw	$6,16($16)
	.loc 2 2334 0
	lui	$5,%hi(attack_saddr+4)
	sw	$7,%lo(attack_saddr+4)($5)
	.loc 2 2335 0
	lui	$5,%hi(attack_daddr+4)
	.loc 2 2337 0
	ori	$4,$4,0x20
	.loc 2 2335 0
	sw	$6,%lo(attack_daddr+4)($5)
	.loc 2 2336 0
	li	$5,1			# 0x1
	sw	$5,%lo(block)($2)
	.loc 2 2337 0
	sw	$4,%lo(LogFlag)($3)
$L760:
$LBE1001 = .
$LBE1000 = .
$LBE1045 = .
$LBE1055 = .
	.loc 2 2340 0
	j	$L595
	move	$19,$0

$L652:
$LBB1056 = .
$LBB1046 = .
$LBB1003 = .
$LBB1002 = .
	.loc 2 2329 0
	li	$19,-1			# 0xffffffffffffffff
$L595:
$LBE1002 = .
$LBE1003 = .
	.loc 2 2982 0
	andi	$2,$18,0x44
	beq	$2,$0,$L775
	andi	$2,$18,0x88

$LBB1004 = .
$LBB1005 = .
	.loc 2 2350 0
	lbu	$3,9($16)
	.loc 2 2348 0
	lui	$2,%hi(cur_p_pkt)
	lw	$5,%lo(cur_p_pkt)($2)
	.loc 2 2350 0
	li	$2,6			# 0x6
	bne	$3,$2,$L602
	move	$2,$0

	lbu	$3,13($20)
	li	$2,1			# 0x1
	andi	$3,$3,0x3f
	bne	$3,$2,$L602
	move	$2,$0

	.loc 2 2352 0
	lui	$2,%hi(block)
	lw	$4,%lo(block)($2)
	bne	$4,$3,$L604
	lui	$3,%hi(attack_saddr+8)

	lw	$4,%lo(attack_saddr+8)($3)
	lw	$3,12($16)
	beq	$4,$3,$L653
	nop

$L604:
	.loc 2 2354 0
	lw	$4,8($5)
	.loc 2 2355 0
	lui	$3,%hi(per_fin_threshold)
	lw	$3,%lo(per_fin_threshold)($3)
	.loc 2 2354 0
	addiu	$4,$4,1
	sw	$4,8($5)
	.loc 2 2355 0
	slt	$4,$3,$4
	beq	$4,$0,$L761
	andi	$4,$18,0x40

	beq	$4,$0,$L761
	nop

	blez	$3,$L761
	lui	$3,%hi(LogFlag)

	.loc 2 2357 0
	lw	$7,12($16)
	.loc 2 2360 0
	lw	$4,%lo(LogFlag)($3)
	.loc 2 2358 0
	lw	$6,16($16)
	.loc 2 2357 0
	lui	$5,%hi(attack_saddr+8)
	sw	$7,%lo(attack_saddr+8)($5)
	.loc 2 2358 0
	lui	$5,%hi(attack_daddr+8)
	.loc 2 2360 0
	ori	$4,$4,0x40
	.loc 2 2358 0
	sw	$6,%lo(attack_daddr+8)($5)
	.loc 2 2359 0
	li	$5,1			# 0x1
	sw	$5,%lo(block)($2)
	.loc 2 2360 0
	sw	$4,%lo(LogFlag)($3)
$L761:
$LBE1005 = .
$LBE1004 = .
$LBE1046 = .
$LBE1056 = .
	.loc 2 2363 0
	j	$L602
	move	$2,$0

$L653:
$LBB1057 = .
$LBB1047 = .
$LBB1007 = .
$LBB1006 = .
	.loc 2 2353 0
	li	$2,-1			# 0xffffffffffffffff
$L602:
$LBE1006 = .
$LBE1007 = .
	.loc 2 2983 0
	or	$19,$19,$2
	.loc 2 2984 0
	andi	$2,$18,0x88
$L775:
	beq	$2,$0,$L776
	andi	$2,$18,0x110

$LBB1008 = .
$LBB1009 = .
	.loc 2 2370 0
	lbu	$3,9($16)
	.loc 2 2369 0
	lui	$2,%hi(cur_p_pkt)
	lw	$5,%lo(cur_p_pkt)($2)
	.loc 2 2370 0
	li	$2,17			# 0x11
	bne	$3,$2,$L607
	move	$2,$0

	.loc 2 2372 0
	lui	$2,%hi(block)
	lw	$4,%lo(block)($2)
	li	$3,1			# 0x1
	bne	$4,$3,$L608
	lui	$3,%hi(attack_saddr+12)

	lw	$4,%lo(attack_saddr+12)($3)
	lw	$3,12($16)
	beq	$4,$3,$L654
	nop

$L608:
	.loc 2 2374 0
	lw	$4,12($5)
	.loc 2 2375 0
	lui	$3,%hi(per_udp_threshold)
	lw	$3,%lo(per_udp_threshold)($3)
	.loc 2 2374 0
	addiu	$4,$4,1
	sw	$4,12($5)
	.loc 2 2375 0
	slt	$4,$3,$4
	beq	$4,$0,$L762
	andi	$4,$18,0x80

	beq	$4,$0,$L762
	nop

	blez	$3,$L762
	lui	$3,%hi(LogFlag)

	.loc 2 2377 0
	lw	$7,12($16)
	.loc 2 2380 0
	lw	$4,%lo(LogFlag)($3)
	.loc 2 2378 0
	lw	$6,16($16)
	.loc 2 2377 0
	lui	$5,%hi(attack_saddr+12)
	sw	$7,%lo(attack_saddr+12)($5)
	.loc 2 2378 0
	lui	$5,%hi(attack_daddr+12)
	.loc 2 2380 0
	ori	$4,$4,0x80
	.loc 2 2378 0
	sw	$6,%lo(attack_daddr+12)($5)
	.loc 2 2379 0
	li	$5,1			# 0x1
	sw	$5,%lo(block)($2)
	.loc 2 2380 0
	sw	$4,%lo(LogFlag)($3)
$L762:
$LBE1009 = .
$LBE1008 = .
$LBE1047 = .
$LBE1057 = .
	.loc 2 2383 0
	j	$L607
	move	$2,$0

$L654:
$LBB1058 = .
$LBB1048 = .
$LBB1011 = .
$LBB1010 = .
	.loc 2 2373 0
	li	$2,-1			# 0xffffffffffffffff
$L607:
$LBE1010 = .
$LBE1011 = .
	.loc 2 2985 0
	or	$19,$19,$2
	.loc 2 2986 0
	andi	$2,$18,0x110
$L776:
	beq	$2,$0,$L777
	andi	$2,$18,0x200

$LBB1012 = .
$LBB1013 = .
	.loc 2 2390 0
	lbu	$3,9($16)
	.loc 2 2389 0
	lui	$2,%hi(cur_p_pkt)
	lw	$5,%lo(cur_p_pkt)($2)
	.loc 2 2390 0
	li	$2,1			# 0x1
	bne	$3,$2,$L612
	move	$2,$0

	.loc 2 2392 0
	lui	$2,%hi(block)
	lw	$4,%lo(block)($2)
	bne	$4,$3,$L613
	lui	$3,%hi(attack_saddr+16)

	lw	$4,%lo(attack_saddr+16)($3)
	lw	$3,12($16)
	beq	$4,$3,$L655
	nop

$L613:
	.loc 2 2394 0
	lw	$4,16($5)
	.loc 2 2395 0
	lui	$3,%hi(per_icmp_threshold)
	lw	$3,%lo(per_icmp_threshold)($3)
	.loc 2 2394 0
	addiu	$4,$4,1
	sw	$4,16($5)
	.loc 2 2395 0
	slt	$4,$3,$4
	beq	$4,$0,$L763
	andi	$4,$18,0x100

	beq	$4,$0,$L763
	nop

	blez	$3,$L763
	lui	$3,%hi(LogFlag)

	.loc 2 2397 0
	lw	$7,12($16)
	.loc 2 2400 0
	lw	$4,%lo(LogFlag)($3)
	.loc 2 2398 0
	lw	$6,16($16)
	.loc 2 2397 0
	lui	$5,%hi(attack_saddr+16)
	sw	$7,%lo(attack_saddr+16)($5)
	.loc 2 2398 0
	lui	$5,%hi(attack_daddr+16)
	.loc 2 2400 0
	ori	$4,$4,0x100
	.loc 2 2398 0
	sw	$6,%lo(attack_daddr+16)($5)
	.loc 2 2399 0
	li	$5,1			# 0x1
	sw	$5,%lo(block)($2)
	.loc 2 2400 0
	sw	$4,%lo(LogFlag)($3)
$L763:
$LBE1013 = .
$LBE1012 = .
$LBE1048 = .
$LBE1058 = .
	.loc 2 2403 0
	j	$L612
	move	$2,$0

$L655:
$LBB1059 = .
$LBB1049 = .
$LBB1015 = .
$LBB1014 = .
	.loc 2 2393 0
	li	$2,-1			# 0xffffffffffffffff
$L612:
$LBE1014 = .
$LBE1015 = .
	.loc 2 2987 0
	or	$19,$19,$2
	.loc 2 2988 0
	andi	$2,$18,0x200
$L777:
	beq	$2,$0,$L772
	ext	$2,$18,22,1

$LBB1016 = .
$LBB1017 = .
	.loc 2 2613 0
	lbu	$4,9($16)
	.loc 2 2611 0
	lui	$2,%hi(cur_p_pkt)
	lw	$3,%lo(cur_p_pkt)($2)
	.loc 2 2613 0
	li	$2,6			# 0x6
	bne	$4,$2,$L764
	nop

	.loc 2 2616 0
	lhu	$2,32($3)
	beq	$2,$0,$L618
	nop

	lhu	$5,2($20)
	bne	$5,$2,$L758
	nop

$L764:
	j	$L617
	lw	$2,20($3)

$L758:
	.loc 2 2617 0
	lw	$2,20($3)
	addiu	$2,$2,1
	sw	$2,20($3)
	lbu	$4,9($16)
$L617:
	.loc 2 2621 0
	li	$5,17			# 0x11
	bne	$4,$5,$L620
	nop

	.loc 2 2623 0
	lhu	$4,32($3)
	beq	$4,$0,$L621
	nop

	lhu	$5,2($20)
	beq	$5,$4,$L620
	nop

	.loc 2 2624 0
	addiu	$2,$2,1
	sw	$2,20($3)
$L620:
	.loc 2 2629 0
	ext	$3,$18,23,1
	beq	$3,$0,$L623
	nop

	slt	$2,$2,11
	bne	$2,$0,$L772
	ext	$2,$18,22,1

$L649:
	.loc 2 2637 0
	lui	$2,%hi(LogFlag)
	lw	$5,%lo(LogFlag)($2)
	.loc 2 2638 0
	lw	$4,12($16)
	.loc 2 2639 0
	lw	$3,16($16)
	.loc 2 2637 0
	ori	$5,$5,0x200
	sw	$5,%lo(LogFlag)($2)
	.loc 2 2638 0
	lui	$2,%hi(attack_saddr+20)
	sw	$4,%lo(attack_saddr+20)($2)
	.loc 2 2639 0
	lui	$2,%hi(attack_daddr+20)
	sw	$3,%lo(attack_daddr+20)($2)
$LBE1017 = .
$LBE1016 = .
	.loc 2 2990 0
	ext	$2,$18,22,1
$L772:
	beq	$2,$0,$L592
	nop

$L594:
	.loc 2 2994 0
	andi	$2,$18,0x8000
	beq	$2,$0,$L625
	li	$3,6			# 0x6

$LBB1020 = .
$LBB1021 = .
	.loc 2 2560 0
	lbu	$4,9($16)
	bne	$4,$3,$L626
	move	$2,$0

	.loc 2 2562 0
	lbu	$4,13($20)
	lui	$3,%hi(_tcpDosScanBitmap)
	addiu	$3,$3,%lo(_tcpDosScanBitmap)
	andi	$4,$4,0x3f
	addu	$3,$4,$3
	lb	$3,0($3)
	beq	$3,$0,$L626
	nop

	.loc 2 2564 0
	lui	$2,%hi(LogFlag)
	lw	$5,%lo(LogFlag)($2)
	.loc 2 2565 0
	lw	$4,12($16)
	.loc 2 2566 0
	lw	$3,16($16)
	.loc 2 2564 0
	ori	$5,$5,0x8000
	sw	$5,%lo(LogFlag)($2)
	.loc 2 2565 0
	lui	$2,%hi(attack_saddr+44)
	sw	$4,%lo(attack_saddr+44)($2)
	.loc 2 2566 0
	lui	$2,%hi(attack_daddr+44)
	sw	$3,%lo(attack_daddr+44)($2)
	.loc 2 2567 0
	li	$2,-1			# 0xffffffffffffffff
$L626:
$LBE1021 = .
$LBE1020 = .
	.loc 2 2995 0
	or	$19,$19,$2
$L625:
	.loc 2 2996 0
	li	$2,65536			# 0x10000
	and	$3,$18,$2
	beq	$3,$0,$L627
	li	$4,6			# 0x6

$LBB1022 = .
$LBB1023 = .
	.loc 2 2501 0
	lbu	$5,9($16)
	bne	$5,$4,$L628
	move	$3,$0

	lbu	$5,13($20)
	li	$4,2			# 0x2
	andi	$5,$5,0x3f
	bne	$5,$4,$L628
	nop

$LBB1024 = .
	.loc 2 2503 0
	lw	$5,0($16)
	lw	$4,12($20)
	lhu	$6,2($16)
	ext	$5,$5,24,4
	sll	$5,$5,2
	srl	$4,$4,28
	subu	$5,$6,$5
	sll	$4,$4,2
	.loc 2 2504 0
	bne	$5,$4,$L765
	nop

	.loc 2 2511 0
	lhu	$4,6($16)
	andi	$4,$4,0x2000
	beq	$4,$0,$L628
	nop

$L765:
	.loc 2 2513 0
	lui	$3,%hi(LogFlag)
	lw	$6,%lo(LogFlag)($3)
	.loc 2 2514 0
	lw	$5,12($16)
	.loc 2 2515 0
	lw	$4,16($16)
	.loc 2 2513 0
	or	$2,$6,$2
	sw	$2,%lo(LogFlag)($3)
	.loc 2 2514 0
	lui	$2,%hi(attack_saddr+48)
	sw	$5,%lo(attack_saddr+48)($2)
	.loc 2 2515 0
	lui	$2,%hi(attack_daddr+48)
	sw	$4,%lo(attack_daddr+48)($2)
	.loc 2 2516 0
	li	$3,-1			# 0xffffffffffffffff
$L628:
$LBE1024 = .
$LBE1023 = .
$LBE1022 = .
	.loc 2 2997 0
	or	$19,$19,$3
$L627:
	.loc 2 2998 0
	andi	$2,$18,0x800
	beq	$2,$0,$L778
	ext	$2,$18,18,1

$LBE1049 = .
$LBE1059 = .
	.loc 2 2958 0
	lw	$2,12($16)
$LBB1060 = .
$LBB1050 = .
$LBB1025 = .
$LBB1026 = .
	.loc 2 2465 0
	lw	$4,16($16)
	bne	$2,$4,$L631
	move	$3,$0

	.loc 2 2467 0
	lui	$3,%hi(LogFlag)
	lw	$4,%lo(LogFlag)($3)
	ori	$4,$4,0x800
	sw	$4,%lo(LogFlag)($3)
	.loc 2 2468 0
	lui	$3,%hi(attack_saddr+28)
	sw	$2,%lo(attack_saddr+28)($3)
	.loc 2 2469 0
	lui	$3,%hi(attack_daddr+28)
	sw	$2,%lo(attack_daddr+28)($3)
	.loc 2 2470 0
	li	$3,-1			# 0xffffffffffffffff
$L631:
$LBE1026 = .
$LBE1025 = .
	.loc 2 2999 0
	or	$19,$19,$3
	.loc 2 3000 0
	ext	$2,$18,18,1
$L778:
	beq	$2,$0,$L779
	li	$2,131072			# 0x20000

$LBB1027 = .
$LBB1028 = .
	.loc 2 2544 0
	lbu	$2,9($16)
	li	$4,17			# 0x11
	bne	$2,$4,$L633
	move	$3,$0

	.loc 2 2546 0
	lhu	$5,2($20)
	li	$6,7			# 0x7
	beq	$5,$6,$L634
	li	$4,-3			# 0xfffffffffffffffd

	and	$5,$5,$4
	beq	$5,$2,$L634
	nop

	lhu	$5,0($20)
	beq	$5,$6,$L634
	and	$4,$5,$4

	bne	$4,$2,$L633
	nop

$L634:
	.loc 2 2548 0
	lui	$2,%hi(LogFlag)
	lw	$6,%lo(LogFlag)($2)
	.loc 2 2549 0
	lw	$4,12($16)
	.loc 2 2548 0
	li	$5,262144			# 0x40000
	.loc 2 2550 0
	lw	$3,16($16)
	.loc 2 2548 0
	or	$5,$6,$5
	sw	$5,%lo(LogFlag)($2)
	.loc 2 2549 0
	lui	$2,%hi(attack_saddr+56)
	sw	$4,%lo(attack_saddr+56)($2)
	.loc 2 2550 0
	lui	$2,%hi(attack_daddr+56)
	sw	$3,%lo(attack_daddr+56)($2)
	.loc 2 2551 0
	li	$3,-1			# 0xffffffffffffffff
$L633:
$LBE1028 = .
$LBE1027 = .
	.loc 2 3001 0
	or	$19,$19,$3
	.loc 2 3002 0
	li	$2,131072			# 0x20000
$L779:
	and	$3,$18,$2
	beq	$3,$0,$L635
	li	$4,17			# 0x11

$LBB1029 = .
$LBB1030 = .
	.loc 2 2480 0
	lbu	$5,9($16)
	bne	$5,$4,$L636
	move	$3,$0

	.loc 2 2482 0
	lhu	$4,6($16)
	andi	$4,$4,0x3fff
	bne	$4,$0,$L636
	nop

	.loc 2 2484 0
	lw	$5,0($16)
	lhu	$6,2($16)
	.loc 2 2485 0
	lhu	$4,4($20)
	.loc 2 2484 0
	ext	$5,$5,24,4
	sll	$5,$5,2
	subu	$5,$6,$5
	.loc 2 2485 0
	slt	$4,$4,$5
	beq	$4,$0,$L636
	nop

	.loc 2 2487 0
	lui	$3,%hi(LogFlag)
	lw	$6,%lo(LogFlag)($3)
	.loc 2 2488 0
	lw	$5,12($16)
	.loc 2 2489 0
	lw	$4,16($16)
	.loc 2 2487 0
	or	$2,$6,$2
	sw	$2,%lo(LogFlag)($3)
	.loc 2 2488 0
	lui	$2,%hi(attack_saddr+52)
	sw	$5,%lo(attack_saddr+52)($2)
	.loc 2 2489 0
	lui	$2,%hi(attack_daddr+52)
	sw	$4,%lo(attack_daddr+52)($2)
	.loc 2 2490 0
	li	$3,-1			# 0xffffffffffffffff
$L636:
$LBE1030 = .
$LBE1029 = .
	.loc 2 3003 0
	or	$19,$19,$3
$L635:
	.loc 2 3004 0
	andi	$2,$18,0x4000
	beq	$2,$0,$L637
	nop

$LBB1031 = .
$LBB1032 = .
	.loc 2 2525 0
	lhu	$3,6($16)
	.loc 2 2528 0
	andi	$4,$3,0x2000
	bne	$4,$0,$L638
	move	$2,$0

	andi	$3,$3,0x1fff
	beq	$3,$0,$L638
	sll	$5,$3,3

	.loc 2 2531 0
	lw	$6,0($16)
	lhu	$4,2($16)
	ext	$3,$6,24,4
	sll	$3,$3,2
	addu	$4,$5,$4
	subu	$4,$4,$3
	.loc 2 2532 0
	li	$3,65536			# 0x10000
	sltu	$3,$4,$3
	bne	$3,$0,$L638
	nop

	.loc 2 2534 0
	lui	$2,%hi(LogFlag)
	lw	$5,%lo(LogFlag)($2)
	.loc 2 2535 0
	lw	$4,12($16)
	.loc 2 2536 0
	lw	$3,16($16)
	.loc 2 2534 0
	ori	$5,$5,0x4000
	sw	$5,%lo(LogFlag)($2)
	.loc 2 2535 0
	lui	$2,%hi(attack_saddr+40)
	sw	$4,%lo(attack_saddr+40)($2)
	.loc 2 2536 0
	lui	$2,%hi(attack_daddr+40)
	sw	$3,%lo(attack_daddr+40)($2)
	.loc 2 2537 0
	li	$2,-1			# 0xffffffffffffffff
$L638:
$LBE1032 = .
$LBE1031 = .
	.loc 2 3005 0
	or	$19,$19,$2
$L637:
	.loc 2 3006 0
	andi	$2,$18,0x400
	beq	$2,$0,$L639
	li	$4,1			# 0x1

$LBB1033 = .
$LBB1034 = .
	.loc 2 2449 0
	lw	$3,0($16)
	.loc 2 2450 0
	lbu	$5,9($16)
	.loc 2 2449 0
	ext	$3,$3,24,4
	.loc 2 2450 0
	bne	$5,$4,$L640
	move	$2,$0

	sll	$3,$3,2
	addu	$3,$16,$3
	lbu	$4,0($3)
	li	$3,8			# 0x8
	bne	$4,$3,$L640
	lui	$4,%hi(lan_addr)

	.loc 2 2452 0
	lw	$5,%lo(lan_addr)($4)
	lw	$3,12($16)
	lui	$4,%hi(lan_mask)
	lw	$4,%lo(lan_mask)($4)
	xor	$5,$3,$5
	and	$4,$5,$4
	bne	$4,$0,$L640
	nop

	.loc 2 2454 0
	lui	$2,%hi(LogFlag)
	lw	$5,%lo(LogFlag)($2)
	.loc 2 2456 0
	lw	$4,16($16)
	.loc 2 2454 0
	ori	$5,$5,0x400
	sw	$5,%lo(LogFlag)($2)
	.loc 2 2455 0
	lui	$2,%hi(attack_saddr+24)
	sw	$3,%lo(attack_saddr+24)($2)
	.loc 2 2456 0
	lui	$2,%hi(attack_daddr+24)
	sw	$4,%lo(attack_daddr+24)($2)
	.loc 2 2457 0
	li	$2,-1			# 0xffffffffffffffff
$L640:
$LBE1034 = .
$LBE1033 = .
	.loc 2 3007 0
	or	$19,$19,$2
$L639:
	.loc 2 3008 0
	andi	$2,$18,0x1000
	beq	$2,$0,$L641
	lui	$2,%hi(lan_addr)

$LBB1035 = .
$LBB1036 = .
	.loc 2 2436 0
	lw	$5,%lo(lan_addr)($2)
	lw	$3,12($16)
	lui	$2,%hi(lan_mask)
	lw	$4,%lo(lan_mask)($2)
	xor	$5,$3,$5
	and	$4,$5,$4
	bne	$4,$0,$L642
	move	$2,$0

	lbu	$5,9($16)
	li	$4,1			# 0x1
	beq	$5,$4,$L642
	nop

	.loc 2 2438 0
	lui	$2,%hi(LogFlag)
	lw	$5,%lo(LogFlag)($2)
	.loc 2 2440 0
	lw	$4,16($16)
	.loc 2 2438 0
	ori	$5,$5,0x1000
	sw	$5,%lo(LogFlag)($2)
	.loc 2 2439 0
	lui	$2,%hi(attack_saddr+32)
	sw	$3,%lo(attack_saddr+32)($2)
	.loc 2 2440 0
	lui	$2,%hi(attack_daddr+32)
	sw	$4,%lo(attack_daddr+32)($2)
	.loc 2 2441 0
	li	$2,-1			# 0xffffffffffffffff
$L642:
$LBE1036 = .
$LBE1035 = .
	.loc 2 3009 0
	or	$19,$19,$2
$L641:
	.loc 2 3010 0
	andi	$18,$18,0x2000
	beq	$18,$0,$L643
	nop

$LBB1037 = .
$LBB1038 = .
	.loc 2 2575 0
	jal	dos_pkt_locate.isra.5
	lw	$4,12($16)

	beq	$2,$0,$L644
	nop

	.loc 2 2576 0
	lui	$2,%hi(cur_p_pkt)
	lw	$3,%lo(cur_p_pkt)($2)
	.loc 2 2579 0
	lhu	$6,4($16)
	lhu	$4,28($3)
	beq	$6,$4,$L645
	nop

	bne	$4,$0,$L644
	move	$2,$0

$L645:
	.loc 2 2582 0
	lhu	$4,6($16)
	andi	$5,$4,0x3fff
	beq	$5,$0,$L644
	move	$2,$0

	.loc 2 2584 0
	lhu	$5,30($3)
	sll	$7,$4,3
	andi	$7,$7,0xffff
	slt	$7,$7,$5
	bne	$7,$0,$L646
	andi	$4,$4,0x2000

	.loc 2 2586 0
	bne	$4,$0,$L647
	nop

	.loc 2 2588 0
	sh	$0,28($3)
$LBE1038 = .
$LBE1037 = .
$LBE1050 = .
$LBE1060 = .
	.loc 2 2589 0
	j	$L644
	sh	$0,30($3)

$L647:
$LBB1061 = .
$LBB1051 = .
$LBB1041 = .
$LBB1039 = .
	.loc 2 2593 0
	sh	$6,28($3)
	.loc 2 2594 0
	lw	$4,0($16)
	lhu	$6,2($16)
	ext	$4,$4,24,4
	addu	$5,$5,$6
	sll	$4,$4,2
	subu	$4,$5,$4
$LBE1039 = .
$LBE1041 = .
$LBE1051 = .
$LBE1061 = .
	j	$L644
	sh	$4,30($3)

$L646:
$LBB1062 = .
$LBB1052 = .
$LBB1042 = .
$LBB1040 = .
	.loc 2 2599 0
	lui	$2,%hi(LogFlag)
	lw	$5,%lo(LogFlag)($2)
	.loc 2 2600 0
	lw	$4,12($16)
	.loc 2 2601 0
	lw	$3,16($16)
	.loc 2 2599 0
	ori	$5,$5,0x2000
	sw	$5,%lo(LogFlag)($2)
	.loc 2 2600 0
	lui	$2,%hi(attack_saddr+36)
	sw	$4,%lo(attack_saddr+36)($2)
	.loc 2 2601 0
	lui	$2,%hi(attack_daddr+36)
	sw	$3,%lo(attack_daddr+36)($2)
	.loc 2 2602 0
	li	$2,-1			# 0xffffffffffffffff
$L644:
$LBE1040 = .
$LBE1042 = .
	.loc 2 3011 0
	or	$19,$19,$2
$L643:
	.loc 2 3013 0
	bne	$19,$0,$L756
	move	$16,$0

$L588:
$LBE1052 = .
$LBE1062 = .
	.loc 2 3384 0
	jal	rtl_ip_hdr
	move	$4,$17

	lbu	$3,9($2)
	li	$2,1			# 0x1
	beq	$3,$2,$L582
	lui	$2,%hi(none_dos_drop_pkt_cnt)

$L773:
	.loc 2 3396 0
	lw	$3,%lo(none_dos_drop_pkt_cnt)($2)
	.loc 2 3399 0
	li	$16,1			# 0x1
	.loc 2 3396 0
	addiu	$3,$3,1
	.loc 2 3399 0
	j	$L756
	sw	$3,%lo(none_dos_drop_pkt_cnt)($2)

$L618:
$LBB1063 = .
$LBB1053 = .
$LBB1043 = .
$LBB1018 = .
	.loc 2 2619 0
	lhu	$4,2($20)
	lw	$2,20($3)
	sh	$4,32($3)
	j	$L617
	lbu	$4,9($16)

$L621:
	.loc 2 2626 0
	lhu	$4,2($20)
$LBE1018 = .
$LBE1043 = .
$LBE1053 = .
$LBE1063 = .
	j	$L620
	sh	$4,32($3)

$L623:
$LBB1064 = .
$LBB1054 = .
$LBB1044 = .
$LBB1019 = .
	.loc 2 2635 0
	slt	$2,$2,201
	beq	$2,$0,$L649
	ext	$2,$18,22,1

	j	$L772
	nop

$L756:
$LBE1019 = .
$LBE1044 = .
$LBE1054 = .
$LBE1064 = .
	.loc 2 3400 0
	lw	$31,44($sp)
$L770:
	move	$2,$16
	lw	$21,40($sp)
	lw	$20,36($sp)
	lw	$19,32($sp)
	lw	$18,28($sp)
	lw	$17,24($sp)
	lw	$16,20($sp)
	j	$31
	addiu	$sp,$sp,48

	.cfi_def_cfa_offset 0
	.cfi_restore 16
	.cfi_restore 17
	.cfi_restore 18
	.cfi_restore 19
	.cfi_restore 20
	.cfi_restore 21
	.cfi_restore 31
	.set	macro
	.set	reorder
	.end	filter_enter
	.cfi_endproc
$LFE3364:
	.size	filter_enter, .-filter_enter
	.section	.rodata.str1.4
	.align	2
$LC30:
	.ascii	"enable_dos\000"
	.section	.init.text,"ax",@progbits
	.align	2
	.globl	filter_init
$LFB3365 = .
	.loc 2 3428 0
	.cfi_startproc
	.set	nomips16
	.ent	filter_init
	.type	filter_init, @function
filter_init:
	.frame	$sp,32,$31		# vars= 0, regs= 2/0, args= 24, gp= 0
	.mask	0x80010000,-4
	.fmask	0x00000000,0
	.set	noreorder
	.set	nomacro
	.loc 2 3431 0
	lui	$2,%hi(item)
	.loc 2 3428 0
	addiu	$sp,$sp,-32
	.cfi_def_cfa_offset 32
	.loc 2 3431 0
	sw	$0,%lo(item)($2)
	.loc 2 3460 0
	lui	$4,%hi($LC30)
	.loc 2 3432 0
	lui	$2,%hi(none_dos_drop_pkt_cnt)
	.loc 2 3460 0
	lui	$6,%hi(proc_root)
	lui	$7,%hi(dos_proc_fops)
	addiu	$4,$4,%lo($LC30)
	.loc 2 3428 0
	sw	$16,24($sp)
	.loc 2 3460 0
	move	$5,$0
	.cfi_offset 16, -8
	.loc 2 3469 0
	lui	$16,%hi(dos_timer)
	.loc 2 3460 0
	addiu	$6,$6,%lo(proc_root)
	addiu	$7,$7,%lo(dos_proc_fops)
	sw	$0,16($sp)
	.loc 2 3432 0
	sw	$0,%lo(none_dos_drop_pkt_cnt)($2)
	.loc 2 3437 0
	lui	$2,%hi(url_count)
	.loc 2 3428 0
	sw	$31,28($sp)
	.cfi_offset 31, -4
	.loc 2 3460 0
	jal	proc_create_data
	sb	$0,%lo(url_count)($2)

	.loc 2 3469 0
	move	$7,$0
	move	$6,$0
	addiu	$4,$16,%lo(dos_timer)
	.loc 2 3460 0
	lui	$3,%hi(res3)
	.loc 2 3469 0
	move	$5,$0
	jal	init_timer_key
	sw	$2,%lo(res3)($3)

	.loc 2 3470 0
	lui	$2,%hi(jiffies)
	lw	$3,%lo(jiffies)($2)
	.loc 2 3473 0
	lw	$5,%lo(jiffies)($2)
	.loc 2 3470 0
	addiu	$2,$16,%lo(dos_timer)
	addiu	$3,$3,100
	sw	$3,8($2)
	.loc 2 3472 0
	lui	$3,%hi(dos_timer_fn)
	addiu	$3,$3,%lo(dos_timer_fn)
$LBB1065 = .
	.loc 2 3475 0
	lui	$16,%hi(_tcpDosScanBitmap)
$LBE1065 = .
	.loc 2 3473 0
	move	$4,$2
	addiu	$5,$5,100
	.loc 2 3472 0
	sw	$3,16($2)
	.loc 2 3473 0
	jal	mod_timer
	sw	$0,20($2)

$LBB1066 = .
	.loc 2 3475 0
	addiu	$4,$16,%lo(_tcpDosScanBitmap)
	move	$5,$0
	jal	memset
	li	$6,64			# 0x40

$LBE1066 = .
	.loc 2 3476 0
	li	$2,1			# 0x1
	addiu	$3,$16,%lo(_tcpDosScanBitmap)
	sb	$2,63($3)
	sb	$2,58($3)
	sb	$2,41($3)
	sb	$2,40($3)
	sb	$2,33($3)
	sb	$2,32($3)
	sb	$2,9($3)
	sb	$2,8($3)
	sb	$2,3($3)
	sb	$2,%lo(_tcpDosScanBitmap)($16)
$LBB1067 = .
$LBB1068 = .
	.loc 1 1652 0
	li	$3,1			# 0x1
	lui	$2,%hi(filter_rule_num)
	.loc 1 1653 0
	jal	filter_table_init
	sw	$3,%lo(filter_rule_num)($2)

$LBE1068 = .
$LBE1067 = .
	.loc 2 3502 0
	lw	$31,28($sp)
	lw	$16,24($sp)
	move	$2,$0
	j	$31
	addiu	$sp,$sp,32

	.cfi_def_cfa_offset 0
	.cfi_restore 16
	.cfi_restore 31
	.set	macro
	.set	reorder
	.end	filter_init
	.cfi_endproc
$LFE3365:
	.size	filter_init, .-filter_init
	.section	.exit.text,"ax",@progbits
	.align	2
	.globl	filter_exit
$LFB3366 = .
	.loc 2 3505 0
	.cfi_startproc
	.set	nomips16
	.ent	filter_exit
	.type	filter_exit, @function
filter_exit:
	.frame	$sp,24,$31		# vars= 0, regs= 2/0, args= 16, gp= 0
	.mask	0x80010000,-4
	.fmask	0x00000000,0
	.set	noreorder
	.set	nomacro
	addiu	$sp,$sp,-24
	.cfi_def_cfa_offset 24
	sw	$16,16($sp)
	.cfi_offset 16, -8
	.loc 2 3508 0
	lui	$16,%hi(res3)
	lw	$5,%lo(res3)($16)
	.loc 2 3508 0
	beq	$5,$0,$L784
	sw	$31,20($sp)

	.cfi_offset 31, -4
	.loc 2 3509 0
	lui	$4,%hi($LC30)
	jal	remove_proc_entry
	addiu	$4,$4,%lo($LC30)

	.loc 2 3510 0
	sw	$0,%lo(res3)($16)
$L784:
	.loc 2 3512 0
	lui	$4,%hi(dos_timer)
	jal	del_timer_sync
	addiu	$4,$4,%lo(dos_timer)

	.loc 2 3521 0
	lw	$31,20($sp)
	lw	$16,16($sp)
	.cfi_restore 16
	.cfi_restore 31
	.loc 2 3517 0
	j	filter_exit_fastpath
	addiu	$sp,$sp,24

	.cfi_def_cfa_offset 0
	.set	macro
	.set	reorder
	.end	filter_exit
	.cfi_endproc
$LFE3366:
	.size	filter_exit, .-filter_exit
	.local	res3
	.comm	res3,4,4
	.globl	fast_path_cusRspTCPEndAck_func
	.section	.bss,"aw",@nobits
	.align	2
	.type	fast_path_cusRspTCPEndAck_func, @object
	.size	fast_path_cusRspTCPEndAck_func, 4
fast_path_cusRspTCPEndAck_func:
	.space	4
	.globl	fast_path_cusRspTCPFinAck_func
	.align	2
	.type	fast_path_cusRspTCPFinAck_func, @object
	.size	fast_path_cusRspTCPFinAck_func, 4
fast_path_cusRspTCPFinAck_func:
	.space	4
	.globl	fast_path_cusRsp401_func
	.align	2
	.type	fast_path_cusRsp401_func, @object
	.size	fast_path_cusRsp401_func, 4
fast_path_cusRsp401_func:
	.space	4
	.globl	dos_proc_fops
	.data
	.align	2
	.type	dos_proc_fops, @object
	.size	dos_proc_fops, 108
dos_proc_fops:
	.space	4
	.word	seq_lseek
	.word	seq_read
	.word	dos_single_write
	.space	28
	.word	dos_single_open
	.space	4
	.word	single_release
	.space	52
	.globl	___strtok
	.section	.bss
	.align	2
	.type	___strtok, @object
	.size	___strtok, 4
___strtok:
	.space	4
	.local	endStateClientSeq
	.comm	endStateClientSeq,4,4
	.local	endStateClientPort
	.comm	endStateClientPort,2,2
	.local	finStateClientSeq
	.comm	finStateClientSeq,4,4
	.local	finStateClientPort
	.comm	finStateClientPort,2,2
	.local	url_count
	.comm	url_count,1,1
	.globl	wan_ppp_dev
	.align	2
	.type	wan_ppp_dev, @object
	.size	wan_ppp_dev, 4
wan_ppp_dev:
	.space	4
	.globl	wan_dev
	.align	2
	.type	wan_dev, @object
	.size	wan_dev, 4
wan_dev:
	.space	4
	.local	item_backup
	.comm	item_backup,4,4
	.local	none_dos_drop_pkt_cnt
	.comm	none_dos_drop_pkt_cnt,4,4
	.local	dos_flag
	.comm	dos_flag,80,4
	.local	attack_daddr
	.comm	attack_daddr,60,4
	.local	attack_saddr
	.comm	attack_saddr,60,4
	.local	lan_mask
	.comm	lan_mask,4,4
	.local	lan_addr
	.comm	lan_addr,4,4
	.local	item
	.comm	item,4,4
	.local	block_count
	.comm	block_count,4,4
	.local	block_time
	.comm	block_time,4,4
	.local	block
	.comm	block,4,4
	.local	per_icmp_threshold
	.comm	per_icmp_threshold,4,4
	.local	per_udp_threshold
	.comm	per_udp_threshold,4,4
	.local	per_fin_threshold
	.comm	per_fin_threshold,4,4
	.local	per_syn_threshold
	.comm	per_syn_threshold,4,4
	.local	whole_icmp_threshold
	.comm	whole_icmp_threshold,4,4
	.local	whole_udp_threshold
	.comm	whole_udp_threshold,4,4
	.local	whole_fin_threshold
	.comm	whole_fin_threshold,4,4
	.local	whole_syn_threshold
	.comm	whole_syn_threshold,4,4
	.local	op_mode
	.comm	op_mode,1,1
	.local	_tcpDosScanBitmap
	.comm	_tcpDosScanBitmap,64,4
	.local	dos_timer
	.comm	dos_timer,28,4
	.local	cur_p_pkt
	.comm	cur_p_pkt,4,4
	.local	dos_pkt
	.comm	dos_pkt,36864,4
	.local	ConnectedIp
	.comm	ConnectedIp,1024,4
	.local	LogFlag
	.comm	LogFlag,4,4
	.local	url_cache
	.comm	url_cache,20,4
	.local	block_message
	.comm	block_message,4,4
	.local	res12
	.comm	res12,4,4
	.globl	filter_table_proc_fops
	.data
	.align	2
	.type	filter_table_proc_fops, @object
	.size	filter_table_proc_fops, 108
filter_table_proc_fops:
	.space	4
	.word	seq_lseek
	.word	seq_read
	.word	filter_table_single_write
	.space	28
	.word	filter_table_single_open
	.space	4
	.word	single_release
	.space	52
	.globl	table_list_head
	.section	.bss
	.align	2
	.type	table_list_head, @object
	.size	table_list_head, 32
table_list_head:
	.space	32
	.local	filter_rule_num
	.comm	filter_rule_num,4,4
	.globl	filter_tlb
	.data
	.align	2
	.type	filter_tlb, @object
	.size	filter_tlb, 40
filter_tlb:
	.word	0
	.word	0
	.word	1
	.word	rtl_ip_range_filter_fastpath
	.word	2
	.word	rtl_mac_filter_fastpath
	.word	3
	.word	rtl_url_filter_fastpath
	.word	4
	.word	rtl_schedule_filter_fastpath
	.local	url_filter_flag
	.comm	url_filter_flag,4,4
	.local	url_filter_mode
	.comm	url_filter_mode,4,4
	.local	log_enable
	.comm	log_enable,4,4
	.local	log_info
	.comm	log_info,32,4
	.local	get_info_from_usr_space
	.comm	get_info_from_usr_space,1024,4
	.text
$Letext0:
	.file 10 "include/uapi/asm-generic/int-ll64.h"
	.file 11 "include/asm-generic/int-ll64.h"
	.file 12 "/home/extra_home/marklee/rtk_OpenWRT_BB/BB_v1407/0629_co_2.4_pre_release/svn_test/rtk_BarrierBreaker_v14.07.x/build_dir/target-mips_24kec_uClibc-0.9.33.2/linux-rtkmips_rtl8198c/linux-3.10.49/include/uapi/asm-generic/posix_types.h"
	.file 13 "include/uapi/linux/types.h"
	.file 14 "include/linux/types.h"
	.file 15 "include/asm-generic/atomic-long.h"
	.file 16 "/home/extra_home/marklee/rtk_OpenWRT_BB/BB_v1407/0629_co_2.4_pre_release/svn_test/rtk_BarrierBreaker_v14.07.x/build_dir/target-mips_24kec_uClibc-0.9.33.2/linux-rtkmips_rtl8198c/linux-3.10.49/arch/mips/include/asm/page.h"
	.file 17 "include/uapi/linux/in.h"
	.file 18 "include/uapi/linux/if_link.h"
	.file 19 "include/uapi/linux/rtnetlink.h"
	.file 20 "include/net/ndisc.h"
	.file 21 "include/linux/inetdevice.h"
	.file 22 "include/net/rtl/rtl_types.h"
	.file 23 "include/net/rtl/fastpath/fastpath_core.h"
	.file 24 "/home/extra_home/marklee/rtk_OpenWRT_BB/BB_v1407/0629_co_2.4_pre_release/svn_test/rtk_BarrierBreaker_v14.07.x/build_dir/target-mips_24kec_uClibc-0.9.33.2/linux-rtkmips_rtl8198c/linux-3.10.49/arch/mips/include/asm/bitops.h"
	.file 25 "include/linux/kmemleak.h"
	.file 26 "include/linux/log2.h"
	.file 27 "include/asm-generic/getorder.h"
	.file 28 "include/linux/slab.h"
	.file 29 "/home/extra_home/marklee/rtk_OpenWRT_BB/BB_v1407/0629_co_2.4_pre_release/svn_test/rtk_BarrierBreaker_v14.07.x/build_dir/target-mips_24kec_uClibc-0.9.33.2/linux-rtkmips_rtl8198c/linux-3.10.49/arch/mips/include/asm/thread_info.h"
	.file 30 "include/net/inet_frag.h"
	.file 31 "include/linux/etherdevice.h"
	.file 32 "include/linux/export.h"
	.file 33 "/home/extra_home/marklee/rtk_OpenWRT_BB/BB_v1407/0629_co_2.4_pre_release/svn_test/rtk_BarrierBreaker_v14.07.x/build_dir/target-mips_24kec_uClibc-0.9.33.2/linux-rtkmips_rtl8198c/linux-3.10.49/arch/mips/include/asm/cpu-info.h"
	.file 34 "include/linux/printk.h"
	.file 35 "include/linux/kernel.h"
	.file 36 "include/linux/cpumask.h"
	.file 37 "include/linux/time.h"
	.file 38 "include/linux/highuid.h"
	.file 39 "include/linux/seq_file.h"
	.file 40 "/home/extra_home/marklee/rtk_OpenWRT_BB/BB_v1407/0629_co_2.4_pre_release/svn_test/rtk_BarrierBreaker_v14.07.x/build_dir/target-mips_24kec_uClibc-0.9.33.2/linux-rtkmips_rtl8198c/linux-3.10.49/arch/mips/include/asm/io.h"
	.file 41 "include/linux/mm.h"
	.file 42 "include/linux/mmzone.h"
	.file 43 "include/linux/jiffies.h"
	.file 44 "include/linux/workqueue.h"
	.file 45 "/home/extra_home/marklee/rtk_OpenWRT_BB/BB_v1407/0629_co_2.4_pre_release/svn_test/rtk_BarrierBreaker_v14.07.x/build_dir/target-mips_24kec_uClibc-0.9.33.2/linux-rtkmips_rtl8198c/linux-3.10.49/arch/mips/include/asm/smp.h"
	.file 46 "/home/extra_home/marklee/rtk_OpenWRT_BB/BB_v1407/0629_co_2.4_pre_release/svn_test/rtk_BarrierBreaker_v14.07.x/build_dir/target-mips_24kec_uClibc-0.9.33.2/linux-rtkmips_rtl8198c/linux-3.10.49/arch/mips/include/asm/smp-ops.h"
	.file 47 "include/asm-generic/percpu.h"
	.file 48 "include/linux/sched.h"
	.file 49 "include/linux/percpu_counter.h"
	.file 50 "include/linux/quota.h"
	.file 51 "include/linux/interrupt.h"
	.file 52 "include/linux/kernel_stat.h"
	.file 53 "include/linux/ioport.h"
	.file 54 "include/linux/debug_locks.h"
	.file 55 "/home/extra_home/marklee/rtk_OpenWRT_BB/BB_v1407/0629_co_2.4_pre_release/svn_test/rtk_BarrierBreaker_v14.07.x/build_dir/target-mips_24kec_uClibc-0.9.33.2/linux-rtkmips_rtl8198c/linux-3.10.49/arch/mips/include/asm/pgtable-32.h"
	.file 56 "/home/extra_home/marklee/rtk_OpenWRT_BB/BB_v1407/0629_co_2.4_pre_release/svn_test/rtk_BarrierBreaker_v14.07.x/build_dir/target-mips_24kec_uClibc-0.9.33.2/linux-rtkmips_rtl8198c/linux-3.10.49/arch/mips/include/asm/pgtable.h"
	.file 57 "include/asm-generic/pgtable.h"
	.file 58 "include/linux/vmstat.h"
	.file 59 "include/linux/netfilter.h"
	.file 60 "include/net/net_namespace.h"
	.file 61 "include/linux/netdevice.h"
	.file 62 "include/net/sock.h"
	.file 63 "include/net/inet_sock.h"
	.file 64 "include/net/ip.h"
	.file 65 "include/net/inet_connection_sock.h"
	.file 66 "include/net/route.h"
	.file 67 "include/net/arp.h"
	.file 68 "include/net/tcp.h"
	.file 69 "/home/extra_home/marklee/rtk_OpenWRT_BB/BB_v1407/0629_co_2.4_pre_release/svn_test/rtk_BarrierBreaker_v14.07.x/build_dir/target-mips_24kec_uClibc-0.9.33.2/linux-rtkmips_rtl8198c/linux-3.10.49/arch/mips/include/asm/bug.h"